; ModuleID = 'ir/24_0.ll'
source_filename = "/home/users/eleonora.cabai/Documents/K-Means-AIE/aie/Work/aie/24_0/src/24_0.cc"
target datalayout = "e-i8:8:8-i16:16:16-i32:32:32-i64:32:32-f32:32:32-f64:32:32-p:32:32:32:32:8-s0:256:256-a0:8:8-S256-n32:64-P1-p0:20:32:32:32:8-p1:20:32:32:32:8-p2:20:32:32:32:8-p3:20:32:32:32:8-p4:20:32:32:32:8-p5:20:32:32:32:8-p6:20:32:32:32:8-p7:20:32:32:32:8-p8:20:32:32:32:8-p9:1:32:32:32:32-p10:1:32:32:32:32-p11:1:32:32:32:32-p12:1:32:32:32:32-p13:1:32:32:32:32-p14:1:32:32:32:32-p15:1:32:32:32:32-p16:1:32:32:32:32-p17:1:32:32:32:32-p18:1:32:32:32:32-p19:1:32:32:32:32-p20:1:32:32:32:32-p21:1:32:32:32:32-p22:1:32:32:32:32-p23:1:32:32:32:32-p24:1:32:32:32:32"
target triple = "pdarch-unknown-unknown-elf"

%class.anon = type { i8 }
%"struct.aie::detail::utils::unroll_context" = type { i8 }
%struct.input_stream.0 = type { %union.anon.1 }
%union.anon.1 = type { i32 }
%struct.output_stream.2 = type { %union.anon.3 }
%union.anon.3 = type { i32 }
%struct.ipd.custom_type.uint2_t.uint2_t.4 = type { i8 }
%"class.aie::detail::vector" = type { %struct.v4int32 }
%struct.v4int32 = type { %struct.ipd.custom_type.v16int8.v16int8 }
%struct.ipd.custom_type.v16int8.v16int8 = type { i128 }
%"class.aie::detail::vector_elem_ref" = type { %"class.aie::detail::vector"*, i32 }
%class.Cluster = type { i32, i32, i32, i32, i32 }
%class.Point = type { i32, i32, i32 }
%"class.aie::detail::vector.1" = type { %struct.v8int32 }
%struct.v8int32 = type { %struct.ipd.custom_type.v32int8.v32int8 }
%struct.ipd.custom_type.v32int8.v32int8 = type { i256 }
%"class.aie::detail::accum" = type { %struct.v8acc80 }
%struct.v8acc80 = type { %struct.ipd.custom_type.v16acc48.v16acc48 }
%struct.ipd.custom_type.v16acc48.v16acc48 = type { i768 }
%"class.aie::detail::vector_elem_ref.2" = type { %"class.aie::detail::vector.1"*, i32 }
%"class.aie::detail::vector.3" = type { %struct.v16int32 }
%struct.v16int32 = type { %struct.ipd.custom_type.v64int8.v64int8 }
%struct.ipd.custom_type.v64int8.v64int8 = type { i512 }
%"class.aie::detail::vector_elem_ref.4" = type { %"class.aie::detail::vector.3"*, i32 }
%struct.v8int16 = type { %struct.ipd.custom_type.v16int8.v16int8 }
%struct.ipd.custom_type.uint1_t.uint1_t = type { i8 }
%"class.aie::detail::vector.12" = type { %struct.v8cint32 }
%struct.v8cint32 = type { %struct.ipd.custom_type.v64int8.v64int8 }
%struct.v2cint32 = type { %struct.ipd.custom_type.v16int8.v16int8 }
%"class.aie::detail::vector.13" = type { %struct.v4cint32 }
%struct.v4cint32 = type { %struct.ipd.custom_type.v32int8.v32int8 }
%struct.v32int32 = type { %struct.ipd.custom_type.v128int8.v128int8 }
%struct.ipd.custom_type.v128int8.v128int8 = type { i1024 }
%struct.ipd.custom_type.uint3_t.uint3_t = type { i8 }
%"struct.me_primitive::chessout_v8int32_dssrs_v8acc80___uchar_uint1_t_uint1_t_uint1_t_uint3_t_uint1_t" = type <{ %struct.v8int32, %struct.ipd.custom_type.uint1_t.uint1_t }>
%"struct.aie::unary_op" = type { %"struct.aie::unary_op_common" }
%"struct.aie::unary_op_common" = type { %"class.aie::detail::vector.1" }
%class.anon.6 = type { %"class.aie::detail::vector.1"*, %"class.aie::detail::vector.1"*, %class.anon*, %"class.aie::detail::accum"* }
%"class.aie::detail::vector_elem_const_ref" = type { %"class.aie::detail::vector.3"*, i32 }
%class.anon.14 = type { %"class.aie::detail::accum"*, i32*, %"class.aie::detail::accum"* }
%"struct.me_primitive::chessout_v8acc80_ups_w2b_sw_v8int32___uchar_uint1_t_uint2_t_uint1_t_uint1_t" = type <{ %struct.v8acc80, %struct.ipd.custom_type.uint1_t.uint1_t }>
%"class.aie::detail::vector.7" = type { %struct.v8int16 }
%"struct.me_primitive::chessout_v4int32_stream_read128___PWSS_rsrc1__sint_uint1_t___sint" = type <{ %struct.v4int32, i32 }>
%"struct.me_primitive::chessout_v4int32_stream_read128___PWSS_rsrc2__sint_uint1_t___sint" = type <{ %struct.v4int32, i32 }>
%"struct.me_primitive::chessout_v4int32_stream_read128___PWSSMEM__sint_uint1_t___sint" = type <{ %struct.v4int32, i32 }>
%struct.output_stream.10 = type { %union.anon.1 }

$_ZN12input_streamIiEC2Ej = comdat any

$_ZN13output_streamIiEC2Ej = comdat any

$_Z4donev = comdat any

$_ZN12me_primitive5eventE7uint2_t = comdat any

$_ZN7uint2_tC2Ei = comdat any

$_ZN3aie5zerosIiLj4EEENS_6detail6vectorIT_XT0_EEEv = comdat any

$_ZN3aie6detail6vectorIiLj4EEixEj = comdat any

$_ZNK3aie6detail15vector_elem_refIiLj4EEcviEv = comdat any

$_ZN7ClusterC2Ev = comdat any

$_ZN5PointC2Ev = comdat any

$_ZN5PointC2Eii = comdat any

$_ZN7ClusterC2Eii = comdat any

$_ZN3aie5zerosIiLj8EEENS_6detail6vectorIT_XT0_EEEv = comdat any

$_ZN5Point10setClusterEi = comdat any

$_ZN7Cluster8addPointE5Point = comdat any

$_ZN7Cluster17updateCoordinatesEv = comdat any

$_ZN7Cluster4getXEv = comdat any

$_ZN3aie6detail6vectorIiLj8EEixEj = comdat any

$_ZN3aie6detail15vector_elem_refIiLj8EEaSERKi = comdat any

$_ZN7Cluster4getYEv = comdat any

$_ZN3aie5zerosIiLj16EEENS_6detail6vectorIT_XT0_EEEv = comdat any

$_ZN3aie6detail6vectorIiLj16EEixEj = comdat any

$_ZN3aie6detail15vector_elem_refIiLj16EEaSERKi = comdat any

$_ZN3aie6detail15vector_elem_refIiLj4EEaSERKi = comdat any

$_ZNK3aie6detail6vectorIiLj4EE7extractILj4EEENS1_IiXT_EEEj = comdat any

$_ZNK3aie6detail6vectorIiLj4EEcv7v4int32Ev = comdat any

$_Z10as_v8int167v4int32 = comdat any

$_Z7put_wmsi7v8int16i = comdat any

$_Z10as_v4int327v8int16 = comdat any

$_Z7put_wmsi7v4int32i = comdat any

$_ZN7uint1_tC2Ei = comdat any

$_ZN12me_primitive15stream_write128EPU4AS23U16__protect_accessi7v4int327uint1_tS3_ = comdat any

$_ZN12me_primitive15stream_write128EPU4AS24U16__protect_accessi7v4int327uint1_tS3_ = comdat any

$_ZN12me_primitive15stream_write128EPU4AS12U16__protect_accessi7v4int327uint1_tS3_ = comdat any

$_ZN7v4int32C2E17chessllvmInternal7v16int8 = comdat any

$_ZN7v8int16C2E17chessllvmInternal7v16int8 = comdat any

$_ZNK3aie6detail6vectorIiLj4EE9to_nativeEv = comdat any

$_ZN3aie6detail6vectorIiLj4EE3setEij = comdat any

$_Z8upd_elem7v4int32ji = comdat any

$_ZNK3aie6detail6vectorIiLj16EE7extractILj4EEENS1_IiXT_EEEj = comdat any

$_ZN3aie6detail6vectorIiLj4EEC2Ev = comdat any

$_Z5ext_v8v16int32i = comdat any

$_ZNK3aie6detail6vectorIiLj16EE7cast_toI6cint32EEDav = comdat any

$_ZNK3aie6detail6vectorI6cint32Lj8EE4growILj8EEENS1_IS2_XT_EEEj = comdat any

$_ZNK3aie6detail6vectorI6cint32Lj8EEcv8v8cint32Ev = comdat any

$_Z8shuffle88v8cint32ij = comdat any

$_ZN3aie6detail6vectorI6cint32Lj8EEC2E8v8cint32 = comdat any

$_Z5ext_v8v8cint32i = comdat any

$_ZN3aie6detail6vectorIiLj4EEC2E7v4int32 = comdat any

$_Z10as_v4int328v2cint32 = comdat any

$_ZNK3aie6detail6vectorI6cint32Lj8EE9to_nativeEv = comdat any

$_ZN3aie6detail6vectorI6cint32Lj8EEC2Ev = comdat any

$_ZN3aie6detail14vector_storageI6cint32Lj8EE5undefEv = comdat any

$_Z14undef_v8cint32v = comdat any

$_Z11as_v8cint328v16int32 = comdat any

$_ZN8v8cint32C2E17chessllvmInternal7v64int8 = comdat any

$_ZN3aie6detail14vector_storageIiLj4EE5undefEv = comdat any

$_Z13undef_v4int32v = comdat any

$_ZN3aie6detail6vectorIiLj16EE3setEij = comdat any

$_Z8upd_elem8v16int32ji = comdat any

$_ZN3aie6detail6vectorIiLj16EE8elem_refEj = comdat any

$_ZN3aie6detail15vector_elem_refIiLj16EEC2ERNS0_6vectorIiLj16EEEj = comdat any

$_ZN3aie6detail5zerosIiLj16EEENS0_6vectorIT_XT0_EEEv = comdat any

$_ZN3aie6detail6vectorIiLj8EEC2E7v8int32 = comdat any

$_ZN3aie6detail13concat_vectorIJRKNS0_6vectorIiLj8EEES5_EEEDaDpOT_ = comdat any

$_ZN3aie6detail11vector_castIiiLj16EEEDaRKNS0_6vectorIT0_XT1_EEE = comdat any

$_ZNK3aie6detail6vectorIiLj16EE7cast_toIiEEDav = comdat any

$_ZN3aie6detail6vectorIiLj16EEC2Ev = comdat any

$_Z11as_v16int328v16int32 = comdat any

$_ZN3aie6detail14vector_storageIiLj16EE5undefEv = comdat any

$_Z14undef_v16int32v = comdat any

$_ZNSt3__27forwardIRKN3aie6detail6vectorIiLj8EEEEEOT_RNS_16remove_referenceIS7_E4typeE = comdat any

$_ZN3aie6detail20concat_vector_helperIiLj8EE3runIJRKNS0_6vectorIiLj8EEES7_EEEDaDpOT_ = comdat any

$_ZN3aie6detail6vectorIiLj16EE7upd_allIJRKNS1_IiLj8EEES6_EEERS2_DpOT_ = comdat any

$_Z6concat7v8int32S_ = comdat any

$_ZNK3aie6detail6vectorIiLj8EE7extractILj4EEENS1_IiXT_EEEj = comdat any

$_Z5ext_v7v8int32i = comdat any

$_ZNK3aie6detail6vectorIiLj8EE7cast_toI6cint32EEDav = comdat any

$_ZNK3aie6detail6vectorI6cint32Lj4EE4growILj8EEENS1_IS2_XT_EEEj = comdat any

$_Z6xset_wi8v4cint32 = comdat any

$_ZN3aie6detail6vectorI6cint32Lj4EEC2Ev = comdat any

$_Z11as_v4cint327v8int32 = comdat any

$_ZN8v4cint32C2E17chessllvmInternal7v32int8 = comdat any

$_ZN3aie6detail14vector_storageI6cint32Lj4EE5undefEv = comdat any

$_Z14undef_v4cint32v = comdat any

$_ZN3aie6detail6vectorIiLj8EE3setEij = comdat any

$_Z8upd_elem7v8int32ji = comdat any

$_ZN3aie6detail6vectorIiLj8EE8elem_refEj = comdat any

$_ZN3aie6detail15vector_elem_refIiLj8EEC2ERNS0_6vectorIiLj8EEEj = comdat any

$_ZN5Point4getXEv = comdat any

$_ZN5Point4getYEv = comdat any

$_ZN3aie10reduce_minINS_6detail6vectorIiLj8EEEEENT_10value_typeERKS4_ = comdat any

$_ZNK3aie6detail15vector_elem_refIiLj8EEeqIiEEbT_ = comdat any

$_ZNK3aie6detail15vector_elem_refIiLj8EEcviEv = comdat any

$_ZNK3aie6detail15vector_elem_refIiLj8EE3getEv = comdat any

$_ZNK3aie6detail6vectorIiLj8EE3getEj = comdat any

$_Z8ext_elem7v8int32j = comdat any

$_ZN3aie6detail19max_min_reduce_bitsILj32EiLj8ELNS0_15MaxMinOperationE1EE3runERKNS0_6vectorIiLj8EEE = comdat any

$_ZN3aie6detail24max_min_bits_reduce_implILj32EiLj8ELNS0_15MaxMinOperationE1EE3runERKNS0_6vectorIiLj8EEE = comdat any

$_ZNK3aie6detail6vectorIiLj8EE4growILj16EEENS1_IiXT_EEEj = comdat any

$_ZZN3aie6detail24max_min_bits_reduce_implILj32EiLj8ELNS0_15MaxMinOperationE1EE6get_opEvENKUlDpOT_E_clIJNS0_6vectorIiLj16EEEiiiiiiEEEDaS6_ = comdat any

$_ZN3aie6detail6vectorIiLj16EEC2E8v16int32 = comdat any

$_ZZN3aie6detail24max_min_bits_reduce_implILj32EiLj8ELNS0_15MaxMinOperationE1EE6get_opEvENKUlDpOT_E_clIJRNS0_6vectorIiLj16EEEiiiiiiEEEDaS6_ = comdat any

$_ZNK3aie6detail15vector_elem_refIiLj16EEcviEv = comdat any

$_ZNK3aie6detail15vector_elem_refIiLj16EE3getEv = comdat any

$_ZNK3aie6detail6vectorIiLj16EE3getEj = comdat any

$_Z8ext_elem8v16int32j = comdat any

$_ZNK3aie6detail6vectorIiLj16EEcv8v16int32Ev = comdat any

$_Z5min168v16int32ijjijj = comdat any

$_ZNK3aie6detail6vectorIiLj16EE9to_nativeEv = comdat any

$_Z6xset_wi7v8int32 = comdat any

$_ZN3aie5zerosI5acc64Lj8EEENS_6detail5accumIXsr6detailE21accum_class_for_tag_vIT_EEXsr6detailE20accum_bits_for_tag_vIS4_EEXT0_EEEv = comdat any

$_ZN3aie3subINS_6detail6vectorIiLj8EEEiEEN22aie_dm_resource_removeIT_E4typeERKS5_T0_ = comdat any

$_ZN3aie3mulINS_6detail6vectorIiLj8EEES3_EEDaRKT_RKT0_ = comdat any

$_ZNK3aie6detail5accumILNS0_10AccumClassE0ELj64ELj8EE9to_vectorIiEENS0_6vectorIT_Lj8EEEi = comdat any

$_ZN3aie3addINS_6detail6vectorIiLj8EEES3_EEN22aie_dm_resource_removeIT_E4typeERKS5_RKT0_ = comdat any

$_ZN3aie6detail12add_sub_bitsILj32EiLj8ELNS0_15AddSubOperationE0EE3runERKNS0_6vectorIiLj8EEES7_ = comdat any

$_ZN3aie6detail17add_sub_bits_implILj32EiLj8ELNS0_15AddSubOperationE0EE3runERKNS0_6vectorIiLj8EEES7_ = comdat any

$_ZN3aie6detail5utils14is_same_objectINS0_6vectorIiLj8EEES4_EEbRKT_RKT0_ = comdat any

$_ZZN3aie6detail17add_sub_bits_implILj32EiLj8ELNS0_15AddSubOperationE0EE6get_opEvENKUlDpOT_E_clIJNS0_6vectorIiLj16EEEiijiijEEEDaS6_ = comdat any

$_ZZN3aie6detail17add_sub_bits_implILj32EiLj8ELNS0_15AddSubOperationE0EE6get_opEvENKUlDpOT_E_clIJNS0_6vectorIiLj16EEESA_EEEDaS6_ = comdat any

$_ZNK3aie6detail6vectorIiLj16EE7extractILj8EEENS1_IiXT_EEEj = comdat any

$_ZN3aie6detail6vectorIiLj8EEC2Ev = comdat any

$_Z5ext_w8v16int32i = comdat any

$_Z5ext_w8v8cint32i = comdat any

$_Z10as_v8int328v4cint32 = comdat any

$_ZN7v8int32C2E17chessllvmInternal7v32int8 = comdat any

$_ZN3aie6detail14vector_storageIiLj8EE5undefEv = comdat any

$_Z13undef_v8int32v = comdat any

$_Z5add168v16int32S_ = comdat any

$_Z6concat8v16int32S_ = comdat any

$_Z5add168v32int32ijjijj = comdat any

$_Z5add168v16int32ijjijj = comdat any

$_ZZN3aie6detail5accumILNS0_10AccumClassE0ELj64ELj8EE7get_srsIiEEDavENKUlRKT_iE_clI7v8acc80EEDaS7_i = comdat any

$_Z3srs7v8acc80i = comdat any

$_ZN12me_primitive8shft_nrmEi = comdat any

$_Z12get_sat_implv = comdat any

$_Z16get_sym_sat_implv = comdat any

$_Z12get_rnd_implv = comdat any

$_ZN12me_primitive5dssrsI7uint1_tEEN13chessEnableIfIXsr17chessIsCompatibleIN15chessRemoveQualIT_E4typeES1_EE5valueE7v8int32E4typeE7v8acc80hS1_S1_S1_7uint3_tRS4_ = comdat any

$_Z16set_srs_sat_impl7uint1_t = comdat any

$_Z20chess_dont_warn_deadI7uint1_tERKT_S3_ = comdat any

$_ZN3aie3mulI5acc64NS_6detail6vectorIiLj8EEES4_EENS2_5accumIXsr6detailE21accum_class_for_tag_vIT_EEXsr6detailE20accum_bits_for_tag_vIS6_EEXclsrT0_4sizeEEEERKS7_RKT1_ = comdat any

$_ZN3aie7op_noneINS_6detail6vectorIiLj8EEEEENS_8unary_opIT_LNS_9OperationE0EEERKS5_ = comdat any

$_ZN3aie3mulI5acc64NS_8unary_opINS_6detail6vectorIiLj8EEELNS_9OperationE0EEES5_EENS3_5accumIXsr6detailE21accum_class_for_tag_vIT_EEXsr6detailE20accum_bits_for_tag_vIS9_EEXclsrT0_4sizeEEEERKSA_RKT1_ = comdat any

$_ZN3aie3mulI5acc64NS_8unary_opINS_6detail6vectorIiLj8EEELNS_9OperationE0EEES7_EENS3_5accumIXsr6detailE21accum_class_for_tag_vIT_EEXsr6detailE20accum_bits_for_tag_vIS9_EEXclsrT0_4sizeEEEERKSA_RKT1_ = comdat any

$_ZNK3aie15unary_op_commonINS_6detail6vectorIiLj8EEELNS_9OperationE0EE7parent1Ev = comdat any

$_ZN3aie6detail12get_mul_signINS_8unary_opINS0_6vectorIiLj8EEELNS_9OperationE0EEEEEbT_ = comdat any

$_ZN3aie6detail8mul_bitsILNS0_10MulMacroOpE0ELj80ELj32EiLj32EiE3runILj8EJEEEDaRKNS0_6vectorIiXT_EEEbS8_bDpRKT0_ = comdat any

$_ZN3aie6detail5accumILNS0_10AccumClassE0ELj64ELj8EEC2ILj80EEERKNS1_ILS2_0EXT_ELj8EEE = comdat any

$_ZN3aie6detail13mul_bits_implILNS0_10MulMacroOpE0ELj80ELj32EiLj32EiE3runILj8EJEEENS0_5accumILNS0_10AccumClassE0ELj80EXT_EEERKNS0_6vectorIiXT_EEEbSB_bDpRKT0_ = comdat any

$_ZN3aie6detail5accumILNS0_10AccumClassE0ELj80ELj8EEC2Ev = comdat any

$_ZN3aie6detail5utils12unroll_timesILj1EZNS0_13mul_bits_implILNS0_10MulMacroOpE0ELj80ELj32EiLj32EiE3runILj8EJEEENS0_5accumILNS0_10AccumClassE0ELj80EXT_EEERKNS0_6vectorIiXT_EEEbSD_bDpRKT0_EUlT_E_EEvOT0_ = comdat any

$_ZNSt3__27forwardIZN3aie6detail13mul_bits_implILNS2_10MulMacroOpE0ELj80ELj32EiLj32EiE3runILj8EJEEENS2_5accumILNS2_10AccumClassE0ELj80EXT_EEERKNS2_6vectorIiXT_EEEbSD_bDpRKT0_EUlT_E_EEOSI_RNS_16remove_referenceISI_E4typeE = comdat any

$_ZN3aie6detail5utils10unroll_forIjLj0ELj1ELj1EZNS0_13mul_bits_implILNS0_10MulMacroOpE0ELj80ELj32EiLj32EiE3runILj8EJEEENS0_5accumILNS0_10AccumClassE0ELj80EXT_EEERKNS0_6vectorIiXT_EEEbSD_bDpRKT0_EUlT_E_EEvOT3_ = comdat any

$_ZN3aie6detail5utils17unroll_for_helperIjLj0ELj1ELj0ELj1EE7executeIZNS0_13mul_bits_implILNS0_10MulMacroOpE0ELj80ELj32EiLj32EiE3runILj8EJEEENS0_5accumILNS0_10AccumClassE0ELj80EXT_EEERKNS0_6vectorIiXT_EEEbSF_bDpRKT0_EUlT_E_EEvOSK_ = comdat any

$_ZZN3aie6detail13mul_bits_implILNS0_10MulMacroOpE0ELj80ELj32EiLj32EiE3runILj8EJEEENS0_5accumILNS0_10AccumClassE0ELj80EXT_EEERKNS0_6vectorIiXT_EEEbSB_bDpRKT0_ENKUlT_E_clINS0_5utils14unroll_contextIjLj0ELj1ELj0EEEEEDaSG_ = comdat any

$_ZN3aie6detail5utils17unroll_for_helperIjLj0ELj1ELj1ELj1EE7executeIZNS0_13mul_bits_implILNS0_10MulMacroOpE0ELj80ELj32EiLj32EiE3runILj8EJEEENS0_5accumILNS0_10AccumClassE0ELj80EXT_EEERKNS0_6vectorIiXT_EEEbSF_bDpRKT0_EUlT_E_EEvOSK_ = comdat any

$_ZNK3aie6detail5utils14unroll_contextIjLj0ELj1ELj0EEcvjEv = comdat any

$_ZNK3aie6detail6vectorIiLj8EE12grow_extractILj16EEENS1_IiXT_EEEj = comdat any

$_ZN3aie6detail5accumILNS0_10AccumClassE0ELj80ELj8EEC2E7v8acc80 = comdat any

$_ZNK3aie6detail5accumILNS0_10AccumClassE0ELj80ELj8EE7extractILj8EEENS1_ILS2_0ELj80EXT_EEEj = comdat any

$_ZN3aie6detail5accumILNS0_10AccumClassE0ELj80ELj8EE6insertILj8ELj80EEERS3_jRKNS1_ILS2_0EXT0_EXT_EEE = comdat any

$_ZNK3aie6detail6vectorIiLj8EE12grow_extractILj8EEENS1_IiXT_EEEj = comdat any

$_ZNK3aie6detail6vectorIiLj8EEcv7v8int32Ev = comdat any

$_Z5lmul88v16int32ij7v8int32jj = comdat any

$_ZNK3aie6detail6vectorIiLj8EE9to_nativeEv = comdat any

$_ZNK3aie6detail6vectorIiLj8EE7extractILj8EEENS1_IiXT_EEEj = comdat any

$_Z5lmul88v16int32ijij = comdat any

$_ZNK3aie6detail5utils14unroll_contextIjLj0ELj1ELj0EE7currentEv = comdat any

$_ZN3aie6detail13accum_storageILNS0_10AccumClassE0ELj80ELj8EE5undefEv = comdat any

$_Z13undef_v8acc80v = comdat any

$_ZN3aie8unary_opINS_6detail6vectorIiLj8EEELNS_9OperationE0EECI2NS_15unary_op_commonIS3_LS4_0EEEES3_ = comdat any

$_ZN3aie15unary_op_commonINS_6detail6vectorIiLj8EEELNS_9OperationE0EEC2ES3_ = comdat any

$_ZN3aie6detail12add_sub_bitsILj32EiLj8ELNS0_15AddSubOperationE1EE3runERKNS0_6vectorIiLj8EEERKi = comdat any

$_ZN3aie6detail17add_sub_bits_implILj32EiLj8ELNS0_15AddSubOperationE1EE3runERKNS0_6vectorIiLj8EEERKi = comdat any

$_ZN3aie6detail6vectorIiLj16EEC2IJEEEiDpOT_ = comdat any

$_ZNK3aie6detail6vectorIiLj16EE14elem_const_refEj = comdat any

$_ZN3aie6detail17add_sub_bits_implILj32EiLj8ELNS0_15AddSubOperationE1EE3runILj16EEENS0_6vectorIiLj8EEERKS6_NS0_21vector_elem_const_refIiXT_EEE = comdat any

$_ZN3aie6detail5utils14is_same_objectINS0_6vectorIiLj16EEENS3_IiLj8EEEEEbRKT_RKT0_ = comdat any

$_ZZN3aie6detail17add_sub_bits_implILj32EiLj8ELNS0_15AddSubOperationE1EE6get_opEvENKUlDpOT_E_clIJNS0_6vectorIiLj16EEEiijRjiiEEEDaS6_ = comdat any

$_ZNK3aie6detail6vectorIiLj16EE4growILj16EEENS1_IiXT_EEEj = comdat any

$_ZZN3aie6detail17add_sub_bits_implILj32EiLj8ELNS0_15AddSubOperationE1EE6get_opEvENKUlDpOT_E_clIJNS0_6vectorIiLj16EEEiijSA_RjiiEEEDaS6_ = comdat any

$_Z5sub168v16int32ijjS_ijj = comdat any

$_Z5sub168v16int32ijjijj = comdat any

$_ZN3aie6detail21vector_elem_const_refIiLj16EEC2ERKNS0_6vectorIiLj16EEEj = comdat any

$_ZN3aie6detail6vectorIiLj16EE23init_from_values_simpleI8v16int32JEiEEvRT_RKiDpOT0_ = comdat any

$_Z9shft_elem8v16int32i = comdat any

$_ZN3aie6detail5zerosILNS0_10AccumClassE0ELj64ELj8EEENS0_5accumIXT_EXT0_EXT1_EEEv = comdat any

$_ZN3aie6detail5accumILNS0_10AccumClassE0ELj64ELj8EEC2Ev = comdat any

$_ZN3aie6detail5zerosIiLj8EEENS0_6vectorIT_XT0_EEEv = comdat any

$_ZN3aie6detail5accumILNS0_10AccumClassE0ELj64ELj8EE11from_vectorIiEEvRKNS0_6vectorIT_Lj8EEEi = comdat any

$_ZN3aie6detail5utils10unroll_forIjLj0ELj1ELj1EZNS0_5zerosILNS0_10AccumClassE0ELj64ELj8EEENS0_5accumIXT_EXT0_EXT1_EEEvEUlT_E_EEvOT3_ = comdat any

$_ZNSt3__27forwardIZN3aie6detail5zerosILNS2_10AccumClassE0ELj64ELj8EEENS2_5accumIXT_EXT0_EXT1_EEEvEUlT_E_EEOS7_RNS_16remove_referenceIS7_E4typeE = comdat any

$_ZN3aie6detail5utils17unroll_for_helperIjLj0ELj1ELj0ELj1EE7executeIZNS0_5zerosILNS0_10AccumClassE0ELj64ELj8EEENS0_5accumIXT_EXT0_EXT1_EEEvEUlT_E_EEvOS9_ = comdat any

$_ZZN3aie6detail5zerosILNS0_10AccumClassE0ELj64ELj8EEENS0_5accumIXT_EXT0_EXT1_EEEvENKUlT_E_clINS0_5utils14unroll_contextIjLj0ELj1ELj0EEEEEDaS5_ = comdat any

$_ZN3aie6detail5utils17unroll_for_helperIjLj0ELj1ELj1ELj1EE7executeIZNS0_5zerosILNS0_10AccumClassE0ELj64ELj8EEENS0_5accumIXT_EXT0_EXT1_EEEvEUlT_E_EEvOS9_ = comdat any

$_ZN3aie6detail5accumILNS0_10AccumClassE0ELj64ELj8EE6insertILj8ELj64EEERS3_jRKNS1_ILS2_0EXT0_EXT_EEE = comdat any

$_ZZN3aie6detail5accumILNS0_10AccumClassE0ELj64ELj8EE7get_upsIiLj8EEEDavENKUlRKT_iE_clINS0_6vectorIiLj8EEEEEDaS7_i = comdat any

$_Z4lups7v8int32i = comdat any

$_ZN12me_primitive10ups_w2b_swI7uint1_tEEN13chessEnableIfIXsr17chessIsCompatibleIN15chessRemoveQualIT_E4typeES1_EE5valueE7v8acc80E4typeE7v8int32hS1_7uint2_tS1_RS4_ = comdat any

$_Z16set_ups_sat_impl7uint1_t = comdat any

$_ZN3aie6detail11vector_castIiiLj8EEEDaRKNS0_6vectorIT0_XT1_EEE = comdat any

$_ZNK3aie6detail6vectorIiLj8EE7cast_toIiEEDav = comdat any

$_Z10as_v8int327v8int32 = comdat any

$_ZNK3aie6detail15vector_elem_refIiLj4EE3getEv = comdat any

$_ZNK3aie6detail6vectorIiLj4EE3getEj = comdat any

$_Z8ext_elem7v4int32j = comdat any

$_ZN3aie6detail6vectorIiLj4EE8elem_refEj = comdat any

$_ZN3aie6detail15vector_elem_refIiLj4EEC2ERNS0_6vectorIiLj4EEEj = comdat any

$_ZN3aie6detail6vectorIsLj8EEC2E7v8int16 = comdat any

$_ZN3aie11vector_castIiNS_6detail6vectorIsLj8EEEEEDaRKT0_ = comdat any

$_ZN3aie6detail6vectorIiLj4EE6insertILj4EEERS2_jRKNS1_IiXT_EEE = comdat any

$_ZN3aie6detail11vector_castIisLj8EEEDaRKNS0_6vectorIT0_XT1_EEE = comdat any

$_ZNK3aie6detail6vectorIsLj8EE7cast_toIiEEDav = comdat any

$_Z7get_wssi = comdat any

$_Z8getl_wssi = comdat any

$_ZN12me_primitive14stream_read128IiEEN13chessEnableIfIXsr17chessIsCompatibleIN15chessRemoveQualIT_E4typeEiEE5valueE7v4int32E4typeEPU4AS19U16__protect_accessi7uint1_tRS3_ = comdat any

$_ZN12me_primitive14stream_read128IiEEN13chessEnableIfIXsr17chessIsCompatibleIN15chessRemoveQualIT_E4typeEiEE5valueE7v4int32E4typeEPU4AS20U16__protect_accessi7uint1_tRS3_ = comdat any

$_ZN12me_primitive14stream_read128IiEEN13chessEnableIfIXsr17chessIsCompatibleIN15chessRemoveQualIT_E4typeEiEE5valueE7v4int32E4typeEPU4AS11U16__protect_accessi7uint1_tRS3_ = comdat any

$_ZN3aie6detail5zerosIiLj4EEENS0_6vectorIT_XT0_EEEv = comdat any

$_ZN3aie6detail11vector_castIiiLj4EEEDaRKNS0_6vectorIT0_XT1_EEE = comdat any

$_ZNK3aie6detail6vectorIiLj4EE7cast_toIiEEDav = comdat any

$_Z10as_v4int327v4int32 = comdat any

@_ZL11sync_buffer = internal global [8 x i32] [i32 0, i32 -1, i32 0, i32 0, i32 0, i32 0, i32 0, i32 0], align 16, !dbg !0
@__chess_separator_idummy = external dso_local global i32, align 4
@_ZN12me_primitive3ms0E = external dso_local addrspace(23) global i32, align 1 #0
@_ZN12me_primitive3ms1E = external dso_local addrspace(24) global i32, align 1 #1
@ZERO = external dso_local constant [8 x i32], align 32
@__const._ZN3aie6detail24max_min_bits_reduce_implILj32EiLj8ELNS0_15MaxMinOperationE1EE3runERKNS0_6vectorIiLj8EEE.op = private unnamed_addr constant %class.anon undef, align 1
@__const._ZN3aie6detail17add_sub_bits_implILj32EiLj8ELNS0_15AddSubOperationE0EE3runERKNS0_6vectorIiLj8EEES7_.op = private unnamed_addr constant %class.anon undef, align 1
@__const._ZNK3aie6detail5accumILNS0_10AccumClassE0ELj64ELj8EE9to_vectorIiEENS0_6vectorIT_Lj8EEEi.fn = private unnamed_addr constant %class.anon undef, align 1
@__const._ZN3aie6detail13mul_bits_implILNS0_10MulMacroOpE0ELj80ELj32EiLj32EiE3runILj8EJEEENS0_5accumILNS0_10AccumClassE0ELj80EXT_EEERKNS0_6vectorIiXT_EEEbSB_bDpRKT0_.mul_op = private unnamed_addr constant %class.anon undef, align 1
@__const._ZN3aie6detail5utils17unroll_for_helperIjLj0ELj1ELj0ELj1EE7executeIZNS0_13mul_bits_implILNS0_10MulMacroOpE0ELj80ELj32EiLj32EiE3runILj8EJEEENS0_5accumILNS0_10AccumClassE0ELj80EXT_EEERKNS0_6vectorIiXT_EEEbSF_bDpRKT0_EUlT_E_EEvOSK_.ctx = private unnamed_addr constant %"struct.aie::detail::utils::unroll_context" undef, align 1
@__const._ZN3aie6detail17add_sub_bits_implILj32EiLj8ELNS0_15AddSubOperationE1EE3runILj16EEENS0_6vectorIiLj8EEERKS6_NS0_21vector_elem_const_refIiXT_EEE.op = private unnamed_addr constant %class.anon undef, align 1
@__const._ZN3aie6detail5utils17unroll_for_helperIjLj0ELj1ELj0ELj1EE7executeIZNS0_5zerosILNS0_10AccumClassE0ELj64ELj8EEENS0_5accumIXT_EXT0_EXT1_EEEvEUlT_E_EEvOS9_.ctx = private unnamed_addr constant %"struct.aie::detail::utils::unroll_context" undef, align 1
@__const._ZN3aie6detail5accumILNS0_10AccumClassE0ELj64ELj8EE11from_vectorIiEEvRKNS0_6vectorIT_Lj8EEEi.fn = private unnamed_addr constant %class.anon undef, align 1
@_ZN12me_primitive3ss0E = external dso_local addrspace(19) global i32, align 1 #0
@_ZN12me_primitive5wsst0E = external dso_local addrspace(14) global i32, align 1 #0
@_ZN12me_primitive3ss1E = external dso_local addrspace(20) global i32, align 1 #1
@_ZN12me_primitive5wsst1E = external dso_local addrspace(14) global i32, align 1 #1

; Function Attrs: norecurse nounwind
define dso_local i32 @main() addrspace(1) #2 !dbg !1318 {
entry:
  store volatile i32 0, i32* getelementptr inbounds ([8 x i32], [8 x i32]* @_ZL11sync_buffer, i32 0, i32 0), align 4, !dbg !1327, !tbaa !1328, !noalias !1332
  call addrspace(1) void @llvm.dbg.declare(metadata %struct.input_stream.0* undef, metadata !1320, metadata !DIExpression()), !dbg !1336
  call addrspace(1) void @llvm.dbg.declare(metadata %struct.output_stream.2* undef, metadata !1321, metadata !DIExpression()), !dbg !1337
  call addrspace(1) void @llvm.dbg.value(metadata i32 undef, metadata !1322, metadata !DIExpression()), !dbg !1338
  call addrspace(1) void @llvm.dbg.value(metadata i32 1, metadata !1322, metadata !DIExpression()), !dbg !1338
  br label %while.cond, !dbg !1339

while.cond:                                       ; preds = %while.end, %entry
  %index.0 = phi i32 [ 1, %entry ], [ %index.1.lcssa, %while.end ], !dbg !1340
  call addrspace(1) void @llvm.dbg.value(metadata i32 %index.0, metadata !1322, metadata !DIExpression()), !dbg !1338
  call addrspace(1) void @llvm.dbg.value(metadata i32 undef, metadata !1325, metadata !DIExpression()), !dbg !1341
  %0 = load volatile i32, i32* getelementptr inbounds ([8 x i32], [8 x i32]* @_ZL11sync_buffer, i32 0, i32 1), align 4, !dbg !1342, !tbaa !1328, !noalias !1332
  call addrspace(1) void @llvm.dbg.value(metadata i32 %0, metadata !1325, metadata !DIExpression()), !dbg !1341
  call addrspace(1) void @llvm.dbg.value(metadata i32 %index.0, metadata !1322, metadata !DIExpression()), !dbg !1338
  %tobool1 = icmp ne i32 %0, 0, !dbg !1343
  br i1 %tobool1, label %while.body2.preheader, label %while.end, !dbg !1344

while.body2.preheader:                            ; preds = %while.cond
  br label %while.body2, !dbg !1344

while.body2:                                      ; preds = %while.body2.preheader, %while.body2
  %index.13 = phi i32 [ %sub, %while.body2 ], [ %index.0, %while.body2.preheader ]
  %proc_24_0_bounds.02 = phi i32 [ %spec.select, %while.body2 ], [ %0, %while.body2.preheader ]
  call addrspace(1) void @llvm.dbg.value(metadata i32 %index.13, metadata !1322, metadata !DIExpression()), !dbg !1338
  call addrspace(1) void @llvm.dbg.value(metadata i32 %proc_24_0_bounds.02, metadata !1325, metadata !DIExpression()), !dbg !1341
  call addrspace(1) void @_Z15kmeans_functionP12input_streamIiEP13output_streamIiE(i32 undef, i32 undef) #27, !dbg !1345, !noalias !1332
  %sub = sub nsw i32 1, %index.13, !dbg !1347
  call addrspace(1) void @llvm.dbg.value(metadata i32 %sub, metadata !1322, metadata !DIExpression()), !dbg !1338
  call addrspace(1) void @llvm.chess_memory_fence(), !dbg !1348, !noalias !1332
  %cmp = icmp sgt i32 %proc_24_0_bounds.02, 0, !dbg !1349
  %dec = add nsw i32 %proc_24_0_bounds.02, -1
  %spec.select = select i1 %cmp, i32 %dec, i32 %proc_24_0_bounds.02, !dbg !1351
  call addrspace(1) void @llvm.dbg.value(metadata i32 %spec.select, metadata !1325, metadata !DIExpression()), !dbg !1341
  %tobool = icmp ne i32 %spec.select, 0, !dbg !1343
  br i1 %tobool, label %while.body2, label %while.end.loopexit, !dbg !1344, !llvm.loop !1352

while.end.loopexit:                               ; preds = %while.body2
  %sub.lcssa = phi i32 [ %sub, %while.body2 ], !dbg !1347
  br label %while.end, !dbg !1355

while.end:                                        ; preds = %while.end.loopexit, %while.cond
  %index.1.lcssa = phi i32 [ %index.0, %while.cond ], [ %sub.lcssa, %while.end.loopexit ], !dbg !1338
  call addrspace(1) void @_Z4donev() #28, !dbg !1355, !noalias !1332
  %1 = load volatile i32, i32* getelementptr inbounds ([8 x i32], [8 x i32]* @_ZL11sync_buffer, i32 0, i32 0), align 4, !dbg !1356, !tbaa !1328, !noalias !1332
  %cmp3 = icmp sgt i32 %1, 0, !dbg !1358
  br i1 %cmp3, label %while.end6, label %while.cond, !llvm.loop !1359

while.end6:                                       ; preds = %while.end
  ret i32 0, !dbg !1361
}

; Function Attrs: argmemonly nofree nosync nounwind willreturn
declare void @llvm.lifetime.start.p0i8(i64 immarg, i8* nocapture) addrspace(1) #3

; Function Attrs: nofree nosync nounwind readnone speculatable willreturn
declare void @llvm.dbg.declare(metadata, metadata, metadata) addrspace(1) #4

; Function Attrs: inaccessiblememonly nounwind willreturn
declare i8* @llvm.noalias.decl.p0i8.p0s_struct.input_stream.0s.i32(%struct.input_stream.0*, i32, metadata) addrspace(1) #5

; Function Attrs: nounwind
define linkonce_odr dso_local void @_ZN12input_streamIiEC2Ej(%struct.input_stream.0* nonnull dereferenceable(4) %this, i32 %ch) unnamed_addr addrspace(1) #6 comdat align 2 !dbg !1362 {
entry:
  call addrspace(1) void @llvm.dbg.value(metadata %struct.input_stream.0* %this, metadata !1364, metadata !DIExpression()), !dbg !1366
  call addrspace(1) void @llvm.dbg.value(metadata i32 %ch, metadata !1365, metadata !DIExpression()), !dbg !1366
  %0 = getelementptr inbounds %struct.input_stream.0, %struct.input_stream.0* %this, i32 0, i32 0, !dbg !1367
  %channel = bitcast %union.anon.1* %0 to i32*, !dbg !1367
  store i32 %ch, i32* %channel, align 4, !dbg !1367, !tbaa !1368
  ret void, !dbg !1367
}

; Function Attrs: inaccessiblememonly nounwind willreturn
declare i8* @llvm.noalias.decl.p0i8.p0s_struct.output_stream.2s.i32(%struct.output_stream.2*, i32, metadata) addrspace(1) #5

; Function Attrs: nounwind
define linkonce_odr dso_local void @_ZN13output_streamIiEC2Ej(%struct.output_stream.2* nonnull dereferenceable(4) %this, i32 %ch) unnamed_addr addrspace(1) #6 comdat align 2 !dbg !1369 {
entry:
  call addrspace(1) void @llvm.dbg.value(metadata %struct.output_stream.2* %this, metadata !1371, metadata !DIExpression()), !dbg !1373
  call addrspace(1) void @llvm.dbg.value(metadata i32 %ch, metadata !1372, metadata !DIExpression()), !dbg !1373
  %0 = getelementptr inbounds %struct.output_stream.2, %struct.output_stream.2* %this, i32 0, i32 0, !dbg !1374
  %channel = bitcast %union.anon.3* %0 to i32*, !dbg !1374
  store i32 %ch, i32* %channel, align 4, !dbg !1374, !tbaa !1368
  ret void, !dbg !1374
}

; Function Attrs: nounwind willreturn
declare void @llvm.chess_memory_fence() addrspace(1) #7

; Function Attrs: alwaysinline nounwind mustprogress
define linkonce_odr dso_local void @_Z4donev() addrspace(1) #8 comdat {
entry:
  %custom_type.tmp = alloca %struct.ipd.custom_type.uint2_t.uint2_t.4, align 4
  call addrspace(1) void @llvm.chess_memory_fence()
  call addrspace(1) void @_ZL25chess_separator_scheduleri(i32 8) #27
  call addrspace(1) void @_ZN7uint2_tC2Ei(%struct.ipd.custom_type.uint2_t.uint2_t.4* nonnull dereferenceable(1) %custom_type.tmp, i32 2) #27
  %0 = load %struct.ipd.custom_type.uint2_t.uint2_t.4, %struct.ipd.custom_type.uint2_t.uint2_t.4* %custom_type.tmp, align 4, !tbaa !1375
  call addrspace(1) void @_ZN12me_primitive5eventE7uint2_t(%struct.ipd.custom_type.uint2_t.uint2_t.4 %0) #29
  call addrspace(1) void @_ZL25chess_separator_scheduleri(i32 5) #27
  call addrspace(1) void @llvm.chess_memory_fence()
  ret void
}

; Function Attrs: argmemonly nofree nosync nounwind willreturn
declare void @llvm.lifetime.end.p0i8(i64 immarg, i8* nocapture) addrspace(1) #3

; Function Attrs: alwaysinline nounwind mustprogress
define internal void @_ZL25chess_separator_scheduleri(i32 %i) addrspace(1) #9 {
entry:
  store volatile i32 %i, i32* @__chess_separator_idummy, align 4, !tbaa !1377
  ret void
}

; Function Attrs: alwaysinline nounwind mustprogress
define linkonce_odr dso_local void @_ZN12me_primitive5eventE7uint2_t(%struct.ipd.custom_type.uint2_t.uint2_t.4 %a0.coerce) addrspace(1) #10 comdat {
entry:
  call x86_regcallcc addrspace(1) void @__regcall3__chessintr_void_event_uint2_t(%struct.ipd.custom_type.uint2_t.uint2_t.4 %a0.coerce) #30
  ret void
}

; Function Attrs: alwaysinline nounwind
define linkonce_odr dso_local void @_ZN7uint2_tC2Ei(%struct.ipd.custom_type.uint2_t.uint2_t.4* nonnull dereferenceable(1) %this, i32 %a) unnamed_addr addrspace(1) #11 comdat align 2 {
entry:
  %0 = bitcast %struct.ipd.custom_type.uint2_t.uint2_t.4* %this to i8*
  %bf.load = load i8, i8* %0, align 4
  %bf.clear = and i8 %bf.load, -4
  store i8 %bf.clear, i8* %0, align 4
  %1 = call addrspace(1) %struct.ipd.custom_type.uint2_t.uint2_t.4 @llvm.chess.init.customint.s_struct.ipd.custom_type.uint2_t.uint2_t.4s.i32.p1f_s_struct.ipd.custom_type.uint2_t.uint2_t.4si32f(%struct.ipd.custom_type.uint2_t.uint2_t.4 undef, i32 %a, i32 2, i32 32, i1 true, i32 0, %struct.ipd.custom_type.uint2_t.uint2_t.4 (i32) addrspace(1)* @__regcall3__chessintr_uint2_t_uint2_t___sint)
  store %struct.ipd.custom_type.uint2_t.uint2_t.4 %1, %struct.ipd.custom_type.uint2_t.uint2_t.4* %this, align 4
  ret void
}

; Function Attrs: inaccessiblememonly nounwind
declare dso_local x86_regcallcc void @__regcall3__chessintr_void_event_uint2_t(%struct.ipd.custom_type.uint2_t.uint2_t.4) addrspace(1) #12

; Function Attrs: nounwind readnone willreturn
declare dso_local x86_regcallcc %struct.ipd.custom_type.uint2_t.uint2_t.4 @__regcall3__chessintr_uint2_t_uint2_t___sint(i32 signext) addrspace(1) #13

; Function Attrs: nounwind readnone willreturn
declare %struct.ipd.custom_type.uint2_t.uint2_t.4 @llvm.chess.init.customint.s_struct.ipd.custom_type.uint2_t.uint2_t.4s.i32.p1f_s_struct.ipd.custom_type.uint2_t.uint2_t.4si32f(%struct.ipd.custom_type.uint2_t.uint2_t.4, i32, i32, i32, i1, i32, %struct.ipd.custom_type.uint2_t.uint2_t.4 (i32) addrspace(1)*) addrspace(1) #14

; Function Attrs: inaccessiblememonly nounwind willreturn
declare i8* @llvm.noalias.decl.p0i8.p0p0s_struct.input_streams.i32(%struct.input_stream.0**, i32, metadata) addrspace(1) #5

; Function Attrs: inaccessiblememonly nounwind willreturn
declare i8* @llvm.noalias.decl.p0i8.p0p0s_struct.input_stream.0s.i32(%struct.input_stream.0**, i32, metadata) addrspace(1) #5

; Function Attrs: inaccessiblememonly nounwind willreturn
declare i8* @llvm.noalias.decl.p0i8.p0p0s_struct.output_streams.i32(%struct.output_stream.2**, i32, metadata) addrspace(1) #5

; Function Attrs: inaccessiblememonly nounwind willreturn
declare i8* @llvm.noalias.decl.p0i8.p0p0s_struct.output_stream.2s.i32(%struct.output_stream.2**, i32, metadata) addrspace(1) #5

; Function Attrs: alwaysinline nounwind mustprogress
define linkonce_odr dso_local %"class.aie::detail::vector" @_ZN3aie5zerosIiLj4EEENS_6detail6vectorIT_XT0_EEEv() addrspace(1) #9 comdat !dbg !1380 {
entry:
  %retval = alloca %"class.aie::detail::vector", align 16
  %call = call addrspace(1) %"class.aie::detail::vector" @_ZN3aie6detail5zerosIiLj4EEENS0_6vectorIT_XT0_EEEv() #27, !dbg !1383
  %0 = getelementptr inbounds %"class.aie::detail::vector", %"class.aie::detail::vector"* %retval, i32 0, i32 0, !dbg !1383
  %1 = extractvalue %"class.aie::detail::vector" %call, 0, !dbg !1383
  store %struct.v4int32 %1, %struct.v4int32* %0, align 16, !dbg !1383
  %2 = load %"class.aie::detail::vector", %"class.aie::detail::vector"* %retval, align 16, !dbg !1384
  ret %"class.aie::detail::vector" %2, !dbg !1384
}

; Function Attrs: argmemonly nounwind speculatable willreturn
declare %struct.input_stream.0* @llvm.noalias.p0s_struct.input_streams.p0i8.p0p0s_struct.input_streams.i32(%struct.input_stream.0*, i8*, %struct.input_stream.0**, i32, metadata) addrspace(1) #15

; Function Attrs: argmemonly nounwind speculatable willreturn
declare %struct.input_stream.0* @llvm.noalias.p0s_struct.input_stream.0s.p0i8.p0p0s_struct.input_stream.0s.i32(%struct.input_stream.0*, i8*, %struct.input_stream.0**, i32, metadata) addrspace(1) #15

; Function Attrs: alwaysinline nounwind mustprogress
define linkonce_odr dso_local %"class.aie::detail::vector_elem_ref" @_ZN3aie6detail6vectorIiLj4EEixEj(%"class.aie::detail::vector"* nonnull dereferenceable(16) %this, i32 %idx) addrspace(1) #9 comdat align 2 !dbg !1385 {
entry:
  %retval = alloca %"class.aie::detail::vector_elem_ref", align 4
  call addrspace(1) void @llvm.dbg.value(metadata %"class.aie::detail::vector"* %this, metadata !1387, metadata !DIExpression()), !dbg !1390
  call addrspace(1) void @llvm.dbg.value(metadata i32 %idx, metadata !1389, metadata !DIExpression()), !dbg !1390
  %cmp = icmp ult i32 %idx, 4, !dbg !1391
  %0 = call addrspace(1) i1 @llvm.is.constant.i1(i1 %cmp), !dbg !1391
  br i1 %0, label %do.body, label %if.end4, !dbg !1393

do.body:                                          ; preds = %entry
  %cmp2 = icmp ult i32 %idx, 4, !dbg !1394
  %1 = call addrspace(1) i1 @llvm.chess_manifest(i1 %cmp2), !dbg !1394
  br i1 %1, label %if.end4, label %if.then3, !dbg !1398

if.then3:                                         ; preds = %do.body
  call addrspace(1) void @llvm.chess_error(metadata !1399), !dbg !1394
  unreachable, !dbg !1394

if.end4:                                          ; preds = %do.body, %entry
  %cmp5 = icmp ult i32 %idx, 4, !dbg !1393
  call addrspace(1) void @llvm.assume(i1 %cmp5), !dbg !1393
  %call = call addrspace(1) %"class.aie::detail::vector_elem_ref" @_ZN3aie6detail6vectorIiLj4EE8elem_refEj(%"class.aie::detail::vector"* nonnull dereferenceable(16) %this, i32 %idx) #27, !dbg !1400
  %2 = getelementptr inbounds %"class.aie::detail::vector_elem_ref", %"class.aie::detail::vector_elem_ref"* %retval, i32 0, i32 0, !dbg !1400
  %3 = extractvalue %"class.aie::detail::vector_elem_ref" %call, 0, !dbg !1400
  store %"class.aie::detail::vector"* %3, %"class.aie::detail::vector"** %2, align 4, !dbg !1400
  %4 = getelementptr inbounds %"class.aie::detail::vector_elem_ref", %"class.aie::detail::vector_elem_ref"* %retval, i32 0, i32 1, !dbg !1400
  %5 = extractvalue %"class.aie::detail::vector_elem_ref" %call, 1, !dbg !1400
  store i32 %5, i32* %4, align 4, !dbg !1400
  %6 = load %"class.aie::detail::vector_elem_ref", %"class.aie::detail::vector_elem_ref"* %retval, align 4, !dbg !1401
  ret %"class.aie::detail::vector_elem_ref" %6, !dbg !1401
}

; Function Attrs: alwaysinline nounwind mustprogress
define linkonce_odr dso_local i32 @_ZNK3aie6detail15vector_elem_refIiLj4EEcviEv(%"class.aie::detail::vector_elem_ref"* nonnull dereferenceable(8) %this) addrspace(1) #9 comdat align 2 !dbg !1402 {
entry:
  call addrspace(1) void @llvm.dbg.value(metadata %"class.aie::detail::vector_elem_ref"* %this, metadata !1404, metadata !DIExpression()), !dbg !1406
  %call = call addrspace(1) i32 @_ZNK3aie6detail15vector_elem_refIiLj4EE3getEv(%"class.aie::detail::vector_elem_ref"* nonnull dereferenceable(8) %this) #27, !dbg !1407
  ret i32 %call, !dbg !1408
}

; Function Attrs: alwaysinline nounwind
define linkonce_odr dso_local void @_ZN7ClusterC2Ev(%class.Cluster* nonnull dereferenceable(20) %this) unnamed_addr addrspace(1) #11 comdat align 2 !dbg !1409 {
entry:
  call addrspace(1) void @llvm.dbg.value(metadata %class.Cluster* %this, metadata !1455, metadata !DIExpression()), !dbg !1457
  %x = getelementptr inbounds %class.Cluster, %class.Cluster* %this, i32 0, i32 0, !dbg !1458
  store i32 0, i32* %x, align 4, !dbg !1460, !tbaa !1461
  %y = getelementptr inbounds %class.Cluster, %class.Cluster* %this, i32 0, i32 1, !dbg !1463
  store i32 0, i32* %y, align 4, !dbg !1464, !tbaa !1465
  %numPoints = getelementptr inbounds %class.Cluster, %class.Cluster* %this, i32 0, i32 2, !dbg !1466
  store i32 0, i32* %numPoints, align 4, !dbg !1467, !tbaa !1468
  %x_accum = getelementptr inbounds %class.Cluster, %class.Cluster* %this, i32 0, i32 3, !dbg !1469
  store i32 0, i32* %x_accum, align 4, !dbg !1470, !tbaa !1471
  %y_accum = getelementptr inbounds %class.Cluster, %class.Cluster* %this, i32 0, i32 4, !dbg !1472
  store i32 0, i32* %y_accum, align 4, !dbg !1473, !tbaa !1474
  ret void, !dbg !1475
}

; Function Attrs: alwaysinline nounwind
define linkonce_odr dso_local void @_ZN5PointC2Ev(%class.Point* nonnull dereferenceable(12) %this) unnamed_addr addrspace(1) #11 comdat align 2 !dbg !1476 {
entry:
  call addrspace(1) void @llvm.dbg.value(metadata %class.Point* %this, metadata !1478, metadata !DIExpression()), !dbg !1480
  %x = getelementptr inbounds %class.Point, %class.Point* %this, i32 0, i32 1, !dbg !1481
  store i32 0, i32* %x, align 4, !dbg !1483, !tbaa !1484
  %y = getelementptr inbounds %class.Point, %class.Point* %this, i32 0, i32 2, !dbg !1486
  store i32 0, i32* %y, align 4, !dbg !1487, !tbaa !1488
  %clusterId = getelementptr inbounds %class.Point, %class.Point* %this, i32 0, i32 0, !dbg !1489
  store i32 -1, i32* %clusterId, align 4, !dbg !1490, !tbaa !1491
  ret void, !dbg !1492
}

; Function Attrs: alwaysinline nounwind
define linkonce_odr dso_local void @_ZN5PointC2Eii(%class.Point* nonnull dereferenceable(12) %this, i32 %x, i32 %y) unnamed_addr addrspace(1) #11 comdat align 2 !dbg !1493 {
entry:
  call addrspace(1) void @llvm.dbg.value(metadata %class.Point* %this, metadata !1495, metadata !DIExpression()), !dbg !1498
  call addrspace(1) void @llvm.dbg.value(metadata i32 %x, metadata !1496, metadata !DIExpression()), !dbg !1498
  call addrspace(1) void @llvm.dbg.value(metadata i32 %y, metadata !1497, metadata !DIExpression()), !dbg !1498
  %x2 = getelementptr inbounds %class.Point, %class.Point* %this, i32 0, i32 1, !dbg !1499
  store i32 %x, i32* %x2, align 4, !dbg !1501, !tbaa !1484
  %y3 = getelementptr inbounds %class.Point, %class.Point* %this, i32 0, i32 2, !dbg !1502
  store i32 %y, i32* %y3, align 4, !dbg !1503, !tbaa !1488
  %clusterId = getelementptr inbounds %class.Point, %class.Point* %this, i32 0, i32 0, !dbg !1504
  store i32 -1, i32* %clusterId, align 4, !dbg !1505, !tbaa !1491
  ret void, !dbg !1506
}

; Function Attrs: alwaysinline nounwind
define linkonce_odr dso_local void @_ZN7ClusterC2Eii(%class.Cluster* nonnull dereferenceable(20) %this, i32 %x, i32 %y) unnamed_addr addrspace(1) #11 comdat align 2 !dbg !1507 {
entry:
  call addrspace(1) void @llvm.dbg.value(metadata %class.Cluster* %this, metadata !1509, metadata !DIExpression()), !dbg !1512
  call addrspace(1) void @llvm.dbg.value(metadata i32 %x, metadata !1510, metadata !DIExpression()), !dbg !1512
  call addrspace(1) void @llvm.dbg.value(metadata i32 %y, metadata !1511, metadata !DIExpression()), !dbg !1512
  %x2 = getelementptr inbounds %class.Cluster, %class.Cluster* %this, i32 0, i32 0, !dbg !1513
  store i32 %x, i32* %x2, align 4, !dbg !1515, !tbaa !1461
  %y3 = getelementptr inbounds %class.Cluster, %class.Cluster* %this, i32 0, i32 1, !dbg !1516
  store i32 %y, i32* %y3, align 4, !dbg !1517, !tbaa !1465
  %numPoints = getelementptr inbounds %class.Cluster, %class.Cluster* %this, i32 0, i32 2, !dbg !1518
  store i32 0, i32* %numPoints, align 4, !dbg !1519, !tbaa !1468
  %x_accum = getelementptr inbounds %class.Cluster, %class.Cluster* %this, i32 0, i32 3, !dbg !1520
  store i32 0, i32* %x_accum, align 4, !dbg !1521, !tbaa !1471
  %y_accum = getelementptr inbounds %class.Cluster, %class.Cluster* %this, i32 0, i32 4, !dbg !1522
  store i32 0, i32* %y_accum, align 4, !dbg !1523, !tbaa !1474
  ret void, !dbg !1524
}

; Function Attrs: alwaysinline nounwind mustprogress
define linkonce_odr dso_local %"class.aie::detail::vector.1" @_ZN3aie5zerosIiLj8EEENS_6detail6vectorIT_XT0_EEEv() addrspace(1) #9 comdat !dbg !1525 {
entry:
  %retval = alloca %"class.aie::detail::vector.1", align 32
  %call = call addrspace(1) %"class.aie::detail::vector.1" @_ZN3aie6detail5zerosIiLj8EEENS0_6vectorIT_XT0_EEEv() #27, !dbg !1528
  %0 = getelementptr inbounds %"class.aie::detail::vector.1", %"class.aie::detail::vector.1"* %retval, i32 0, i32 0, !dbg !1528
  %1 = extractvalue %"class.aie::detail::vector.1" %call, 0, !dbg !1528
  store %struct.v8int32 %1, %struct.v8int32* %0, align 32, !dbg !1528
  %2 = load %"class.aie::detail::vector.1", %"class.aie::detail::vector.1"* %retval, align 32, !dbg !1529
  ret %"class.aie::detail::vector.1" %2, !dbg !1529
}

; Function Attrs: alwaysinline nounwind mustprogress
define dso_local %"class.aie::detail::vector.1" @_Z18euclidean_distanceP7Clusteri5Point(%class.Cluster* %clusters, i32 %num_clusters, %class.Point %point.coerce) addrspace(1) #9 !dbg !1530 {
entry:
  %retval = alloca %"class.aie::detail::vector.1", align 32
  %point = alloca %class.Point, align 4
  %clusters_coords = alloca %"class.aie::detail::vector.1", align 32
  %diff = alloca %"class.aie::detail::vector.1", align 32
  %dist_x = alloca %"class.aie::detail::accum", align 32
  %dist_y = alloca %"class.aie::detail::accum", align 32
  %ref.tmp = alloca i32, align 4
  %ref.tmp5 = alloca %"class.aie::detail::vector_elem_ref.2", align 4
  %tmp = alloca %"class.aie::detail::vector.1", align 32
  %tmp10 = alloca %"class.aie::detail::accum", align 32
  %ref.tmp15 = alloca i32, align 4
  %ref.tmp18 = alloca %"class.aie::detail::vector_elem_ref.2", align 4
  %tmp24 = alloca %"class.aie::detail::vector.1", align 32
  %tmp27 = alloca %"class.aie::detail::accum", align 32
  %ref.tmp29 = alloca %"class.aie::detail::vector.1", align 32
  %ref.tmp31 = alloca %"class.aie::detail::vector.1", align 32
  store %class.Point %point.coerce, %class.Point* %point, align 4
  call addrspace(1) void @llvm.dbg.value(metadata %class.Cluster* %clusters, metadata !1535, metadata !DIExpression()), !dbg !1821
  call addrspace(1) void @llvm.dbg.value(metadata i32 %num_clusters, metadata !1536, metadata !DIExpression()), !dbg !1821
  call addrspace(1) void @llvm.dbg.declare(metadata %class.Point* %point, metadata !1537, metadata !DIExpression()), !dbg !1822
  store %"class.aie::detail::vector.1" undef, %"class.aie::detail::vector.1"* %clusters_coords, align 32, !dbg !1823
  %0 = bitcast %"class.aie::detail::vector.1"* %clusters_coords to i8*, !dbg !1823
  call addrspace(1) void @llvm.lifetime.start.p0i8(i64 32, i8* %0) #24, !dbg !1823
  call addrspace(1) void @llvm.dbg.declare(metadata %"class.aie::detail::vector.1"* %clusters_coords, metadata !1538, metadata !DIExpression()), !dbg !1824
  %call = call addrspace(1) %"class.aie::detail::vector.1" @_ZN3aie5zerosIiLj8EEENS_6detail6vectorIT_XT0_EEEv() #27, !dbg !1825
  %1 = getelementptr inbounds %"class.aie::detail::vector.1", %"class.aie::detail::vector.1"* %clusters_coords, i32 0, i32 0, !dbg !1825
  %2 = extractvalue %"class.aie::detail::vector.1" %call, 0, !dbg !1825
  store %struct.v8int32 %2, %struct.v8int32* %1, align 32, !dbg !1825
  store %"class.aie::detail::vector.1" undef, %"class.aie::detail::vector.1"* %diff, align 32, !dbg !1826
  %3 = bitcast %"class.aie::detail::vector.1"* %diff to i8*, !dbg !1826
  call addrspace(1) void @llvm.lifetime.start.p0i8(i64 32, i8* %3) #24, !dbg !1826
  call addrspace(1) void @llvm.dbg.declare(metadata %"class.aie::detail::vector.1"* %diff, metadata !1539, metadata !DIExpression()), !dbg !1827
  %call1 = call addrspace(1) %"class.aie::detail::vector.1" @_ZN3aie5zerosIiLj8EEENS_6detail6vectorIT_XT0_EEEv() #27, !dbg !1828
  %4 = getelementptr inbounds %"class.aie::detail::vector.1", %"class.aie::detail::vector.1"* %diff, i32 0, i32 0, !dbg !1828
  %5 = extractvalue %"class.aie::detail::vector.1" %call1, 0, !dbg !1828
  store %struct.v8int32 %5, %struct.v8int32* %4, align 32, !dbg !1828
  store %"class.aie::detail::accum" undef, %"class.aie::detail::accum"* %dist_x, align 32, !dbg !1829
  %6 = bitcast %"class.aie::detail::accum"* %dist_x to i8*, !dbg !1829
  call addrspace(1) void @llvm.lifetime.start.p0i8(i64 128, i8* %6) #24, !dbg !1829
  call addrspace(1) void @llvm.dbg.declare(metadata %"class.aie::detail::accum"* %dist_x, metadata !1540, metadata !DIExpression()), !dbg !1830
  %call2 = call addrspace(1) %"class.aie::detail::accum" @_ZN3aie5zerosI5acc64Lj8EEENS_6detail5accumIXsr6detailE21accum_class_for_tag_vIT_EEXsr6detailE20accum_bits_for_tag_vIS4_EEXT0_EEEv() #27, !dbg !1831
  %7 = getelementptr inbounds %"class.aie::detail::accum", %"class.aie::detail::accum"* %dist_x, i32 0, i32 0, !dbg !1831
  %8 = extractvalue %"class.aie::detail::accum" %call2, 0, !dbg !1831
  store %struct.v8acc80 %8, %struct.v8acc80* %7, align 32, !dbg !1831
  store %"class.aie::detail::accum" undef, %"class.aie::detail::accum"* %dist_y, align 32, !dbg !1832
  %9 = bitcast %"class.aie::detail::accum"* %dist_y to i8*, !dbg !1832
  call addrspace(1) void @llvm.lifetime.start.p0i8(i64 128, i8* %9) #24, !dbg !1832
  call addrspace(1) void @llvm.dbg.declare(metadata %"class.aie::detail::accum"* %dist_y, metadata !1818, metadata !DIExpression()), !dbg !1833
  %call3 = call addrspace(1) %"class.aie::detail::accum" @_ZN3aie5zerosI5acc64Lj8EEENS_6detail5accumIXsr6detailE21accum_class_for_tag_vIT_EEXsr6detailE20accum_bits_for_tag_vIS4_EEXT0_EEEv() #27, !dbg !1834
  %10 = getelementptr inbounds %"class.aie::detail::accum", %"class.aie::detail::accum"* %dist_y, i32 0, i32 0, !dbg !1834
  %11 = extractvalue %"class.aie::detail::accum" %call3, 0, !dbg !1834
  store %struct.v8acc80 %11, %struct.v8acc80* %10, align 32, !dbg !1834
  call addrspace(1) void @llvm.dbg.value(metadata i32 undef, metadata !1819, metadata !DIExpression()), !dbg !1821
  call addrspace(1) void @llvm.dbg.value(metadata i32 0, metadata !1819, metadata !DIExpression()), !dbg !1821
  call addrspace(1) void @llvm.dbg.value(metadata i32 0, metadata !1819, metadata !DIExpression()), !dbg !1821
  %cmp1 = icmp slt i32 0, %num_clusters, !dbg !1835
  br i1 %cmp1, label %for.body.preheader, label %for.end, !dbg !1838

for.body.preheader:                               ; preds = %entry
  br label %for.body, !dbg !1838

for.body:                                         ; preds = %for.body.preheader, %for.body
  %i.02 = phi i32 [ %inc, %for.body ], [ 0, %for.body.preheader ]
  call addrspace(1) void @llvm.dbg.value(metadata i32 %i.02, metadata !1819, metadata !DIExpression()), !dbg !1821
  %12 = bitcast i32* %ref.tmp to i8*, !dbg !1839
  call addrspace(1) void @llvm.lifetime.start.p0i8(i64 4, i8* %12) #24, !dbg !1839
  %arrayidx = getelementptr inbounds %class.Cluster, %class.Cluster* %clusters, i32 %i.02, !dbg !1839
  %call4 = call addrspace(1) i32 @_ZN7Cluster4getXEv(%class.Cluster* nonnull dereferenceable(20) %arrayidx) #27, !dbg !1841
  store i32 %call4, i32* %ref.tmp, align 4, !dbg !1839, !tbaa !1328
  %13 = bitcast %"class.aie::detail::vector_elem_ref.2"* %ref.tmp5 to i8*, !dbg !1842
  call addrspace(1) void @llvm.lifetime.start.p0i8(i64 8, i8* %13) #24, !dbg !1842
  %call6 = call addrspace(1) %"class.aie::detail::vector_elem_ref.2" @_ZN3aie6detail6vectorIiLj8EEixEj(%"class.aie::detail::vector.1"* nonnull dereferenceable(32) %clusters_coords, i32 %i.02) #27, !dbg !1842
  %14 = getelementptr inbounds %"class.aie::detail::vector_elem_ref.2", %"class.aie::detail::vector_elem_ref.2"* %ref.tmp5, i32 0, i32 0, !dbg !1842
  %15 = extractvalue %"class.aie::detail::vector_elem_ref.2" %call6, 0, !dbg !1842
  store %"class.aie::detail::vector.1"* %15, %"class.aie::detail::vector.1"** %14, align 4, !dbg !1842
  %16 = getelementptr inbounds %"class.aie::detail::vector_elem_ref.2", %"class.aie::detail::vector_elem_ref.2"* %ref.tmp5, i32 0, i32 1, !dbg !1842
  %17 = extractvalue %"class.aie::detail::vector_elem_ref.2" %call6, 1, !dbg !1842
  store i32 %17, i32* %16, align 4, !dbg !1842
  %call7 = call nonnull align 4 dereferenceable(8) addrspace(1) %"class.aie::detail::vector_elem_ref.2"* @_ZN3aie6detail15vector_elem_refIiLj8EEaSERKi(%"class.aie::detail::vector_elem_ref.2"* nonnull dereferenceable(8) %ref.tmp5, i32* nonnull align 4 dereferenceable(4) %ref.tmp) #27, !dbg !1843
  %18 = bitcast %"class.aie::detail::vector_elem_ref.2"* %ref.tmp5 to i8*, !dbg !1842
  call addrspace(1) void @llvm.lifetime.end.p0i8(i64 8, i8* %18) #24, !dbg !1842
  %19 = bitcast i32* %ref.tmp to i8*, !dbg !1842
  call addrspace(1) void @llvm.lifetime.end.p0i8(i64 4, i8* %19) #24, !dbg !1842
  %inc = add nuw nsw i32 %i.02, 1, !dbg !1844
  call addrspace(1) void @llvm.dbg.value(metadata i32 %inc, metadata !1819, metadata !DIExpression()), !dbg !1821
  %exitcond = icmp ne i32 %inc, %num_clusters, !dbg !1835
  br i1 %exitcond, label %for.body, label %for.end.loopexit, !dbg !1838, !llvm.loop !1845

for.end.loopexit:                                 ; preds = %for.body
  br label %for.end, !dbg !1848

for.end:                                          ; preds = %for.end.loopexit, %entry
  %20 = bitcast %"class.aie::detail::vector.1"* %tmp to i8*, !dbg !1848
  call addrspace(1) void @llvm.lifetime.start.p0i8(i64 32, i8* %20) #24, !dbg !1848
  %call8 = call addrspace(1) i32 @_ZN5Point4getXEv(%class.Point* nonnull dereferenceable(12) %point) #27, !dbg !1849
  %call9 = call addrspace(1) %"class.aie::detail::vector.1" @_ZN3aie3subINS_6detail6vectorIiLj8EEEiEEN22aie_dm_resource_removeIT_E4typeERKS5_T0_(%"class.aie::detail::vector.1"* nonnull align 32 dereferenceable(32) %clusters_coords, i32 %call8) #27, !dbg !1848
  %21 = getelementptr inbounds %"class.aie::detail::vector.1", %"class.aie::detail::vector.1"* %tmp, i32 0, i32 0, !dbg !1848
  %22 = extractvalue %"class.aie::detail::vector.1" %call9, 0, !dbg !1848
  store %struct.v8int32 %22, %struct.v8int32* %21, align 32, !dbg !1848
  %23 = load %"class.aie::detail::vector.1", %"class.aie::detail::vector.1"* %tmp, align 32, !dbg !1848, !tbaa !1850
  store %"class.aie::detail::vector.1" %23, %"class.aie::detail::vector.1"* %diff, align 32, !dbg !1848, !tbaa !1850
  %24 = bitcast %"class.aie::detail::vector.1"* %tmp to i8*, !dbg !1848
  call addrspace(1) void @llvm.lifetime.end.p0i8(i64 32, i8* %24) #24, !dbg !1848
  %25 = bitcast %"class.aie::detail::accum"* %tmp10 to i8*, !dbg !1853
  call addrspace(1) void @llvm.lifetime.start.p0i8(i64 128, i8* %25) #24, !dbg !1853
  %call11 = call addrspace(1) %"class.aie::detail::accum" @_ZN3aie3mulINS_6detail6vectorIiLj8EEES3_EEDaRKT_RKT0_(%"class.aie::detail::vector.1"* nonnull align 32 dereferenceable(32) %diff, %"class.aie::detail::vector.1"* nonnull align 32 dereferenceable(32) %diff) #27, !dbg !1853
  %26 = getelementptr inbounds %"class.aie::detail::accum", %"class.aie::detail::accum"* %tmp10, i32 0, i32 0, !dbg !1853
  %27 = extractvalue %"class.aie::detail::accum" %call11, 0, !dbg !1853
  store %struct.v8acc80 %27, %struct.v8acc80* %26, align 32, !dbg !1853
  %28 = load %"class.aie::detail::accum", %"class.aie::detail::accum"* %tmp10, align 32, !dbg !1853, !tbaa !1854
  store %"class.aie::detail::accum" %28, %"class.aie::detail::accum"* %dist_x, align 32, !dbg !1853, !tbaa !1854
  %29 = bitcast %"class.aie::detail::accum"* %tmp10 to i8*, !dbg !1853
  call addrspace(1) void @llvm.lifetime.end.p0i8(i64 128, i8* %29) #24, !dbg !1853
  call addrspace(1) void @llvm.dbg.value(metadata i32 0, metadata !1819, metadata !DIExpression()), !dbg !1821
  %cmp133 = icmp slt i32 0, %num_clusters, !dbg !1857
  br i1 %cmp133, label %for.body14.preheader, label %for.end23, !dbg !1860

for.body14.preheader:                             ; preds = %for.end
  br label %for.body14, !dbg !1860

for.body14:                                       ; preds = %for.body14.preheader, %for.body14
  %i.14 = phi i32 [ %inc22, %for.body14 ], [ 0, %for.body14.preheader ]
  call addrspace(1) void @llvm.dbg.value(metadata i32 %i.14, metadata !1819, metadata !DIExpression()), !dbg !1821
  %30 = bitcast i32* %ref.tmp15 to i8*, !dbg !1861
  call addrspace(1) void @llvm.lifetime.start.p0i8(i64 4, i8* %30) #24, !dbg !1861
  %arrayidx16 = getelementptr inbounds %class.Cluster, %class.Cluster* %clusters, i32 %i.14, !dbg !1861
  %call17 = call addrspace(1) i32 @_ZN7Cluster4getYEv(%class.Cluster* nonnull dereferenceable(20) %arrayidx16) #27, !dbg !1863
  store i32 %call17, i32* %ref.tmp15, align 4, !dbg !1861, !tbaa !1328
  %31 = bitcast %"class.aie::detail::vector_elem_ref.2"* %ref.tmp18 to i8*, !dbg !1864
  call addrspace(1) void @llvm.lifetime.start.p0i8(i64 8, i8* %31) #24, !dbg !1864
  %call19 = call addrspace(1) %"class.aie::detail::vector_elem_ref.2" @_ZN3aie6detail6vectorIiLj8EEixEj(%"class.aie::detail::vector.1"* nonnull dereferenceable(32) %clusters_coords, i32 %i.14) #27, !dbg !1864
  %32 = getelementptr inbounds %"class.aie::detail::vector_elem_ref.2", %"class.aie::detail::vector_elem_ref.2"* %ref.tmp18, i32 0, i32 0, !dbg !1864
  %33 = extractvalue %"class.aie::detail::vector_elem_ref.2" %call19, 0, !dbg !1864
  store %"class.aie::detail::vector.1"* %33, %"class.aie::detail::vector.1"** %32, align 4, !dbg !1864
  %34 = getelementptr inbounds %"class.aie::detail::vector_elem_ref.2", %"class.aie::detail::vector_elem_ref.2"* %ref.tmp18, i32 0, i32 1, !dbg !1864
  %35 = extractvalue %"class.aie::detail::vector_elem_ref.2" %call19, 1, !dbg !1864
  store i32 %35, i32* %34, align 4, !dbg !1864
  %call20 = call nonnull align 4 dereferenceable(8) addrspace(1) %"class.aie::detail::vector_elem_ref.2"* @_ZN3aie6detail15vector_elem_refIiLj8EEaSERKi(%"class.aie::detail::vector_elem_ref.2"* nonnull dereferenceable(8) %ref.tmp18, i32* nonnull align 4 dereferenceable(4) %ref.tmp15) #27, !dbg !1865
  %36 = bitcast %"class.aie::detail::vector_elem_ref.2"* %ref.tmp18 to i8*, !dbg !1864
  call addrspace(1) void @llvm.lifetime.end.p0i8(i64 8, i8* %36) #24, !dbg !1864
  %37 = bitcast i32* %ref.tmp15 to i8*, !dbg !1864
  call addrspace(1) void @llvm.lifetime.end.p0i8(i64 4, i8* %37) #24, !dbg !1864
  %inc22 = add nuw nsw i32 %i.14, 1, !dbg !1866
  call addrspace(1) void @llvm.dbg.value(metadata i32 %inc22, metadata !1819, metadata !DIExpression()), !dbg !1821
  %exitcond5 = icmp ne i32 %inc22, %num_clusters, !dbg !1857
  br i1 %exitcond5, label %for.body14, label %for.end23.loopexit, !dbg !1860, !llvm.loop !1867

for.end23.loopexit:                               ; preds = %for.body14
  br label %for.end23, !dbg !1869

for.end23:                                        ; preds = %for.end23.loopexit, %for.end
  %38 = bitcast %"class.aie::detail::vector.1"* %tmp24 to i8*, !dbg !1869
  call addrspace(1) void @llvm.lifetime.start.p0i8(i64 32, i8* %38) #24, !dbg !1869
  %call25 = call addrspace(1) i32 @_ZN5Point4getYEv(%class.Point* nonnull dereferenceable(12) %point) #27, !dbg !1870
  %call26 = call addrspace(1) %"class.aie::detail::vector.1" @_ZN3aie3subINS_6detail6vectorIiLj8EEEiEEN22aie_dm_resource_removeIT_E4typeERKS5_T0_(%"class.aie::detail::vector.1"* nonnull align 32 dereferenceable(32) %clusters_coords, i32 %call25) #27, !dbg !1869
  %39 = getelementptr inbounds %"class.aie::detail::vector.1", %"class.aie::detail::vector.1"* %tmp24, i32 0, i32 0, !dbg !1869
  %40 = extractvalue %"class.aie::detail::vector.1" %call26, 0, !dbg !1869
  store %struct.v8int32 %40, %struct.v8int32* %39, align 32, !dbg !1869
  %41 = load %"class.aie::detail::vector.1", %"class.aie::detail::vector.1"* %tmp24, align 32, !dbg !1869, !tbaa !1850
  store %"class.aie::detail::vector.1" %41, %"class.aie::detail::vector.1"* %diff, align 32, !dbg !1869, !tbaa !1850
  %42 = bitcast %"class.aie::detail::vector.1"* %tmp24 to i8*, !dbg !1869
  call addrspace(1) void @llvm.lifetime.end.p0i8(i64 32, i8* %42) #24, !dbg !1869
  %43 = bitcast %"class.aie::detail::accum"* %tmp27 to i8*, !dbg !1871
  call addrspace(1) void @llvm.lifetime.start.p0i8(i64 128, i8* %43) #24, !dbg !1871
  %call28 = call addrspace(1) %"class.aie::detail::accum" @_ZN3aie3mulINS_6detail6vectorIiLj8EEES3_EEDaRKT_RKT0_(%"class.aie::detail::vector.1"* nonnull align 32 dereferenceable(32) %diff, %"class.aie::detail::vector.1"* nonnull align 32 dereferenceable(32) %diff) #27, !dbg !1871
  %44 = getelementptr inbounds %"class.aie::detail::accum", %"class.aie::detail::accum"* %tmp27, i32 0, i32 0, !dbg !1871
  %45 = extractvalue %"class.aie::detail::accum" %call28, 0, !dbg !1871
  store %struct.v8acc80 %45, %struct.v8acc80* %44, align 32, !dbg !1871
  %46 = load %"class.aie::detail::accum", %"class.aie::detail::accum"* %tmp27, align 32, !dbg !1871, !tbaa !1854
  store %"class.aie::detail::accum" %46, %"class.aie::detail::accum"* %dist_y, align 32, !dbg !1871, !tbaa !1854
  %47 = bitcast %"class.aie::detail::accum"* %tmp27 to i8*, !dbg !1871
  call addrspace(1) void @llvm.lifetime.end.p0i8(i64 128, i8* %47) #24, !dbg !1871
  call addrspace(1) void @llvm.dbg.declare(metadata %"class.aie::detail::vector.1"* %retval, metadata !1820, metadata !DIExpression()), !dbg !1872
  %48 = bitcast %"class.aie::detail::vector.1"* %ref.tmp29 to i8*, !dbg !1873
  call addrspace(1) void @llvm.lifetime.start.p0i8(i64 32, i8* %48) #24, !dbg !1873
  %call30 = call addrspace(1) %"class.aie::detail::vector.1" @_ZNK3aie6detail5accumILNS0_10AccumClassE0ELj64ELj8EE9to_vectorIiEENS0_6vectorIT_Lj8EEEi(%"class.aie::detail::accum"* nonnull dereferenceable(128) %dist_x, i32 0) #27, !dbg !1874
  %49 = getelementptr inbounds %"class.aie::detail::vector.1", %"class.aie::detail::vector.1"* %ref.tmp29, i32 0, i32 0, !dbg !1874
  %50 = extractvalue %"class.aie::detail::vector.1" %call30, 0, !dbg !1874
  store %struct.v8int32 %50, %struct.v8int32* %49, align 32, !dbg !1874
  %51 = bitcast %"class.aie::detail::vector.1"* %ref.tmp31 to i8*, !dbg !1875
  call addrspace(1) void @llvm.lifetime.start.p0i8(i64 32, i8* %51) #24, !dbg !1875
  %call32 = call addrspace(1) %"class.aie::detail::vector.1" @_ZNK3aie6detail5accumILNS0_10AccumClassE0ELj64ELj8EE9to_vectorIiEENS0_6vectorIT_Lj8EEEi(%"class.aie::detail::accum"* nonnull dereferenceable(128) %dist_y, i32 0) #27, !dbg !1876
  %52 = getelementptr inbounds %"class.aie::detail::vector.1", %"class.aie::detail::vector.1"* %ref.tmp31, i32 0, i32 0, !dbg !1876
  %53 = extractvalue %"class.aie::detail::vector.1" %call32, 0, !dbg !1876
  store %struct.v8int32 %53, %struct.v8int32* %52, align 32, !dbg !1876
  %call33 = call addrspace(1) %"class.aie::detail::vector.1" @_ZN3aie3addINS_6detail6vectorIiLj8EEES3_EEN22aie_dm_resource_removeIT_E4typeERKS5_RKT0_(%"class.aie::detail::vector.1"* nonnull align 32 dereferenceable(32) %ref.tmp29, %"class.aie::detail::vector.1"* nonnull align 32 dereferenceable(32) %ref.tmp31) #27, !dbg !1877
  %54 = getelementptr inbounds %"class.aie::detail::vector.1", %"class.aie::detail::vector.1"* %retval, i32 0, i32 0, !dbg !1877
  %55 = extractvalue %"class.aie::detail::vector.1" %call33, 0, !dbg !1877
  store %struct.v8int32 %55, %struct.v8int32* %54, align 32, !dbg !1877
  %56 = bitcast %"class.aie::detail::vector.1"* %ref.tmp31 to i8*, !dbg !1877
  call addrspace(1) void @llvm.lifetime.end.p0i8(i64 32, i8* %56) #24, !dbg !1877
  %57 = bitcast %"class.aie::detail::vector.1"* %ref.tmp29 to i8*, !dbg !1877
  call addrspace(1) void @llvm.lifetime.end.p0i8(i64 32, i8* %57) #24, !dbg !1877
  %58 = bitcast %"class.aie::detail::accum"* %dist_y to i8*, !dbg !1878
  call addrspace(1) void @llvm.lifetime.end.p0i8(i64 128, i8* %58) #24, !dbg !1878
  %59 = bitcast %"class.aie::detail::accum"* %dist_x to i8*, !dbg !1878
  call addrspace(1) void @llvm.lifetime.end.p0i8(i64 128, i8* %59) #24, !dbg !1878
  %60 = bitcast %"class.aie::detail::vector.1"* %diff to i8*, !dbg !1878
  call addrspace(1) void @llvm.lifetime.end.p0i8(i64 32, i8* %60) #24, !dbg !1878
  %61 = bitcast %"class.aie::detail::vector.1"* %clusters_coords to i8*, !dbg !1878
  call addrspace(1) void @llvm.lifetime.end.p0i8(i64 32, i8* %61) #24, !dbg !1878
  %62 = load %"class.aie::detail::vector.1", %"class.aie::detail::vector.1"* %retval, align 32, !dbg !1878
  ret %"class.aie::detail::vector.1" %62, !dbg !1878
}

; Function Attrs: alwaysinline nounwind mustprogress
define dso_local i32 @_Z19assignment_functionN3aie6detail6vectorIiLj8EEE5PointP7Clusteri(%"class.aie::detail::vector.1" %distances.coerce, %class.Point %point.coerce, %class.Cluster* %clusters, i32 %num_clusters) addrspace(1) #9 !dbg !1879 {
entry:
  %distances = alloca %"class.aie::detail::vector.1", align 32
  %ref.tmp = alloca i32, align 4
  %ref.tmp1 = alloca %"class.aie::detail::vector_elem_ref.2", align 4
  %ref.tmp7 = alloca %"class.aie::detail::vector_elem_ref.2", align 4
  store %"class.aie::detail::vector.1" %distances.coerce, %"class.aie::detail::vector.1"* %distances, align 32
  call addrspace(1) void @llvm.dbg.value(metadata %class.Point undef, metadata !1884, metadata !DIExpression()), !dbg !1889
  call addrspace(1) void @llvm.dbg.declare(metadata %"class.aie::detail::vector.1"* %distances, metadata !1883, metadata !DIExpression()), !dbg !1890
  call addrspace(1) void @llvm.dbg.value(metadata %class.Cluster* undef, metadata !1885, metadata !DIExpression()), !dbg !1889
  call addrspace(1) void @llvm.dbg.value(metadata i32 %num_clusters, metadata !1886, metadata !DIExpression()), !dbg !1889
  call addrspace(1) void @llvm.dbg.value(metadata i32 undef, metadata !1887, metadata !DIExpression()), !dbg !1889
  call addrspace(1) void @llvm.dbg.value(metadata i32 0, metadata !1887, metadata !DIExpression()), !dbg !1889
  call addrspace(1) void @llvm.dbg.value(metadata i32 %num_clusters, metadata !1887, metadata !DIExpression()), !dbg !1889
  %cmp1 = icmp slt i32 %num_clusters, 8, !dbg !1891
  br i1 %cmp1, label %for.body.preheader, label %for.end, !dbg !1894

for.body.preheader:                               ; preds = %entry
  br label %for.body, !dbg !1894

for.body:                                         ; preds = %for.body.preheader, %for.body
  %i.02 = phi i32 [ %inc, %for.body ], [ %num_clusters, %for.body.preheader ]
  call addrspace(1) void @llvm.dbg.value(metadata i32 %i.02, metadata !1887, metadata !DIExpression()), !dbg !1889
  %0 = bitcast i32* %ref.tmp to i8*, !dbg !1895
  call addrspace(1) void @llvm.lifetime.start.p0i8(i64 4, i8* %0) #24, !dbg !1895
  store i32 2147483647, i32* %ref.tmp, align 4, !dbg !1895, !tbaa !1328
  %1 = bitcast %"class.aie::detail::vector_elem_ref.2"* %ref.tmp1 to i8*, !dbg !1897
  call addrspace(1) void @llvm.lifetime.start.p0i8(i64 8, i8* %1) #24, !dbg !1897
  %call = call addrspace(1) %"class.aie::detail::vector_elem_ref.2" @_ZN3aie6detail6vectorIiLj8EEixEj(%"class.aie::detail::vector.1"* nonnull dereferenceable(32) %distances, i32 %i.02) #27, !dbg !1897
  %2 = getelementptr inbounds %"class.aie::detail::vector_elem_ref.2", %"class.aie::detail::vector_elem_ref.2"* %ref.tmp1, i32 0, i32 0, !dbg !1897
  %3 = extractvalue %"class.aie::detail::vector_elem_ref.2" %call, 0, !dbg !1897
  store %"class.aie::detail::vector.1"* %3, %"class.aie::detail::vector.1"** %2, align 4, !dbg !1897
  %4 = getelementptr inbounds %"class.aie::detail::vector_elem_ref.2", %"class.aie::detail::vector_elem_ref.2"* %ref.tmp1, i32 0, i32 1, !dbg !1897
  %5 = extractvalue %"class.aie::detail::vector_elem_ref.2" %call, 1, !dbg !1897
  store i32 %5, i32* %4, align 4, !dbg !1897
  %call2 = call nonnull align 4 dereferenceable(8) addrspace(1) %"class.aie::detail::vector_elem_ref.2"* @_ZN3aie6detail15vector_elem_refIiLj8EEaSERKi(%"class.aie::detail::vector_elem_ref.2"* nonnull dereferenceable(8) %ref.tmp1, i32* nonnull align 4 dereferenceable(4) %ref.tmp) #27, !dbg !1898
  %6 = bitcast %"class.aie::detail::vector_elem_ref.2"* %ref.tmp1 to i8*, !dbg !1897
  call addrspace(1) void @llvm.lifetime.end.p0i8(i64 8, i8* %6) #24, !dbg !1897
  %7 = bitcast i32* %ref.tmp to i8*, !dbg !1897
  call addrspace(1) void @llvm.lifetime.end.p0i8(i64 4, i8* %7) #24, !dbg !1897
  %inc = add i32 %i.02, 1, !dbg !1899
  call addrspace(1) void @llvm.dbg.value(metadata i32 %inc, metadata !1887, metadata !DIExpression()), !dbg !1889
  %exitcond = icmp ne i32 %inc, 8, !dbg !1891
  br i1 %exitcond, label %for.body, label %for.end.loopexit, !dbg !1894, !llvm.loop !1900

for.end.loopexit:                                 ; preds = %for.body
  br label %for.end, !dbg !1902

for.end:                                          ; preds = %for.end.loopexit, %entry
  call addrspace(1) void @llvm.dbg.value(metadata i32 undef, metadata !1888, metadata !DIExpression()), !dbg !1889
  %call3 = call addrspace(1) i32 @_ZN3aie10reduce_minINS_6detail6vectorIiLj8EEEEENT_10value_typeERKS4_(%"class.aie::detail::vector.1"* nonnull align 32 dereferenceable(32) %distances) #27, !dbg !1902
  call addrspace(1) void @llvm.dbg.value(metadata i32 %call3, metadata !1888, metadata !DIExpression()), !dbg !1889
  call addrspace(1) void @llvm.dbg.value(metadata i32 0, metadata !1887, metadata !DIExpression()), !dbg !1889
  %cmp53 = icmp slt i32 0, %num_clusters, !dbg !1903
  br i1 %cmp53, label %for.body6.preheader, label %cleanup, !dbg !1906

for.body6.preheader:                              ; preds = %for.end
  br label %for.body6, !dbg !1906

for.body6:                                        ; preds = %for.body6.preheader, %for.inc10
  %i.14 = phi i32 [ %inc11, %for.inc10 ], [ 0, %for.body6.preheader ]
  call addrspace(1) void @llvm.dbg.value(metadata i32 %i.14, metadata !1887, metadata !DIExpression()), !dbg !1889
  %8 = bitcast %"class.aie::detail::vector_elem_ref.2"* %ref.tmp7 to i8*, !dbg !1907
  call addrspace(1) void @llvm.lifetime.start.p0i8(i64 8, i8* %8) #24, !dbg !1907
  %call8 = call addrspace(1) %"class.aie::detail::vector_elem_ref.2" @_ZN3aie6detail6vectorIiLj8EEixEj(%"class.aie::detail::vector.1"* nonnull dereferenceable(32) %distances, i32 %i.14) #27, !dbg !1907
  %9 = getelementptr inbounds %"class.aie::detail::vector_elem_ref.2", %"class.aie::detail::vector_elem_ref.2"* %ref.tmp7, i32 0, i32 0, !dbg !1907
  %10 = extractvalue %"class.aie::detail::vector_elem_ref.2" %call8, 0, !dbg !1907
  store %"class.aie::detail::vector.1"* %10, %"class.aie::detail::vector.1"** %9, align 4, !dbg !1907
  %11 = getelementptr inbounds %"class.aie::detail::vector_elem_ref.2", %"class.aie::detail::vector_elem_ref.2"* %ref.tmp7, i32 0, i32 1, !dbg !1907
  %12 = extractvalue %"class.aie::detail::vector_elem_ref.2" %call8, 1, !dbg !1907
  store i32 %12, i32* %11, align 4, !dbg !1907
  %call9 = call zeroext addrspace(1) i1 @_ZNK3aie6detail15vector_elem_refIiLj8EEeqIiEEbT_(%"class.aie::detail::vector_elem_ref.2"* nonnull dereferenceable(8) %ref.tmp7, i32 %call3) #27, !dbg !1910
  %13 = bitcast %"class.aie::detail::vector_elem_ref.2"* %ref.tmp7 to i8*, !dbg !1907
  call addrspace(1) void @llvm.lifetime.end.p0i8(i64 8, i8* %13) #24, !dbg !1907
  br i1 %call9, label %cleanup.loopexit, label %for.inc10, !dbg !1911

for.inc10:                                        ; preds = %for.body6
  %inc11 = add nuw nsw i32 %i.14, 1, !dbg !1912
  call addrspace(1) void @llvm.dbg.value(metadata i32 %inc11, metadata !1887, metadata !DIExpression()), !dbg !1889
  %exitcond6 = icmp ne i32 %inc11, %num_clusters, !dbg !1903
  br i1 %exitcond6, label %for.body6, label %cleanup.loopexit, !dbg !1906, !llvm.loop !1913

cleanup.loopexit:                                 ; preds = %for.inc10, %for.body6
  %retval.0.ph = phi i32 [ %i.14, %for.body6 ], [ -1, %for.inc10 ]
  br label %cleanup, !dbg !1915

cleanup:                                          ; preds = %cleanup.loopexit, %for.end
  %retval.0 = phi i32 [ -1, %for.end ], [ %retval.0.ph, %cleanup.loopexit ], !dbg !1889
  ret i32 %retval.0, !dbg !1915
}

; Function Attrs: alwaysinline nounwind mustprogress
define linkonce_odr dso_local void @_ZN5Point10setClusterEi(%class.Point* nonnull dereferenceable(12) %this, i32 %id) addrspace(1) #9 comdat align 2 !dbg !1916 {
entry:
  call addrspace(1) void @llvm.dbg.value(metadata %class.Point* %this, metadata !1918, metadata !DIExpression()), !dbg !1920
  call addrspace(1) void @llvm.dbg.value(metadata i32 %id, metadata !1919, metadata !DIExpression()), !dbg !1920
  %clusterId = getelementptr inbounds %class.Point, %class.Point* %this, i32 0, i32 0, !dbg !1921
  store i32 %id, i32* %clusterId, align 4, !dbg !1922, !tbaa !1491
  ret void, !dbg !1923
}

; Function Attrs: alwaysinline nounwind mustprogress
define linkonce_odr dso_local void @_ZN7Cluster8addPointE5Point(%class.Cluster* nonnull dereferenceable(20) %this, %class.Point %point.coerce) addrspace(1) #9 comdat align 2 !dbg !1924 {
entry:
  %point = alloca %class.Point, align 4
  store %class.Point %point.coerce, %class.Point* %point, align 4
  call addrspace(1) void @llvm.dbg.value(metadata %class.Cluster* %this, metadata !1926, metadata !DIExpression()), !dbg !1928
  call addrspace(1) void @llvm.dbg.declare(metadata %class.Point* %point, metadata !1927, metadata !DIExpression()), !dbg !1929
  %call = call addrspace(1) i32 @_ZN5Point4getXEv(%class.Point* nonnull dereferenceable(12) %point) #27, !dbg !1930
  %x_accum = getelementptr inbounds %class.Cluster, %class.Cluster* %this, i32 0, i32 3, !dbg !1931
  %0 = load i32, i32* %x_accum, align 4, !dbg !1932, !tbaa !1471
  %add = add nsw i32 %0, %call, !dbg !1932
  store i32 %add, i32* %x_accum, align 4, !dbg !1932, !tbaa !1471
  %call2 = call addrspace(1) i32 @_ZN5Point4getYEv(%class.Point* nonnull dereferenceable(12) %point) #27, !dbg !1933
  %y_accum = getelementptr inbounds %class.Cluster, %class.Cluster* %this, i32 0, i32 4, !dbg !1934
  %1 = load i32, i32* %y_accum, align 4, !dbg !1935, !tbaa !1474
  %add3 = add nsw i32 %1, %call2, !dbg !1935
  store i32 %add3, i32* %y_accum, align 4, !dbg !1935, !tbaa !1474
  %numPoints = getelementptr inbounds %class.Cluster, %class.Cluster* %this, i32 0, i32 2, !dbg !1936
  %2 = load i32, i32* %numPoints, align 4, !dbg !1937, !tbaa !1468
  %inc = add nsw i32 %2, 1, !dbg !1937
  store i32 %inc, i32* %numPoints, align 4, !dbg !1937, !tbaa !1468
  ret void, !dbg !1938
}

; Function Attrs: alwaysinline nounwind mustprogress
define linkonce_odr dso_local void @_ZN7Cluster17updateCoordinatesEv(%class.Cluster* nonnull dereferenceable(20) %this) addrspace(1) #9 comdat align 2 !dbg !1939 {
entry:
  call addrspace(1) void @llvm.dbg.value(metadata %class.Cluster* %this, metadata !1941, metadata !DIExpression()), !dbg !1942
  %x_accum = getelementptr inbounds %class.Cluster, %class.Cluster* %this, i32 0, i32 3, !dbg !1943
  %0 = load i32, i32* %x_accum, align 4, !dbg !1943, !tbaa !1471
  %numPoints = getelementptr inbounds %class.Cluster, %class.Cluster* %this, i32 0, i32 2, !dbg !1944
  %1 = load i32, i32* %numPoints, align 4, !dbg !1944, !tbaa !1468
  %div = sdiv i32 %0, %1, !dbg !1945
  %x = getelementptr inbounds %class.Cluster, %class.Cluster* %this, i32 0, i32 0, !dbg !1946
  store i32 %div, i32* %x, align 4, !dbg !1947, !tbaa !1461
  %y_accum = getelementptr inbounds %class.Cluster, %class.Cluster* %this, i32 0, i32 4, !dbg !1948
  %2 = load i32, i32* %y_accum, align 4, !dbg !1948, !tbaa !1474
  %numPoints2 = getelementptr inbounds %class.Cluster, %class.Cluster* %this, i32 0, i32 2, !dbg !1949
  %3 = load i32, i32* %numPoints2, align 4, !dbg !1949, !tbaa !1468
  %div3 = sdiv i32 %2, %3, !dbg !1950
  %y = getelementptr inbounds %class.Cluster, %class.Cluster* %this, i32 0, i32 1, !dbg !1951
  store i32 %div3, i32* %y, align 4, !dbg !1952, !tbaa !1465
  ret void, !dbg !1953
}

; Function Attrs: alwaysinline nounwind mustprogress
define linkonce_odr dso_local i32 @_ZN7Cluster4getXEv(%class.Cluster* nonnull dereferenceable(20) %this) addrspace(1) #9 comdat align 2 !dbg !1954 {
entry:
  call addrspace(1) void @llvm.dbg.value(metadata %class.Cluster* %this, metadata !1956, metadata !DIExpression()), !dbg !1957
  %x = getelementptr inbounds %class.Cluster, %class.Cluster* %this, i32 0, i32 0, !dbg !1958
  %0 = load i32, i32* %x, align 4, !dbg !1958, !tbaa !1461
  ret i32 %0, !dbg !1959
}

; Function Attrs: alwaysinline nounwind mustprogress
define linkonce_odr dso_local %"class.aie::detail::vector_elem_ref.2" @_ZN3aie6detail6vectorIiLj8EEixEj(%"class.aie::detail::vector.1"* nonnull dereferenceable(32) %this, i32 %idx) addrspace(1) #9 comdat align 2 !dbg !1960 {
entry:
  %retval = alloca %"class.aie::detail::vector_elem_ref.2", align 4
  call addrspace(1) void @llvm.dbg.value(metadata %"class.aie::detail::vector.1"* %this, metadata !1962, metadata !DIExpression()), !dbg !1965
  call addrspace(1) void @llvm.dbg.value(metadata i32 %idx, metadata !1964, metadata !DIExpression()), !dbg !1965
  %cmp = icmp ult i32 %idx, 8, !dbg !1966
  %0 = call addrspace(1) i1 @llvm.is.constant.i1(i1 %cmp), !dbg !1966
  br i1 %0, label %do.body, label %if.end4, !dbg !1968

do.body:                                          ; preds = %entry
  %cmp2 = icmp ult i32 %idx, 8, !dbg !1969
  %1 = call addrspace(1) i1 @llvm.chess_manifest(i1 %cmp2), !dbg !1969
  br i1 %1, label %if.end4, label %if.then3, !dbg !1973

if.then3:                                         ; preds = %do.body
  call addrspace(1) void @llvm.chess_error(metadata !1399), !dbg !1969
  unreachable, !dbg !1969

if.end4:                                          ; preds = %do.body, %entry
  %cmp5 = icmp ult i32 %idx, 8, !dbg !1968
  call addrspace(1) void @llvm.assume(i1 %cmp5), !dbg !1968
  %call = call addrspace(1) %"class.aie::detail::vector_elem_ref.2" @_ZN3aie6detail6vectorIiLj8EE8elem_refEj(%"class.aie::detail::vector.1"* nonnull dereferenceable(32) %this, i32 %idx) #27, !dbg !1974
  %2 = getelementptr inbounds %"class.aie::detail::vector_elem_ref.2", %"class.aie::detail::vector_elem_ref.2"* %retval, i32 0, i32 0, !dbg !1974
  %3 = extractvalue %"class.aie::detail::vector_elem_ref.2" %call, 0, !dbg !1974
  store %"class.aie::detail::vector.1"* %3, %"class.aie::detail::vector.1"** %2, align 4, !dbg !1974
  %4 = getelementptr inbounds %"class.aie::detail::vector_elem_ref.2", %"class.aie::detail::vector_elem_ref.2"* %retval, i32 0, i32 1, !dbg !1974
  %5 = extractvalue %"class.aie::detail::vector_elem_ref.2" %call, 1, !dbg !1974
  store i32 %5, i32* %4, align 4, !dbg !1974
  %6 = load %"class.aie::detail::vector_elem_ref.2", %"class.aie::detail::vector_elem_ref.2"* %retval, align 4, !dbg !1975
  ret %"class.aie::detail::vector_elem_ref.2" %6, !dbg !1975
}

; Function Attrs: alwaysinline nounwind mustprogress
define linkonce_odr dso_local nonnull align 4 dereferenceable(8) %"class.aie::detail::vector_elem_ref.2"* @_ZN3aie6detail15vector_elem_refIiLj8EEaSERKi(%"class.aie::detail::vector_elem_ref.2"* nonnull dereferenceable(8) %this, i32* nonnull align 4 dereferenceable(4) %v) addrspace(1) #9 comdat align 2 !dbg !1976 {
entry:
  call addrspace(1) void @llvm.dbg.value(metadata %"class.aie::detail::vector_elem_ref.2"* %this, metadata !1978, metadata !DIExpression()), !dbg !1981
  call addrspace(1) void @llvm.dbg.value(metadata i32* %v, metadata !1980, metadata !DIExpression()), !dbg !1981
  %parent = getelementptr inbounds %"class.aie::detail::vector_elem_ref.2", %"class.aie::detail::vector_elem_ref.2"* %this, i32 0, i32 0, !dbg !1982
  %0 = load %"class.aie::detail::vector.1"*, %"class.aie::detail::vector.1"** %parent, align 4, !dbg !1982, !tbaa !1983
  %1 = load i32, i32* %v, align 4, !dbg !1986, !tbaa !1328
  %offset = getelementptr inbounds %"class.aie::detail::vector_elem_ref.2", %"class.aie::detail::vector_elem_ref.2"* %this, i32 0, i32 1, !dbg !1987
  %2 = load i32, i32* %offset, align 4, !dbg !1987, !tbaa !1988
  call addrspace(1) void @_ZN3aie6detail6vectorIiLj8EE3setEij(%"class.aie::detail::vector.1"* nonnull dereferenceable(32) %0, i32 %1, i32 %2) #27, !dbg !1989
  ret %"class.aie::detail::vector_elem_ref.2"* %this, !dbg !1990
}

; Function Attrs: alwaysinline nounwind mustprogress
define linkonce_odr dso_local i32 @_ZN7Cluster4getYEv(%class.Cluster* nonnull dereferenceable(20) %this) addrspace(1) #9 comdat align 2 !dbg !1991 {
entry:
  call addrspace(1) void @llvm.dbg.value(metadata %class.Cluster* %this, metadata !1993, metadata !DIExpression()), !dbg !1994
  %y = getelementptr inbounds %class.Cluster, %class.Cluster* %this, i32 0, i32 1, !dbg !1995
  %0 = load i32, i32* %y, align 4, !dbg !1995, !tbaa !1465
  ret i32 %0, !dbg !1996
}

; Function Attrs: argmemonly nounwind speculatable willreturn
declare %struct.output_stream.2* @llvm.noalias.p0s_struct.output_streams.p0i8.p0p0s_struct.output_streams.i32(%struct.output_stream.2*, i8*, %struct.output_stream.2**, i32, metadata) addrspace(1) #15

; Function Attrs: argmemonly nounwind speculatable willreturn
declare %struct.output_stream.2* @llvm.noalias.p0s_struct.output_stream.2s.p0i8.p0p0s_struct.output_stream.2s.i32(%struct.output_stream.2*, i8*, %struct.output_stream.2**, i32, metadata) addrspace(1) #15

; Function Attrs: alwaysinline nounwind mustprogress
define linkonce_odr dso_local %"class.aie::detail::vector.3" @_ZN3aie5zerosIiLj16EEENS_6detail6vectorIT_XT0_EEEv() addrspace(1) #9 comdat !dbg !1997 {
entry:
  %retval = alloca %"class.aie::detail::vector.3", align 32
  %call = call addrspace(1) %"class.aie::detail::vector.3" @_ZN3aie6detail5zerosIiLj16EEENS0_6vectorIT_XT0_EEEv() #27, !dbg !2000
  %0 = getelementptr inbounds %"class.aie::detail::vector.3", %"class.aie::detail::vector.3"* %retval, i32 0, i32 0, !dbg !2000
  %1 = extractvalue %"class.aie::detail::vector.3" %call, 0, !dbg !2000
  store %struct.v16int32 %1, %struct.v16int32* %0, align 32, !dbg !2000
  %2 = load %"class.aie::detail::vector.3", %"class.aie::detail::vector.3"* %retval, align 32, !dbg !2001
  ret %"class.aie::detail::vector.3" %2, !dbg !2001
}

; Function Attrs: alwaysinline nounwind mustprogress
define linkonce_odr dso_local %"class.aie::detail::vector_elem_ref.4" @_ZN3aie6detail6vectorIiLj16EEixEj(%"class.aie::detail::vector.3"* nonnull dereferenceable(64) %this, i32 %idx) addrspace(1) #9 comdat align 2 !dbg !2002 {
entry:
  %retval = alloca %"class.aie::detail::vector_elem_ref.4", align 4
  call addrspace(1) void @llvm.dbg.value(metadata %"class.aie::detail::vector.3"* %this, metadata !2004, metadata !DIExpression()), !dbg !2007
  call addrspace(1) void @llvm.dbg.value(metadata i32 %idx, metadata !2006, metadata !DIExpression()), !dbg !2007
  %cmp = icmp ult i32 %idx, 16, !dbg !2008
  %0 = call addrspace(1) i1 @llvm.is.constant.i1(i1 %cmp), !dbg !2008
  br i1 %0, label %do.body, label %if.end4, !dbg !2010

do.body:                                          ; preds = %entry
  %cmp2 = icmp ult i32 %idx, 16, !dbg !2011
  %1 = call addrspace(1) i1 @llvm.chess_manifest(i1 %cmp2), !dbg !2011
  br i1 %1, label %if.end4, label %if.then3, !dbg !2015

if.then3:                                         ; preds = %do.body
  call addrspace(1) void @llvm.chess_error(metadata !1399), !dbg !2011
  unreachable, !dbg !2011

if.end4:                                          ; preds = %do.body, %entry
  %cmp5 = icmp ult i32 %idx, 16, !dbg !2010
  call addrspace(1) void @llvm.assume(i1 %cmp5), !dbg !2010
  %call = call addrspace(1) %"class.aie::detail::vector_elem_ref.4" @_ZN3aie6detail6vectorIiLj16EE8elem_refEj(%"class.aie::detail::vector.3"* nonnull dereferenceable(64) %this, i32 %idx) #27, !dbg !2016
  %2 = getelementptr inbounds %"class.aie::detail::vector_elem_ref.4", %"class.aie::detail::vector_elem_ref.4"* %retval, i32 0, i32 0, !dbg !2016
  %3 = extractvalue %"class.aie::detail::vector_elem_ref.4" %call, 0, !dbg !2016
  store %"class.aie::detail::vector.3"* %3, %"class.aie::detail::vector.3"** %2, align 4, !dbg !2016
  %4 = getelementptr inbounds %"class.aie::detail::vector_elem_ref.4", %"class.aie::detail::vector_elem_ref.4"* %retval, i32 0, i32 1, !dbg !2016
  %5 = extractvalue %"class.aie::detail::vector_elem_ref.4" %call, 1, !dbg !2016
  store i32 %5, i32* %4, align 4, !dbg !2016
  %6 = load %"class.aie::detail::vector_elem_ref.4", %"class.aie::detail::vector_elem_ref.4"* %retval, align 4, !dbg !2017
  ret %"class.aie::detail::vector_elem_ref.4" %6, !dbg !2017
}

; Function Attrs: alwaysinline nounwind mustprogress
define linkonce_odr dso_local nonnull align 4 dereferenceable(8) %"class.aie::detail::vector_elem_ref.4"* @_ZN3aie6detail15vector_elem_refIiLj16EEaSERKi(%"class.aie::detail::vector_elem_ref.4"* nonnull dereferenceable(8) %this, i32* nonnull align 4 dereferenceable(4) %v) addrspace(1) #9 comdat align 2 !dbg !2018 {
entry:
  call addrspace(1) void @llvm.dbg.value(metadata %"class.aie::detail::vector_elem_ref.4"* %this, metadata !2020, metadata !DIExpression()), !dbg !2023
  call addrspace(1) void @llvm.dbg.value(metadata i32* %v, metadata !2022, metadata !DIExpression()), !dbg !2023
  %parent = getelementptr inbounds %"class.aie::detail::vector_elem_ref.4", %"class.aie::detail::vector_elem_ref.4"* %this, i32 0, i32 0, !dbg !2024
  %0 = load %"class.aie::detail::vector.3"*, %"class.aie::detail::vector.3"** %parent, align 4, !dbg !2024, !tbaa !2025
  %1 = load i32, i32* %v, align 4, !dbg !2027, !tbaa !1328
  %offset = getelementptr inbounds %"class.aie::detail::vector_elem_ref.4", %"class.aie::detail::vector_elem_ref.4"* %this, i32 0, i32 1, !dbg !2028
  %2 = load i32, i32* %offset, align 4, !dbg !2028, !tbaa !2029
  call addrspace(1) void @_ZN3aie6detail6vectorIiLj16EE3setEij(%"class.aie::detail::vector.3"* nonnull dereferenceable(64) %0, i32 %1, i32 %2) #27, !dbg !2030
  ret %"class.aie::detail::vector_elem_ref.4"* %this, !dbg !2031
}

; Function Attrs: alwaysinline nounwind mustprogress
define linkonce_odr dso_local nonnull align 4 dereferenceable(8) %"class.aie::detail::vector_elem_ref"* @_ZN3aie6detail15vector_elem_refIiLj4EEaSERKi(%"class.aie::detail::vector_elem_ref"* nonnull dereferenceable(8) %this, i32* nonnull align 4 dereferenceable(4) %v) addrspace(1) #9 comdat align 2 !dbg !2032 {
entry:
  call addrspace(1) void @llvm.dbg.value(metadata %"class.aie::detail::vector_elem_ref"* %this, metadata !2034, metadata !DIExpression()), !dbg !2037
  call addrspace(1) void @llvm.dbg.value(metadata i32* %v, metadata !2036, metadata !DIExpression()), !dbg !2037
  %parent = getelementptr inbounds %"class.aie::detail::vector_elem_ref", %"class.aie::detail::vector_elem_ref"* %this, i32 0, i32 0, !dbg !2038
  %0 = load %"class.aie::detail::vector"*, %"class.aie::detail::vector"** %parent, align 4, !dbg !2038, !tbaa !2039
  %1 = load i32, i32* %v, align 4, !dbg !2041, !tbaa !1328
  %offset = getelementptr inbounds %"class.aie::detail::vector_elem_ref", %"class.aie::detail::vector_elem_ref"* %this, i32 0, i32 1, !dbg !2042
  %2 = load i32, i32* %offset, align 4, !dbg !2042, !tbaa !2043
  call addrspace(1) void @_ZN3aie6detail6vectorIiLj4EE3setEij(%"class.aie::detail::vector"* nonnull dereferenceable(16) %0, i32 %1, i32 %2) #27, !dbg !2044
  ret %"class.aie::detail::vector_elem_ref"* %this, !dbg !2045
}

; Function Attrs: alwaysinline nounwind mustprogress
define linkonce_odr dso_local %"class.aie::detail::vector" @_ZNK3aie6detail6vectorIiLj4EE7extractILj4EEENS1_IiXT_EEEj(%"class.aie::detail::vector"* nonnull dereferenceable(16) %this, i32 %idx) addrspace(1) #9 comdat align 2 !dbg !2046 {
entry:
  call addrspace(1) void @llvm.dbg.value(metadata %"class.aie::detail::vector"* %this, metadata !2053, metadata !DIExpression()), !dbg !2057
  call addrspace(1) void @llvm.dbg.value(metadata i32 %idx, metadata !2055, metadata !DIExpression()), !dbg !2057
  %cmp = icmp ult i32 %idx, 1, !dbg !2058
  %0 = call addrspace(1) i1 @llvm.is.constant.i1(i1 %cmp), !dbg !2058
  br i1 %0, label %do.body, label %if.end4, !dbg !2060

do.body:                                          ; preds = %entry
  %cmp2 = icmp ult i32 %idx, 1, !dbg !2061
  %1 = call addrspace(1) i1 @llvm.chess_manifest(i1 %cmp2), !dbg !2061
  br i1 %1, label %if.end4, label %if.then3, !dbg !2065

if.then3:                                         ; preds = %do.body
  call addrspace(1) void @llvm.chess_error(metadata !2066), !dbg !2061
  unreachable, !dbg !2061

if.end4:                                          ; preds = %do.body, %entry
  %cmp5 = icmp ult i32 %idx, 1, !dbg !2060
  call addrspace(1) void @llvm.assume(i1 %cmp5), !dbg !2060
  call addrspace(1) void @llvm.dbg.value(metadata i32 undef, metadata !2056, metadata !DIExpression()), !dbg !2057
  call addrspace(1) void @llvm.dbg.value(metadata i32 128, metadata !2056, metadata !DIExpression()), !dbg !2057
  %2 = load %"class.aie::detail::vector", %"class.aie::detail::vector"* %this, align 16, !dbg !2067, !tbaa !2070
  ret %"class.aie::detail::vector" %2, !dbg !2067
}

; Function Attrs: alwaysinline nounwind mustprogress
define linkonce_odr dso_local %struct.v4int32 @_ZNK3aie6detail6vectorIiLj4EEcv7v4int32Ev(%"class.aie::detail::vector"* nonnull dereferenceable(16) %this) addrspace(1) #9 comdat align 2 !dbg !2073 {
entry:
  %retval = alloca %struct.v4int32, align 16
  call addrspace(1) void @llvm.dbg.value(metadata %"class.aie::detail::vector"* %this, metadata !2075, metadata !DIExpression()), !dbg !2076
  %call = call addrspace(1) %struct.v4int32 @_ZNK3aie6detail6vectorIiLj4EE9to_nativeEv(%"class.aie::detail::vector"* nonnull dereferenceable(16) %this) #27, !dbg !2077
  %0 = getelementptr inbounds %struct.v4int32, %struct.v4int32* %retval, i32 0, i32 0, !dbg !2077
  %1 = extractvalue %struct.v4int32 %call, 0, !dbg !2077
  store %struct.ipd.custom_type.v16int8.v16int8 %1, %struct.ipd.custom_type.v16int8.v16int8* %0, align 16, !dbg !2077
  %2 = load %struct.v4int32, %struct.v4int32* %retval, align 16, !dbg !2078
  ret %struct.v4int32 %2, !dbg !2078
}

; Function Attrs: alwaysinline nounwind mustprogress
define linkonce_odr dso_local %struct.v8int16 @_Z10as_v8int167v4int32(%struct.v4int32 %a.coerce) addrspace(1) #9 comdat {
entry:
  %a = alloca %struct.v4int32, align 16
  %custom_type.tmp = alloca %struct.v8int16, align 16
  store %struct.v4int32 %a.coerce, %struct.v4int32* %a, align 16
  %mw = getelementptr inbounds %struct.v4int32, %struct.v4int32* %a, i32 0, i32 0
  %0 = load %struct.ipd.custom_type.v16int8.v16int8, %struct.ipd.custom_type.v16int8.v16int8* %mw, align 16, !tbaa !2079
  call addrspace(1) void @_ZN7v8int16C2E17chessllvmInternal7v16int8(%struct.v8int16* nonnull dereferenceable(16) %custom_type.tmp, i32 0, %struct.ipd.custom_type.v16int8.v16int8 %0) #27
  %1 = load %struct.v8int16, %struct.v8int16* %custom_type.tmp, align 16, !tbaa !2079
  ret %struct.v8int16 %1
}

; Function Attrs: alwaysinline nounwind mustprogress
define linkonce_odr dso_local void @_Z7put_wmsi7v8int16i(i32 %idx_ms, %struct.v8int16 %a.coerce, i32 %tlast) addrspace(1) #16 comdat {
entry:
  %agg.tmp = alloca %struct.v4int32, align 16
  %call = call addrspace(1) %struct.v4int32 @_Z10as_v4int327v8int16(%struct.v8int16 %a.coerce) #27
  %0 = getelementptr inbounds %struct.v4int32, %struct.v4int32* %agg.tmp, i32 0, i32 0
  %1 = extractvalue %struct.v4int32 %call, 0
  store %struct.ipd.custom_type.v16int8.v16int8 %1, %struct.ipd.custom_type.v16int8.v16int8* %0, align 16
  %2 = load %struct.v4int32, %struct.v4int32* %agg.tmp, align 16, !tbaa !2079
  call addrspace(1) void @_Z7put_wmsi7v4int32i(i32 0, %struct.v4int32 %2, i32 %tlast) #31
  ret void
}

; Function Attrs: alwaysinline nounwind mustprogress
define linkonce_odr dso_local %struct.v4int32 @_Z10as_v4int327v8int16(%struct.v8int16 %a.coerce) addrspace(1) #9 comdat {
entry:
  %a = alloca %struct.v8int16, align 16
  %custom_type.tmp = alloca %struct.v4int32, align 16
  store %struct.v8int16 %a.coerce, %struct.v8int16* %a, align 16
  %mw = getelementptr inbounds %struct.v8int16, %struct.v8int16* %a, i32 0, i32 0
  %0 = load %struct.ipd.custom_type.v16int8.v16int8, %struct.ipd.custom_type.v16int8.v16int8* %mw, align 16, !tbaa !2079
  call addrspace(1) void @_ZN7v4int32C2E17chessllvmInternal7v16int8(%struct.v4int32* nonnull dereferenceable(16) %custom_type.tmp, i32 0, %struct.ipd.custom_type.v16int8.v16int8 %0) #27
  %1 = load %struct.v4int32, %struct.v4int32* %custom_type.tmp, align 16, !tbaa !2079
  ret %struct.v4int32 %1
}

; Function Attrs: alwaysinline nounwind mustprogress
define linkonce_odr dso_local void @_Z7put_wmsi7v4int32i(i32 %idx_ms, %struct.v4int32 %val.coerce, i32 %tlast) addrspace(1) #17 comdat {
entry:
  %custom_type.tmp = alloca %struct.ipd.custom_type.uint1_t.uint1_t, align 4
  %custom_type.tmp2 = alloca %struct.ipd.custom_type.uint1_t.uint1_t, align 4
  %custom_type.tmp6 = alloca %struct.ipd.custom_type.uint1_t.uint1_t, align 4
  %custom_type.tmp8 = alloca %struct.ipd.custom_type.uint1_t.uint1_t, align 4
  %custom_type.tmp11 = alloca %struct.ipd.custom_type.uint1_t.uint1_t, align 4
  %custom_type.tmp13 = alloca %struct.ipd.custom_type.uint1_t.uint1_t, align 4
  %cmp = icmp eq i32 %idx_ms, 0
  %0 = call addrspace(1) i1 @llvm.chess_manifest(i1 %cmp)
  br i1 %0, label %if.then, label %if.else

if.then:                                          ; preds = %entry
  call addrspace(1) void @_ZN7uint1_tC2Ei(%struct.ipd.custom_type.uint1_t.uint1_t* nonnull dereferenceable(1) %custom_type.tmp, i32 0) #27
  %1 = load %struct.ipd.custom_type.uint1_t.uint1_t, %struct.ipd.custom_type.uint1_t.uint1_t* %custom_type.tmp, align 4, !tbaa !2080
  call addrspace(1) void @_ZN7uint1_tC2Ei(%struct.ipd.custom_type.uint1_t.uint1_t* nonnull dereferenceable(1) %custom_type.tmp2, i32 %tlast) #27
  %2 = load %struct.ipd.custom_type.uint1_t.uint1_t, %struct.ipd.custom_type.uint1_t.uint1_t* %custom_type.tmp2, align 4, !tbaa !2080
  call addrspace(1) void @_ZN12me_primitive15stream_write128EPU4AS23U16__protect_accessi7v4int327uint1_tS3_(i32 addrspace(23)* @_ZN12me_primitive3ms0E, %struct.v4int32 %val.coerce, %struct.ipd.custom_type.uint1_t.uint1_t %1, %struct.ipd.custom_type.uint1_t.uint1_t %2) #32
  br label %if.end14

if.else:                                          ; preds = %entry
  %cmp3 = icmp eq i32 %idx_ms, 1
  %3 = call addrspace(1) i1 @llvm.chess_manifest(i1 %cmp3)
  br i1 %3, label %if.then4, label %if.else9

if.then4:                                         ; preds = %if.else
  call addrspace(1) void @_ZN7uint1_tC2Ei(%struct.ipd.custom_type.uint1_t.uint1_t* nonnull dereferenceable(1) %custom_type.tmp6, i32 0) #27
  %4 = load %struct.ipd.custom_type.uint1_t.uint1_t, %struct.ipd.custom_type.uint1_t.uint1_t* %custom_type.tmp6, align 4, !tbaa !2080
  call addrspace(1) void @_ZN7uint1_tC2Ei(%struct.ipd.custom_type.uint1_t.uint1_t* nonnull dereferenceable(1) %custom_type.tmp8, i32 %tlast) #27
  %5 = load %struct.ipd.custom_type.uint1_t.uint1_t, %struct.ipd.custom_type.uint1_t.uint1_t* %custom_type.tmp8, align 4, !tbaa !2080
  call addrspace(1) void @_ZN12me_primitive15stream_write128EPU4AS24U16__protect_accessi7v4int327uint1_tS3_(i32 addrspace(24)* @_ZN12me_primitive3ms1E, %struct.v4int32 %val.coerce, %struct.ipd.custom_type.uint1_t.uint1_t %4, %struct.ipd.custom_type.uint1_t.uint1_t %5) #32
  br label %if.end14

if.else9:                                         ; preds = %if.else
  %conv = trunc i32 %idx_ms to i1
  %6 = inttoptr i1 %conv to i32 addrspace(12)*
  call addrspace(1) void @_ZN7uint1_tC2Ei(%struct.ipd.custom_type.uint1_t.uint1_t* nonnull dereferenceable(1) %custom_type.tmp11, i32 0) #27
  %7 = load %struct.ipd.custom_type.uint1_t.uint1_t, %struct.ipd.custom_type.uint1_t.uint1_t* %custom_type.tmp11, align 4, !tbaa !2080
  call addrspace(1) void @_ZN7uint1_tC2Ei(%struct.ipd.custom_type.uint1_t.uint1_t* nonnull dereferenceable(1) %custom_type.tmp13, i32 %tlast) #27
  %8 = load %struct.ipd.custom_type.uint1_t.uint1_t, %struct.ipd.custom_type.uint1_t.uint1_t* %custom_type.tmp13, align 4, !tbaa !2080
  call addrspace(1) void @_ZN12me_primitive15stream_write128EPU4AS12U16__protect_accessi7v4int327uint1_tS3_(i32 addrspace(12)* %6, %struct.v4int32 %val.coerce, %struct.ipd.custom_type.uint1_t.uint1_t %7, %struct.ipd.custom_type.uint1_t.uint1_t %8) #32
  br label %if.end14

if.end14:                                         ; preds = %if.then4, %if.else9, %if.then
  ret void
}

; Function Attrs: nounwind readnone willreturn
declare i1 @llvm.chess_manifest(i1) addrspace(1) #14

; Function Attrs: alwaysinline nounwind
define linkonce_odr dso_local void @_ZN7uint1_tC2Ei(%struct.ipd.custom_type.uint1_t.uint1_t* nonnull dereferenceable(1) %this, i32 %a) unnamed_addr addrspace(1) #11 comdat align 2 {
entry:
  %0 = bitcast %struct.ipd.custom_type.uint1_t.uint1_t* %this to i8*
  %bf.load = load i8, i8* %0, align 4
  %bf.clear = and i8 %bf.load, -2
  store i8 %bf.clear, i8* %0, align 4
  %1 = call addrspace(1) %struct.ipd.custom_type.uint1_t.uint1_t @llvm.chess.init.customint.s_struct.ipd.custom_type.uint1_t.uint1_ts.i32.p1f_s_struct.ipd.custom_type.uint1_t.uint1_tsi32f(%struct.ipd.custom_type.uint1_t.uint1_t undef, i32 %a, i32 1, i32 32, i1 true, i32 0, %struct.ipd.custom_type.uint1_t.uint1_t (i32) addrspace(1)* @__regcall3__chessintr_uint1_t_uint1_t___sint)
  store %struct.ipd.custom_type.uint1_t.uint1_t %1, %struct.ipd.custom_type.uint1_t.uint1_t* %this, align 4
  ret void
}

; Function Attrs: alwaysinline nounwind mustprogress
define linkonce_odr dso_local void @_ZN12me_primitive15stream_write128EPU4AS23U16__protect_accessi7v4int327uint1_tS3_(i32 addrspace(23)* %a0, %struct.v4int32 %a1.coerce, %struct.ipd.custom_type.uint1_t.uint1_t %a2.coerce, %struct.ipd.custom_type.uint1_t.uint1_t %a3.coerce) addrspace(1) #10 comdat {
entry:
  call x86_regcallcc addrspace(1) void @__regcall3__chessintr_void_stream_write128___PWMS_rsrc1__sint_v4int32_uint1_t_uint1_t(i32 addrspace(23)* "ipd_store"="0,4" @_ZN12me_primitive3ms0E, %struct.v4int32 %a1.coerce, %struct.ipd.custom_type.uint1_t.uint1_t %a2.coerce, %struct.ipd.custom_type.uint1_t.uint1_t %a3.coerce) #33
  ret void
}

; Function Attrs: alwaysinline nounwind mustprogress
define linkonce_odr dso_local void @_ZN12me_primitive15stream_write128EPU4AS24U16__protect_accessi7v4int327uint1_tS3_(i32 addrspace(24)* %a0, %struct.v4int32 %a1.coerce, %struct.ipd.custom_type.uint1_t.uint1_t %a2.coerce, %struct.ipd.custom_type.uint1_t.uint1_t %a3.coerce) addrspace(1) #10 comdat {
entry:
  call x86_regcallcc addrspace(1) void @__regcall3__chessintr_void_stream_write128___PWMS_rsrc2__sint_v4int32_uint1_t_uint1_t(i32 addrspace(24)* "ipd_store"="0,4" @_ZN12me_primitive3ms1E, %struct.v4int32 %a1.coerce, %struct.ipd.custom_type.uint1_t.uint1_t %a2.coerce, %struct.ipd.custom_type.uint1_t.uint1_t %a3.coerce) #33
  ret void
}

; Function Attrs: alwaysinline nounwind mustprogress
define linkonce_odr dso_local void @_ZN12me_primitive15stream_write128EPU4AS12U16__protect_accessi7v4int327uint1_tS3_(i32 addrspace(12)* %a0, %struct.v4int32 %a1.coerce, %struct.ipd.custom_type.uint1_t.uint1_t %a2.coerce, %struct.ipd.custom_type.uint1_t.uint1_t %a3.coerce) addrspace(1) #10 comdat {
entry:
  call x86_regcallcc addrspace(1) void @__regcall3__chessintr_void_stream_write128___PWMSMEM__sint_v4int32_uint1_t_uint1_t(i32 addrspace(12)* "ipd_store"="0,4" %a0, %struct.v4int32 %a1.coerce, %struct.ipd.custom_type.uint1_t.uint1_t %a2.coerce, %struct.ipd.custom_type.uint1_t.uint1_t %a3.coerce) #33
  ret void
}

; Function Attrs: argmemonly nounwind
declare dso_local x86_regcallcc void @__regcall3__chessintr_void_stream_write128___PWMSMEM__sint_v4int32_uint1_t_uint1_t(i32 addrspace(12)* "ipd_store"="0,4", %struct.v4int32, %struct.ipd.custom_type.uint1_t.uint1_t, %struct.ipd.custom_type.uint1_t.uint1_t) addrspace(1) #18

; Function Attrs: argmemonly nounwind
declare dso_local x86_regcallcc void @__regcall3__chessintr_void_stream_write128___PWMS_rsrc2__sint_v4int32_uint1_t_uint1_t(i32 addrspace(24)* "ipd_store"="0,4", %struct.v4int32, %struct.ipd.custom_type.uint1_t.uint1_t, %struct.ipd.custom_type.uint1_t.uint1_t) addrspace(1) #18

; Function Attrs: argmemonly nounwind
declare dso_local x86_regcallcc void @__regcall3__chessintr_void_stream_write128___PWMS_rsrc1__sint_v4int32_uint1_t_uint1_t(i32 addrspace(23)* "ipd_store"="0,4", %struct.v4int32, %struct.ipd.custom_type.uint1_t.uint1_t, %struct.ipd.custom_type.uint1_t.uint1_t) addrspace(1) #18

; Function Attrs: nounwind readnone willreturn
declare dso_local x86_regcallcc %struct.ipd.custom_type.uint1_t.uint1_t @__regcall3__chessintr_uint1_t_uint1_t___sint(i32 signext) addrspace(1) #13

; Function Attrs: nounwind readnone willreturn
declare %struct.ipd.custom_type.uint1_t.uint1_t @llvm.chess.init.customint.s_struct.ipd.custom_type.uint1_t.uint1_ts.i32.p1f_s_struct.ipd.custom_type.uint1_t.uint1_tsi32f(%struct.ipd.custom_type.uint1_t.uint1_t, i32, i32, i32, i1, i32, %struct.ipd.custom_type.uint1_t.uint1_t (i32) addrspace(1)*) addrspace(1) #14

; Function Attrs: alwaysinline nounwind
define linkonce_odr dso_local void @_ZN7v4int32C2E17chessllvmInternal7v16int8(%struct.v4int32* nonnull dereferenceable(16) %this, i32 %0, %struct.ipd.custom_type.v16int8.v16int8 %aw.coerce) unnamed_addr addrspace(1) #11 comdat align 2 !dbg !2082 {
entry:
  call addrspace(1) void @llvm.dbg.value(metadata %struct.ipd.custom_type.v16int8.v16int8 %aw.coerce, metadata !2109, metadata !DIExpression()), !dbg !2110
  call addrspace(1) void @llvm.dbg.value(metadata %struct.v4int32* %this, metadata !2106, metadata !DIExpression()), !dbg !2110
  call addrspace(1) void @llvm.dbg.value(metadata i32 0, metadata !2108, metadata !DIExpression()), !dbg !2110
  %mw = getelementptr inbounds %struct.v4int32, %struct.v4int32* %this, i32 0, i32 0, !dbg !2111
  store %struct.ipd.custom_type.v16int8.v16int8 %aw.coerce, %struct.ipd.custom_type.v16int8.v16int8* %mw, align 16, !dbg !2112, !tbaa !2079
  ret void, !dbg !2113
}

; Function Attrs: alwaysinline nounwind
define linkonce_odr dso_local void @_ZN7v8int16C2E17chessllvmInternal7v16int8(%struct.v8int16* nonnull dereferenceable(16) %this, i32 %0, %struct.ipd.custom_type.v16int8.v16int8 %aw.coerce) unnamed_addr addrspace(1) #11 comdat align 2 !dbg !2114 {
entry:
  call addrspace(1) void @llvm.dbg.value(metadata %struct.ipd.custom_type.v16int8.v16int8 %aw.coerce, metadata !2139, metadata !DIExpression()), !dbg !2140
  call addrspace(1) void @llvm.dbg.value(metadata %struct.v8int16* %this, metadata !2136, metadata !DIExpression()), !dbg !2140
  call addrspace(1) void @llvm.dbg.value(metadata i32 0, metadata !2138, metadata !DIExpression()), !dbg !2140
  %mw = getelementptr inbounds %struct.v8int16, %struct.v8int16* %this, i32 0, i32 0, !dbg !2141
  store %struct.ipd.custom_type.v16int8.v16int8 %aw.coerce, %struct.ipd.custom_type.v16int8.v16int8* %mw, align 16, !dbg !2142, !tbaa !2079
  ret void, !dbg !2143
}

; Function Attrs: alwaysinline nounwind mustprogress
define linkonce_odr dso_local %struct.v4int32 @_ZNK3aie6detail6vectorIiLj4EE9to_nativeEv(%"class.aie::detail::vector"* nonnull dereferenceable(16) %this) addrspace(1) #9 comdat align 2 !dbg !2144 {
entry:
  call addrspace(1) void @llvm.dbg.value(metadata %"class.aie::detail::vector"* %this, metadata !2152, metadata !DIExpression()), !dbg !2153
  %data = getelementptr inbounds %"class.aie::detail::vector", %"class.aie::detail::vector"* %this, i32 0, i32 0, !dbg !2154
  %0 = load %struct.v4int32, %struct.v4int32* %data, align 16, !dbg !2154, !tbaa !2079
  ret %struct.v4int32 %0, !dbg !2154
}

; Function Attrs: convergent nofree nosync nounwind readnone willreturn
declare i1 @llvm.is.constant.i1(i1) addrspace(1) #19

; Function Attrs: noreturn nounwind
declare void @llvm.chess_error(metadata) addrspace(1) #20

; Function Attrs: nofree nosync nounwind willreturn
declare void @llvm.assume(i1 noundef) addrspace(1) #21

; Function Attrs: alwaysinline nounwind mustprogress
define linkonce_odr dso_local void @_ZN3aie6detail6vectorIiLj4EE3setEij(%"class.aie::detail::vector"* nonnull dereferenceable(16) %this, i32 %v, i32 %idx) addrspace(1) #9 comdat align 2 !dbg !2156 {
entry:
  %tmp = alloca %struct.v4int32, align 16
  call addrspace(1) void @llvm.dbg.value(metadata %"class.aie::detail::vector"* %this, metadata !2158, metadata !DIExpression()), !dbg !2161
  call addrspace(1) void @llvm.dbg.value(metadata i32 %v, metadata !2159, metadata !DIExpression()), !dbg !2161
  call addrspace(1) void @llvm.dbg.value(metadata i32 %idx, metadata !2160, metadata !DIExpression()), !dbg !2161
  %cmp = icmp ult i32 %idx, 4, !dbg !2162
  %0 = call addrspace(1) i1 @llvm.is.constant.i1(i1 %cmp), !dbg !2162
  br i1 %0, label %do.body, label %if.end4, !dbg !2164

do.body:                                          ; preds = %entry
  %cmp2 = icmp ult i32 %idx, 4, !dbg !2165
  %1 = call addrspace(1) i1 @llvm.chess_manifest(i1 %cmp2), !dbg !2165
  br i1 %1, label %if.end4, label %if.then3, !dbg !2169

if.then3:                                         ; preds = %do.body
  call addrspace(1) void @llvm.chess_error(metadata !1399), !dbg !2165
  unreachable, !dbg !2165

if.end4:                                          ; preds = %do.body, %entry
  %cmp5 = icmp ult i32 %idx, 4, !dbg !2164
  call addrspace(1) void @llvm.assume(i1 %cmp5), !dbg !2164
  %data = getelementptr inbounds %"class.aie::detail::vector", %"class.aie::detail::vector"* %this, i32 0, i32 0, !dbg !2170
  %2 = bitcast %struct.v4int32* %tmp to i8*, !dbg !2175
  call addrspace(1) void @llvm.lifetime.start.p0i8(i64 16, i8* %2) #24, !dbg !2175
  %data6 = getelementptr inbounds %"class.aie::detail::vector", %"class.aie::detail::vector"* %this, i32 0, i32 0, !dbg !2176
  %3 = load %struct.v4int32, %struct.v4int32* %data6, align 16, !dbg !2175, !tbaa !2177
  %call = call addrspace(1) %struct.v4int32 @_Z8upd_elem7v4int32ji(%struct.v4int32 %3, i32 %idx, i32 %v) #27, !dbg !2175
  %4 = getelementptr inbounds %struct.v4int32, %struct.v4int32* %tmp, i32 0, i32 0, !dbg !2175
  %5 = extractvalue %struct.v4int32 %call, 0, !dbg !2175
  store %struct.ipd.custom_type.v16int8.v16int8 %5, %struct.ipd.custom_type.v16int8.v16int8* %4, align 16, !dbg !2175
  %6 = load %struct.v4int32, %struct.v4int32* %tmp, align 16, !dbg !2175, !tbaa !2079
  store %struct.v4int32 %6, %struct.v4int32* %data, align 16, !dbg !2175, !tbaa !2079
  %7 = bitcast %struct.v4int32* %tmp to i8*, !dbg !2175
  call addrspace(1) void @llvm.lifetime.end.p0i8(i64 16, i8* %7) #24, !dbg !2175
  ret void, !dbg !2178
}

; Function Attrs: alwaysinline nounwind mustprogress
define linkonce_odr dso_local %struct.v4int32 @_Z8upd_elem7v4int32ji(%struct.v4int32 %a0.coerce, i32 %a1, i32 %a2) addrspace(1) #9 comdat {
entry:
  %retval = alloca %struct.v4int32, align 16
  %call = call x86_regcallcc addrspace(1) %struct.v4int32 @__regcall3__chessintr_v4int32_upd_elem_v4int32___uint___sint(%struct.v4int32 %a0.coerce, i32 zeroext %a1, i32 signext %a2) #34
  %0 = getelementptr inbounds %struct.v4int32, %struct.v4int32* %retval, i32 0, i32 0
  %1 = extractvalue %struct.v4int32 %call, 0
  store %struct.ipd.custom_type.v16int8.v16int8 %1, %struct.ipd.custom_type.v16int8.v16int8* %0, align 16
  %2 = load %struct.v4int32, %struct.v4int32* %retval, align 16
  ret %struct.v4int32 %2
}

; Function Attrs: nounwind readnone willreturn
declare dso_local x86_regcallcc %struct.v4int32 @__regcall3__chessintr_v4int32_upd_elem_v4int32___uint___sint(%struct.v4int32, i32 zeroext, i32 signext) addrspace(1) #13

; Function Attrs: alwaysinline nounwind mustprogress
define linkonce_odr dso_local %"class.aie::detail::vector" @_ZNK3aie6detail6vectorIiLj16EE7extractILj4EEENS1_IiXT_EEEj(%"class.aie::detail::vector.3"* nonnull dereferenceable(64) %this, i32 %idx) addrspace(1) #9 comdat align 2 !dbg !2179 {
entry:
  %retval = alloca %"class.aie::detail::vector", align 16
  %custom_type.tmp = alloca %"class.aie::detail::vector", align 16
  %tmp = alloca %struct.v4int32, align 16
  %tmp8 = alloca %"class.aie::detail::vector.12", align 32
  %custom_type.tmp9 = alloca %"class.aie::detail::vector.12", align 32
  %agg.tmp = alloca %struct.v8cint32, align 32
  %agg.tmp10 = alloca %struct.v8cint32, align 32
  %ref.tmp = alloca %"class.aie::detail::vector.12", align 32
  %ref.tmp11 = alloca %"class.aie::detail::vector.12", align 32
  %custom_type.tmp16 = alloca %"class.aie::detail::vector", align 16
  %agg.tmp17 = alloca %struct.v4int32, align 16
  %ref.tmp18 = alloca %struct.v2cint32, align 16
  %agg.tmp19 = alloca %struct.v8cint32, align 32
  call addrspace(1) void @llvm.dbg.value(metadata %"class.aie::detail::vector.3"* %this, metadata !2184, metadata !DIExpression()), !dbg !2338
  call addrspace(1) void @llvm.dbg.value(metadata i32 %idx, metadata !2186, metadata !DIExpression()), !dbg !2338
  %cmp = icmp ult i32 %idx, 4, !dbg !2339
  %0 = call addrspace(1) i1 @llvm.is.constant.i1(i1 %cmp), !dbg !2339
  br i1 %0, label %do.body, label %if.end4, !dbg !2341

do.body:                                          ; preds = %entry
  %cmp2 = icmp ult i32 %idx, 4, !dbg !2342
  %1 = call addrspace(1) i1 @llvm.chess_manifest(i1 %cmp2), !dbg !2342
  br i1 %1, label %if.end4, label %if.then3, !dbg !2346

if.then3:                                         ; preds = %do.body
  call addrspace(1) void @llvm.chess_error(metadata !2066), !dbg !2342
  unreachable, !dbg !2342

if.end4:                                          ; preds = %do.body, %entry
  %cmp5 = icmp ult i32 %idx, 4, !dbg !2341
  call addrspace(1) void @llvm.assume(i1 %cmp5), !dbg !2341
  call addrspace(1) void @llvm.dbg.value(metadata i32 undef, metadata !2187, metadata !DIExpression()), !dbg !2338
  call addrspace(1) void @llvm.dbg.value(metadata i32 128, metadata !2187, metadata !DIExpression()), !dbg !2338
  call addrspace(1) void @llvm.dbg.declare(metadata %"class.aie::detail::vector"* %retval, metadata !2188, metadata !DIExpression()), !dbg !2347
  call addrspace(1) void @_ZN3aie6detail6vectorIiLj4EEC2Ev(%"class.aie::detail::vector"* nonnull dereferenceable(16) %custom_type.tmp) #27, !dbg !2347
  %2 = load %"class.aie::detail::vector", %"class.aie::detail::vector"* %custom_type.tmp, align 16, !dbg !2347, !tbaa !2070
  store %"class.aie::detail::vector" %2, %"class.aie::detail::vector"* %retval, align 16, !dbg !2347, !tbaa !2070
  %3 = call addrspace(1) i1 @llvm.is.constant.i32(i32 %idx), !dbg !2348
  br i1 %3, label %if.then6, label %if.else, !dbg !2349

if.then6:                                         ; preds = %if.end4
  %data = getelementptr inbounds %"class.aie::detail::vector", %"class.aie::detail::vector"* %retval, i32 0, i32 0, !dbg !2350
  %4 = bitcast %struct.v4int32* %tmp to i8*, !dbg !2356
  call addrspace(1) void @llvm.lifetime.start.p0i8(i64 16, i8* %4) #24, !dbg !2356
  %data7 = getelementptr inbounds %"class.aie::detail::vector.3", %"class.aie::detail::vector.3"* %this, i32 0, i32 0, !dbg !2357
  %5 = load %struct.v16int32, %struct.v16int32* %data7, align 32, !dbg !2356, !tbaa !2358
  %call = call addrspace(1) %struct.v4int32 @_Z5ext_v8v16int32i(%struct.v16int32 %5, i32 %idx) #29, !dbg !2356
  %6 = getelementptr inbounds %struct.v4int32, %struct.v4int32* %tmp, i32 0, i32 0, !dbg !2356
  %7 = extractvalue %struct.v4int32 %call, 0, !dbg !2356
  store %struct.ipd.custom_type.v16int8.v16int8 %7, %struct.ipd.custom_type.v16int8.v16int8* %6, align 16, !dbg !2356
  %8 = load %struct.v4int32, %struct.v4int32* %tmp, align 16, !dbg !2356, !tbaa !2079
  store %struct.v4int32 %8, %struct.v4int32* %data, align 16, !dbg !2356, !tbaa !2079
  %9 = bitcast %struct.v4int32* %tmp to i8*, !dbg !2356
  call addrspace(1) void @llvm.lifetime.end.p0i8(i64 16, i8* %9) #24, !dbg !2356
  br label %cleanup, !dbg !2361

if.else:                                          ; preds = %if.end4
  call addrspace(1) void @llvm.dbg.value(metadata i32 undef, metadata !2191, metadata !DIExpression()), !dbg !2362
  call addrspace(1) void @llvm.dbg.value(metadata i32 2, metadata !2191, metadata !DIExpression()), !dbg !2362
  call addrspace(1) void @llvm.dbg.value(metadata i32 undef, metadata !2194, metadata !DIExpression()), !dbg !2363
  call addrspace(1) void @llvm.dbg.value(metadata i32 8, metadata !2194, metadata !DIExpression()), !dbg !2363
  store %"class.aie::detail::vector.12" undef, %"class.aie::detail::vector.12"* %tmp8, align 32, !dbg !2364
  %10 = bitcast %"class.aie::detail::vector.12"* %tmp8 to i8*, !dbg !2364
  call addrspace(1) void @llvm.lifetime.start.p0i8(i64 64, i8* %10) #24, !dbg !2364
  call addrspace(1) void @llvm.dbg.declare(metadata %"class.aie::detail::vector.12"* %tmp8, metadata !2199, metadata !DIExpression()), !dbg !2365
  %11 = bitcast %"class.aie::detail::vector.12"* %ref.tmp to i8*, !dbg !2366
  call addrspace(1) void @llvm.lifetime.start.p0i8(i64 64, i8* %11) #24, !dbg !2366
  %12 = bitcast %"class.aie::detail::vector.12"* %ref.tmp11 to i8*, !dbg !2366
  call addrspace(1) void @llvm.lifetime.start.p0i8(i64 64, i8* %12) #24, !dbg !2366
  %call12 = call addrspace(1) %"class.aie::detail::vector.12" @_ZNK3aie6detail6vectorIiLj16EE7cast_toI6cint32EEDav(%"class.aie::detail::vector.3"* nonnull dereferenceable(64) %this) #27, !dbg !2366
  %13 = getelementptr inbounds %"class.aie::detail::vector.12", %"class.aie::detail::vector.12"* %ref.tmp11, i32 0, i32 0, !dbg !2366
  %14 = extractvalue %"class.aie::detail::vector.12" %call12, 0, !dbg !2366
  store %struct.v8cint32 %14, %struct.v8cint32* %13, align 32, !dbg !2366
  %call13 = call addrspace(1) %"class.aie::detail::vector.12" @_ZNK3aie6detail6vectorI6cint32Lj8EE4growILj8EEENS1_IS2_XT_EEEj(%"class.aie::detail::vector.12"* nonnull dereferenceable(64) %ref.tmp11, i32 0) #27, !dbg !2367
  %15 = getelementptr inbounds %"class.aie::detail::vector.12", %"class.aie::detail::vector.12"* %ref.tmp, i32 0, i32 0, !dbg !2367
  %16 = extractvalue %"class.aie::detail::vector.12" %call13, 0, !dbg !2367
  store %struct.v8cint32 %16, %struct.v8cint32* %15, align 32, !dbg !2367
  %call14 = call addrspace(1) %struct.v8cint32 @_ZNK3aie6detail6vectorI6cint32Lj8EEcv8v8cint32Ev(%"class.aie::detail::vector.12"* nonnull dereferenceable(64) %ref.tmp) #27, !dbg !2366
  %17 = getelementptr inbounds %struct.v8cint32, %struct.v8cint32* %agg.tmp10, i32 0, i32 0, !dbg !2366
  %18 = extractvalue %struct.v8cint32 %call14, 0, !dbg !2366
  store %struct.ipd.custom_type.v64int8.v64int8 %18, %struct.ipd.custom_type.v64int8.v64int8* %17, align 32, !dbg !2366
  %mul = mul i32 %idx, 2, !dbg !2368
  %19 = load %struct.v8cint32, %struct.v8cint32* %agg.tmp10, align 32, !dbg !2369, !tbaa !2370
  %call15 = call addrspace(1) %struct.v8cint32 @_Z8shuffle88v8cint32ij(%struct.v8cint32 %19, i32 %mul, i32 16) #27, !dbg !2369
  %20 = getelementptr inbounds %struct.v8cint32, %struct.v8cint32* %agg.tmp, i32 0, i32 0, !dbg !2369
  %21 = extractvalue %struct.v8cint32 %call15, 0, !dbg !2369
  store %struct.ipd.custom_type.v64int8.v64int8 %21, %struct.ipd.custom_type.v64int8.v64int8* %20, align 32, !dbg !2369
  %22 = load %struct.v8cint32, %struct.v8cint32* %agg.tmp, align 32, !dbg !2369, !tbaa !2370
  call addrspace(1) void @_ZN3aie6detail6vectorI6cint32Lj8EEC2E8v8cint32(%"class.aie::detail::vector.12"* nonnull dereferenceable(64) %custom_type.tmp9, %struct.v8cint32 %22) #27, !dbg !2369
  %23 = load %"class.aie::detail::vector.12", %"class.aie::detail::vector.12"* %custom_type.tmp9, align 32, !dbg !2369, !tbaa !2371
  store %"class.aie::detail::vector.12" %23, %"class.aie::detail::vector.12"* %tmp8, align 32, !dbg !2369, !tbaa !2371
  %24 = bitcast %"class.aie::detail::vector.12"* %ref.tmp11 to i8*, !dbg !2369
  call addrspace(1) void @llvm.lifetime.end.p0i8(i64 64, i8* %24) #24, !dbg !2369
  %25 = bitcast %"class.aie::detail::vector.12"* %ref.tmp to i8*, !dbg !2369
  call addrspace(1) void @llvm.lifetime.end.p0i8(i64 64, i8* %25) #24, !dbg !2369
  %26 = bitcast %struct.v2cint32* %ref.tmp18 to i8*, !dbg !2373
  call addrspace(1) void @llvm.lifetime.start.p0i8(i64 16, i8* %26) #24, !dbg !2373
  %call20 = call addrspace(1) %struct.v8cint32 @_ZNK3aie6detail6vectorI6cint32Lj8EEcv8v8cint32Ev(%"class.aie::detail::vector.12"* nonnull dereferenceable(64) %tmp8) #27, !dbg !2374
  %27 = getelementptr inbounds %struct.v8cint32, %struct.v8cint32* %agg.tmp19, i32 0, i32 0, !dbg !2374
  %28 = extractvalue %struct.v8cint32 %call20, 0, !dbg !2374
  store %struct.ipd.custom_type.v64int8.v64int8 %28, %struct.ipd.custom_type.v64int8.v64int8* %27, align 32, !dbg !2374
  %29 = load %struct.v8cint32, %struct.v8cint32* %agg.tmp19, align 32, !dbg !2373, !tbaa !2370
  %call21 = call addrspace(1) %struct.v2cint32 @_Z5ext_v8v8cint32i(%struct.v8cint32 %29, i32 0) #29, !dbg !2373
  %30 = getelementptr inbounds %struct.v2cint32, %struct.v2cint32* %ref.tmp18, i32 0, i32 0, !dbg !2373
  %31 = extractvalue %struct.v2cint32 %call21, 0, !dbg !2373
  store %struct.ipd.custom_type.v16int8.v16int8 %31, %struct.ipd.custom_type.v16int8.v16int8* %30, align 16, !dbg !2373
  %ref.tmp18.val = load %struct.v2cint32, %struct.v2cint32* %ref.tmp18, align 16, !dbg !2375, !tbaa !2079
  %call22 = call addrspace(1) %struct.ipd.custom_type.v16int8.v16int8 @_ZN3aie6detailL18vector_cast_helperIiLj4E8v2cint32EENS0_14vector_storageIT_XT0_EE4typeEOT1_(%struct.v2cint32 %ref.tmp18.val) #27, !dbg !2375
  %oldret = insertvalue %struct.v4int32 undef, %struct.ipd.custom_type.v16int8.v16int8 %call22, 0, !dbg !2375
  %32 = getelementptr inbounds %struct.v4int32, %struct.v4int32* %agg.tmp17, i32 0, i32 0, !dbg !2375
  %33 = extractvalue %struct.v4int32 %oldret, 0, !dbg !2375
  store %struct.ipd.custom_type.v16int8.v16int8 %33, %struct.ipd.custom_type.v16int8.v16int8* %32, align 16, !dbg !2375
  %34 = load %struct.v4int32, %struct.v4int32* %agg.tmp17, align 16, !dbg !2375, !tbaa !2079
  call addrspace(1) void @_ZN3aie6detail6vectorIiLj4EEC2E7v4int32(%"class.aie::detail::vector"* nonnull dereferenceable(16) %custom_type.tmp16, %struct.v4int32 %34) #27, !dbg !2375
  %35 = load %"class.aie::detail::vector", %"class.aie::detail::vector"* %custom_type.tmp16, align 16, !dbg !2375, !tbaa !2070
  store %"class.aie::detail::vector" %35, %"class.aie::detail::vector"* %retval, align 16, !dbg !2375, !tbaa !2070
  %36 = bitcast %struct.v2cint32* %ref.tmp18 to i8*, !dbg !2376
  call addrspace(1) void @llvm.lifetime.end.p0i8(i64 16, i8* %36) #24, !dbg !2376
  %37 = bitcast %"class.aie::detail::vector.12"* %tmp8 to i8*, !dbg !2377
  call addrspace(1) void @llvm.lifetime.end.p0i8(i64 64, i8* %37) #24, !dbg !2377
  br label %cleanup, !dbg !2378

cleanup:                                          ; preds = %if.else, %if.then6
  %38 = load %"class.aie::detail::vector", %"class.aie::detail::vector"* %retval, align 16, !dbg !2379
  ret %"class.aie::detail::vector" %38, !dbg !2379
}

; Function Attrs: alwaysinline nounwind
define linkonce_odr dso_local void @_ZN3aie6detail6vectorIiLj4EEC2Ev(%"class.aie::detail::vector"* nonnull dereferenceable(16) %this) unnamed_addr addrspace(1) #11 comdat align 2 !dbg !2380 {
entry:
  call addrspace(1) void @llvm.dbg.value(metadata %"class.aie::detail::vector"* %this, metadata !2382, metadata !DIExpression()), !dbg !2383
  %data = getelementptr inbounds %"class.aie::detail::vector", %"class.aie::detail::vector"* %this, i32 0, i32 0, !dbg !2384
  %call = call addrspace(1) %struct.v4int32 @_ZN3aie6detail14vector_storageIiLj4EE5undefEv() #27, !dbg !2385
  %0 = getelementptr inbounds %struct.v4int32, %struct.v4int32* %data, i32 0, i32 0, !dbg !2385
  %1 = extractvalue %struct.v4int32 %call, 0, !dbg !2385
  store %struct.ipd.custom_type.v16int8.v16int8 %1, %struct.ipd.custom_type.v16int8.v16int8* %0, align 16, !dbg !2385
  ret void, !dbg !2386
}

; Function Attrs: convergent nofree nosync nounwind readnone willreturn
declare i1 @llvm.is.constant.i32(i32) addrspace(1) #19

; Function Attrs: alwaysinline nounwind mustprogress
define linkonce_odr dso_local %struct.v4int32 @_Z5ext_v8v16int32i(%struct.v16int32 %a0.coerce, i32 %a1) addrspace(1) #10 comdat {
entry:
  %retval = alloca %struct.v4int32, align 16
  %call = call x86_regcallcc addrspace(1) %struct.v4int32 @__regcall3__chessintr_v4int32_ext_v_v16int32___sint(%struct.v16int32 %a0.coerce, i32 signext %a1) #34
  %0 = getelementptr inbounds %struct.v4int32, %struct.v4int32* %retval, i32 0, i32 0
  %1 = extractvalue %struct.v4int32 %call, 0
  store %struct.ipd.custom_type.v16int8.v16int8 %1, %struct.ipd.custom_type.v16int8.v16int8* %0, align 16
  %2 = load %struct.v4int32, %struct.v4int32* %retval, align 16
  ret %struct.v4int32 %2
}

; Function Attrs: alwaysinline nounwind mustprogress
define linkonce_odr dso_local %"class.aie::detail::vector.12" @_ZNK3aie6detail6vectorIiLj16EE7cast_toI6cint32EEDav(%"class.aie::detail::vector.3"* nonnull dereferenceable(64) %this) addrspace(1) #9 comdat align 2 !dbg !2387 {
entry:
  %ret = alloca %"class.aie::detail::vector.12", align 32
  %custom_type.tmp = alloca %"class.aie::detail::vector.12", align 32
  %tmp = alloca %struct.v8cint32, align 32
  call addrspace(1) void @llvm.dbg.value(metadata %"class.aie::detail::vector.3"* %this, metadata !2396, metadata !DIExpression()), !dbg !2400
  call addrspace(1) void @llvm.dbg.value(metadata i32 undef, metadata !2397, metadata !DIExpression()), !dbg !2400
  call addrspace(1) void @llvm.dbg.value(metadata i32 64, metadata !2397, metadata !DIExpression()), !dbg !2400
  call addrspace(1) void @llvm.dbg.value(metadata i32 undef, metadata !2398, metadata !DIExpression()), !dbg !2400
  call addrspace(1) void @llvm.dbg.value(metadata i32 8, metadata !2398, metadata !DIExpression()), !dbg !2400
  store %"class.aie::detail::vector.12" undef, %"class.aie::detail::vector.12"* %ret, align 32, !dbg !2401
  %0 = bitcast %"class.aie::detail::vector.12"* %ret to i8*, !dbg !2401
  call addrspace(1) void @llvm.lifetime.start.p0i8(i64 64, i8* %0) #24, !dbg !2401
  call addrspace(1) void @llvm.dbg.declare(metadata %"class.aie::detail::vector.12"* %ret, metadata !2399, metadata !DIExpression()), !dbg !2402
  call addrspace(1) void @_ZN3aie6detail6vectorI6cint32Lj8EEC2Ev(%"class.aie::detail::vector.12"* nonnull dereferenceable(64) %custom_type.tmp) #27, !dbg !2402
  %1 = load %"class.aie::detail::vector.12", %"class.aie::detail::vector.12"* %custom_type.tmp, align 32, !dbg !2402, !tbaa !2371
  store %"class.aie::detail::vector.12" %1, %"class.aie::detail::vector.12"* %ret, align 32, !dbg !2402, !tbaa !2371
  %data = getelementptr inbounds %"class.aie::detail::vector.12", %"class.aie::detail::vector.12"* %ret, i32 0, i32 0, !dbg !2403
  %2 = bitcast %struct.v8cint32* %tmp to i8*, !dbg !2404
  call addrspace(1) void @llvm.lifetime.start.p0i8(i64 64, i8* %2) #24, !dbg !2404
  %data2 = getelementptr inbounds %"class.aie::detail::vector.3", %"class.aie::detail::vector.3"* %this, i32 0, i32 0, !dbg !2405
  %data2.val = load %struct.v16int32, %struct.v16int32* %data2, align 32, !dbg !2404, !tbaa !2370
  %call = call addrspace(1) %struct.ipd.custom_type.v64int8.v64int8 @_ZN3aie6detailL18vector_cast_helperI6cint32Lj8ERK8v16int32EENS0_14vector_storageIT_XT0_EE4typeEOT1_(%struct.v16int32 %data2.val) #27, !dbg !2404
  %oldret = insertvalue %struct.v8cint32 undef, %struct.ipd.custom_type.v64int8.v64int8 %call, 0, !dbg !2404
  %3 = getelementptr inbounds %struct.v8cint32, %struct.v8cint32* %tmp, i32 0, i32 0, !dbg !2404
  %4 = extractvalue %struct.v8cint32 %oldret, 0, !dbg !2404
  store %struct.ipd.custom_type.v64int8.v64int8 %4, %struct.ipd.custom_type.v64int8.v64int8* %3, align 32, !dbg !2404
  %5 = load %struct.v8cint32, %struct.v8cint32* %tmp, align 32, !dbg !2404, !tbaa !2370
  store %struct.v8cint32 %5, %struct.v8cint32* %data, align 32, !dbg !2404, !tbaa !2370
  %6 = bitcast %struct.v8cint32* %tmp to i8*, !dbg !2404
  call addrspace(1) void @llvm.lifetime.end.p0i8(i64 64, i8* %6) #24, !dbg !2404
  %7 = load %"class.aie::detail::vector.12", %"class.aie::detail::vector.12"* %ret, align 32, !dbg !2406, !tbaa !2371
  %8 = bitcast %"class.aie::detail::vector.12"* %ret to i8*, !dbg !2407
  call addrspace(1) void @llvm.lifetime.end.p0i8(i64 64, i8* %8) #24, !dbg !2407
  ret %"class.aie::detail::vector.12" %7, !dbg !2406
}

; Function Attrs: alwaysinline nounwind mustprogress
define linkonce_odr dso_local %"class.aie::detail::vector.12" @_ZNK3aie6detail6vectorI6cint32Lj8EE4growILj8EEENS1_IS2_XT_EEEj(%"class.aie::detail::vector.12"* nonnull dereferenceable(64) %this, i32 %idx) addrspace(1) #9 comdat align 2 !dbg !2408 {
entry:
  %retval = alloca %"class.aie::detail::vector.12", align 32
  %custom_type.tmp = alloca %"class.aie::detail::vector.12", align 32
  call addrspace(1) void @llvm.dbg.value(metadata %"class.aie::detail::vector.12"* %this, metadata !2415, metadata !DIExpression()), !dbg !2420
  call addrspace(1) void @llvm.dbg.value(metadata i32 %idx, metadata !2417, metadata !DIExpression()), !dbg !2420
  call addrspace(1) void @llvm.dbg.value(metadata i32 undef, metadata !2418, metadata !DIExpression()), !dbg !2420
  call addrspace(1) void @llvm.dbg.value(metadata i32 512, metadata !2418, metadata !DIExpression()), !dbg !2420
  call addrspace(1) void @llvm.dbg.declare(metadata %"class.aie::detail::vector.12"* %retval, metadata !2419, metadata !DIExpression()), !dbg !2421
  call addrspace(1) void @_ZN3aie6detail6vectorI6cint32Lj8EEC2Ev(%"class.aie::detail::vector.12"* nonnull dereferenceable(64) %custom_type.tmp) #27, !dbg !2421
  %0 = load %"class.aie::detail::vector.12", %"class.aie::detail::vector.12"* %custom_type.tmp, align 32, !dbg !2421, !tbaa !2371
  store %"class.aie::detail::vector.12" %0, %"class.aie::detail::vector.12"* %retval, align 32, !dbg !2421, !tbaa !2371
  %data = getelementptr inbounds %"class.aie::detail::vector.12", %"class.aie::detail::vector.12"* %retval, i32 0, i32 0, !dbg !2422
  %data2 = getelementptr inbounds %"class.aie::detail::vector.12", %"class.aie::detail::vector.12"* %this, i32 0, i32 0, !dbg !2425
  %1 = load %struct.v8cint32, %struct.v8cint32* %data2, align 32, !dbg !2425, !tbaa !2370
  store %struct.v8cint32 %1, %struct.v8cint32* %data, align 32, !dbg !2425, !tbaa !2370
  %2 = load %"class.aie::detail::vector.12", %"class.aie::detail::vector.12"* %retval, align 32, !dbg !2426
  ret %"class.aie::detail::vector.12" %2, !dbg !2426
}

; Function Attrs: alwaysinline nounwind mustprogress
define linkonce_odr dso_local %struct.v8cint32 @_ZNK3aie6detail6vectorI6cint32Lj8EEcv8v8cint32Ev(%"class.aie::detail::vector.12"* nonnull dereferenceable(64) %this) addrspace(1) #9 comdat align 2 !dbg !2427 {
entry:
  %retval = alloca %struct.v8cint32, align 32
  call addrspace(1) void @llvm.dbg.value(metadata %"class.aie::detail::vector.12"* %this, metadata !2429, metadata !DIExpression()), !dbg !2430
  %call = call addrspace(1) %struct.v8cint32 @_ZNK3aie6detail6vectorI6cint32Lj8EE9to_nativeEv(%"class.aie::detail::vector.12"* nonnull dereferenceable(64) %this) #27, !dbg !2431
  %0 = getelementptr inbounds %struct.v8cint32, %struct.v8cint32* %retval, i32 0, i32 0, !dbg !2431
  %1 = extractvalue %struct.v8cint32 %call, 0, !dbg !2431
  store %struct.ipd.custom_type.v64int8.v64int8 %1, %struct.ipd.custom_type.v64int8.v64int8* %0, align 32, !dbg !2431
  %2 = load %struct.v8cint32, %struct.v8cint32* %retval, align 32, !dbg !2432
  ret %struct.v8cint32 %2, !dbg !2432
}

; Function Attrs: alwaysinline nounwind mustprogress
define linkonce_odr dso_local %struct.v8cint32 @_Z8shuffle88v8cint32ij(%struct.v8cint32 %a0.coerce, i32 %a1, i32 %a2) addrspace(1) #9 comdat {
entry:
  %retval = alloca %struct.v8cint32, align 32
  %call = call x86_regcallcc addrspace(1) %struct.v8cint32 @__regcall3__chessintr_v8cint32_shuffle8_v8cint32___sint___uint(%struct.v8cint32 %a0.coerce, i32 signext %a1, i32 zeroext %a2) #34
  %0 = getelementptr inbounds %struct.v8cint32, %struct.v8cint32* %retval, i32 0, i32 0
  %1 = extractvalue %struct.v8cint32 %call, 0
  store %struct.ipd.custom_type.v64int8.v64int8 %1, %struct.ipd.custom_type.v64int8.v64int8* %0, align 32
  %2 = load %struct.v8cint32, %struct.v8cint32* %retval, align 32
  ret %struct.v8cint32 %2
}

; Function Attrs: alwaysinline nounwind
define linkonce_odr dso_local void @_ZN3aie6detail6vectorI6cint32Lj8EEC2E8v8cint32(%"class.aie::detail::vector.12"* nonnull dereferenceable(64) %this, %struct.v8cint32 %v.coerce) unnamed_addr addrspace(1) #11 comdat align 2 !dbg !2433 {
entry:
  call addrspace(1) void @llvm.dbg.value(metadata %struct.v8cint32 %v.coerce, metadata !2437, metadata !DIExpression()), !dbg !2438
  call addrspace(1) void @llvm.dbg.value(metadata %"class.aie::detail::vector.12"* %this, metadata !2435, metadata !DIExpression()), !dbg !2438
  %data = getelementptr inbounds %"class.aie::detail::vector.12", %"class.aie::detail::vector.12"* %this, i32 0, i32 0, !dbg !2439
  store %struct.v8cint32 %v.coerce, %struct.v8cint32* %data, align 32, !dbg !2440, !tbaa !2370
  ret void, !dbg !2441
}

; Function Attrs: alwaysinline nounwind mustprogress
define linkonce_odr dso_local %struct.v2cint32 @_Z5ext_v8v8cint32i(%struct.v8cint32 %a0.coerce, i32 %a1) addrspace(1) #10 comdat {
entry:
  %retval = alloca %struct.v2cint32, align 16
  %call = call x86_regcallcc addrspace(1) %struct.v2cint32 @__regcall3__chessintr_v2cint32_ext_v_v8cint32___sint(%struct.v8cint32 %a0.coerce, i32 signext 0) #34
  %0 = getelementptr inbounds %struct.v2cint32, %struct.v2cint32* %retval, i32 0, i32 0
  %1 = extractvalue %struct.v2cint32 %call, 0
  store %struct.ipd.custom_type.v16int8.v16int8 %1, %struct.ipd.custom_type.v16int8.v16int8* %0, align 16
  %2 = load %struct.v2cint32, %struct.v2cint32* %retval, align 16
  ret %struct.v2cint32 %2
}

; Function Attrs: alwaysinline nounwind mustprogress
define internal %struct.ipd.custom_type.v16int8.v16int8 @_ZN3aie6detailL18vector_cast_helperIiLj4E8v2cint32EENS0_14vector_storageIT_XT0_EE4typeEOT1_(%struct.v2cint32 %from.val) addrspace(1) #9 !dbg !2442 {
entry:
  %retval = alloca %struct.v4int32, align 16
  call addrspace(1) void @llvm.dbg.value(metadata %struct.v2cint32* undef, metadata !2448, metadata !DIExpression()), !dbg !2453
  %call = call addrspace(1) %struct.v4int32 @_Z10as_v4int328v2cint32(%struct.v2cint32 %from.val) #27, !dbg !2454
  %0 = getelementptr inbounds %struct.v4int32, %struct.v4int32* %retval, i32 0, i32 0, !dbg !2454
  %1 = extractvalue %struct.v4int32 %call, 0, !dbg !2454
  store %struct.ipd.custom_type.v16int8.v16int8 %1, %struct.ipd.custom_type.v16int8.v16int8* %0, align 16, !dbg !2454
  %2 = load %struct.v4int32, %struct.v4int32* %retval, align 16, !dbg !2456
  %oldret = extractvalue %struct.v4int32 %2, 0, !dbg !2456
  ret %struct.ipd.custom_type.v16int8.v16int8 %oldret, !dbg !2456
}

; Function Attrs: alwaysinline nounwind
define linkonce_odr dso_local void @_ZN3aie6detail6vectorIiLj4EEC2E7v4int32(%"class.aie::detail::vector"* nonnull dereferenceable(16) %this, %struct.v4int32 %v.coerce) unnamed_addr addrspace(1) #11 comdat align 2 !dbg !2457 {
entry:
  call addrspace(1) void @llvm.dbg.value(metadata %struct.v4int32 %v.coerce, metadata !2460, metadata !DIExpression()), !dbg !2461
  call addrspace(1) void @llvm.dbg.value(metadata %"class.aie::detail::vector"* %this, metadata !2459, metadata !DIExpression()), !dbg !2461
  %data = getelementptr inbounds %"class.aie::detail::vector", %"class.aie::detail::vector"* %this, i32 0, i32 0, !dbg !2462
  store %struct.v4int32 %v.coerce, %struct.v4int32* %data, align 16, !dbg !2463, !tbaa !2079
  ret void, !dbg !2464
}

; Function Attrs: alwaysinline nounwind mustprogress
define linkonce_odr dso_local %struct.v4int32 @_Z10as_v4int328v2cint32(%struct.v2cint32 %a.coerce) addrspace(1) #9 comdat {
entry:
  %a = alloca %struct.v2cint32, align 16
  %custom_type.tmp = alloca %struct.v4int32, align 16
  store %struct.v2cint32 %a.coerce, %struct.v2cint32* %a, align 16
  %mw = getelementptr inbounds %struct.v2cint32, %struct.v2cint32* %a, i32 0, i32 0
  %0 = load %struct.ipd.custom_type.v16int8.v16int8, %struct.ipd.custom_type.v16int8.v16int8* %mw, align 16, !tbaa !2079
  call addrspace(1) void @_ZN7v4int32C2E17chessllvmInternal7v16int8(%struct.v4int32* nonnull dereferenceable(16) %custom_type.tmp, i32 0, %struct.ipd.custom_type.v16int8.v16int8 %0) #27
  %1 = load %struct.v4int32, %struct.v4int32* %custom_type.tmp, align 16, !tbaa !2079
  ret %struct.v4int32 %1
}

; Function Attrs: nounwind readnone willreturn
declare dso_local x86_regcallcc %struct.v2cint32 @__regcall3__chessintr_v2cint32_ext_v_v8cint32___sint(%struct.v8cint32, i32 signext) addrspace(1) #13

; Function Attrs: nounwind readnone willreturn
declare dso_local x86_regcallcc %struct.v8cint32 @__regcall3__chessintr_v8cint32_shuffle8_v8cint32___sint___uint(%struct.v8cint32, i32 signext, i32 zeroext) addrspace(1) #13

; Function Attrs: alwaysinline nounwind mustprogress
define linkonce_odr dso_local %struct.v8cint32 @_ZNK3aie6detail6vectorI6cint32Lj8EE9to_nativeEv(%"class.aie::detail::vector.12"* nonnull dereferenceable(64) %this) addrspace(1) #9 comdat align 2 !dbg !2465 {
entry:
  call addrspace(1) void @llvm.dbg.value(metadata %"class.aie::detail::vector.12"* %this, metadata !2472, metadata !DIExpression()), !dbg !2473
  %data = getelementptr inbounds %"class.aie::detail::vector.12", %"class.aie::detail::vector.12"* %this, i32 0, i32 0, !dbg !2474
  %0 = load %struct.v8cint32, %struct.v8cint32* %data, align 32, !dbg !2474, !tbaa !2370
  ret %struct.v8cint32 %0, !dbg !2474
}

; Function Attrs: alwaysinline nounwind
define linkonce_odr dso_local void @_ZN3aie6detail6vectorI6cint32Lj8EEC2Ev(%"class.aie::detail::vector.12"* nonnull dereferenceable(64) %this) unnamed_addr addrspace(1) #11 comdat align 2 !dbg !2476 {
entry:
  call addrspace(1) void @llvm.dbg.value(metadata %"class.aie::detail::vector.12"* %this, metadata !2478, metadata !DIExpression()), !dbg !2479
  %data = getelementptr inbounds %"class.aie::detail::vector.12", %"class.aie::detail::vector.12"* %this, i32 0, i32 0, !dbg !2480
  %call = call addrspace(1) %struct.v8cint32 @_ZN3aie6detail14vector_storageI6cint32Lj8EE5undefEv() #27, !dbg !2481
  %0 = getelementptr inbounds %struct.v8cint32, %struct.v8cint32* %data, i32 0, i32 0, !dbg !2481
  %1 = extractvalue %struct.v8cint32 %call, 0, !dbg !2481
  store %struct.ipd.custom_type.v64int8.v64int8 %1, %struct.ipd.custom_type.v64int8.v64int8* %0, align 32, !dbg !2481
  ret void, !dbg !2482
}

; Function Attrs: alwaysinline nounwind mustprogress
define linkonce_odr dso_local %struct.v8cint32 @_ZN3aie6detail14vector_storageI6cint32Lj8EE5undefEv() addrspace(1) #9 comdat align 2 !dbg !2483 {
entry:
  %retval = alloca %struct.v8cint32, align 32
  %call = call addrspace(1) %struct.v8cint32 @_Z14undef_v8cint32v() #27, !dbg !2484
  %0 = getelementptr inbounds %struct.v8cint32, %struct.v8cint32* %retval, i32 0, i32 0, !dbg !2484
  %1 = extractvalue %struct.v8cint32 %call, 0, !dbg !2484
  store %struct.ipd.custom_type.v64int8.v64int8 %1, %struct.ipd.custom_type.v64int8.v64int8* %0, align 32, !dbg !2484
  %2 = load %struct.v8cint32, %struct.v8cint32* %retval, align 32, !dbg !2485
  ret %struct.v8cint32 %2, !dbg !2485
}

; Function Attrs: alwaysinline nounwind mustprogress
define linkonce_odr dso_local %struct.v8cint32 @_Z14undef_v8cint32v() addrspace(1) #9 comdat {
entry:
  %retval = alloca %struct.v8cint32, align 32
  %call = call x86_regcallcc addrspace(1) %struct.v8cint32 @__regcall3__chessintr_v8cint32_undef_v8cint32() #34
  %0 = getelementptr inbounds %struct.v8cint32, %struct.v8cint32* %retval, i32 0, i32 0
  %1 = extractvalue %struct.v8cint32 %call, 0
  store %struct.ipd.custom_type.v64int8.v64int8 %1, %struct.ipd.custom_type.v64int8.v64int8* %0, align 32
  %2 = load %struct.v8cint32, %struct.v8cint32* %retval, align 32
  ret %struct.v8cint32 %2
}

; Function Attrs: nounwind readnone willreturn
declare dso_local x86_regcallcc %struct.v8cint32 @__regcall3__chessintr_v8cint32_undef_v8cint32() addrspace(1) #13

; Function Attrs: alwaysinline nounwind mustprogress
define internal %struct.ipd.custom_type.v64int8.v64int8 @_ZN3aie6detailL18vector_cast_helperI6cint32Lj8ERK8v16int32EENS0_14vector_storageIT_XT0_EE4typeEOT1_(%struct.v16int32 %from.val) addrspace(1) #9 !dbg !2486 {
entry:
  %retval = alloca %struct.v8cint32, align 32
  call addrspace(1) void @llvm.dbg.value(metadata %struct.v16int32* undef, metadata !2492, metadata !DIExpression()), !dbg !2496
  %call = call addrspace(1) %struct.v8cint32 @_Z11as_v8cint328v16int32(%struct.v16int32 %from.val) #27, !dbg !2497
  %0 = getelementptr inbounds %struct.v8cint32, %struct.v8cint32* %retval, i32 0, i32 0, !dbg !2497
  %1 = extractvalue %struct.v8cint32 %call, 0, !dbg !2497
  store %struct.ipd.custom_type.v64int8.v64int8 %1, %struct.ipd.custom_type.v64int8.v64int8* %0, align 32, !dbg !2497
  %2 = load %struct.v8cint32, %struct.v8cint32* %retval, align 32, !dbg !2499
  %oldret = extractvalue %struct.v8cint32 %2, 0, !dbg !2499
  ret %struct.ipd.custom_type.v64int8.v64int8 %oldret, !dbg !2499
}

; Function Attrs: alwaysinline nounwind mustprogress
define linkonce_odr dso_local %struct.v8cint32 @_Z11as_v8cint328v16int32(%struct.v16int32 %a.coerce) addrspace(1) #9 comdat {
entry:
  %a = alloca %struct.v16int32, align 32
  %custom_type.tmp = alloca %struct.v8cint32, align 32
  store %struct.v16int32 %a.coerce, %struct.v16int32* %a, align 32
  %mw = getelementptr inbounds %struct.v16int32, %struct.v16int32* %a, i32 0, i32 0
  %0 = load %struct.ipd.custom_type.v64int8.v64int8, %struct.ipd.custom_type.v64int8.v64int8* %mw, align 32, !tbaa !2370
  call addrspace(1) void @_ZN8v8cint32C2E17chessllvmInternal7v64int8(%struct.v8cint32* nonnull dereferenceable(64) %custom_type.tmp, i32 0, %struct.ipd.custom_type.v64int8.v64int8 %0) #27
  %1 = load %struct.v8cint32, %struct.v8cint32* %custom_type.tmp, align 32, !tbaa !2370
  ret %struct.v8cint32 %1
}

; Function Attrs: alwaysinline nounwind
define linkonce_odr dso_local void @_ZN8v8cint32C2E17chessllvmInternal7v64int8(%struct.v8cint32* nonnull dereferenceable(64) %this, i32 %0, %struct.ipd.custom_type.v64int8.v64int8 %aw.coerce) unnamed_addr addrspace(1) #11 comdat align 2 !dbg !2500 {
entry:
  call addrspace(1) void @llvm.dbg.value(metadata %struct.ipd.custom_type.v64int8.v64int8 %aw.coerce, metadata !2527, metadata !DIExpression()), !dbg !2528
  call addrspace(1) void @llvm.dbg.value(metadata %struct.v8cint32* %this, metadata !2524, metadata !DIExpression()), !dbg !2528
  call addrspace(1) void @llvm.dbg.value(metadata i32 0, metadata !2526, metadata !DIExpression()), !dbg !2528
  %mw = getelementptr inbounds %struct.v8cint32, %struct.v8cint32* %this, i32 0, i32 0, !dbg !2529
  store %struct.ipd.custom_type.v64int8.v64int8 %aw.coerce, %struct.ipd.custom_type.v64int8.v64int8* %mw, align 32, !dbg !2530, !tbaa !2370
  ret void, !dbg !2531
}

; Function Attrs: nounwind readnone willreturn
declare dso_local x86_regcallcc %struct.v4int32 @__regcall3__chessintr_v4int32_ext_v_v16int32___sint(%struct.v16int32, i32 signext) addrspace(1) #13

; Function Attrs: alwaysinline nounwind mustprogress
define linkonce_odr dso_local %struct.v4int32 @_ZN3aie6detail14vector_storageIiLj4EE5undefEv() addrspace(1) #9 comdat align 2 !dbg !2532 {
entry:
  %retval = alloca %struct.v4int32, align 16
  %call = call addrspace(1) %struct.v4int32 @_Z13undef_v4int32v() #27, !dbg !2533
  %0 = getelementptr inbounds %struct.v4int32, %struct.v4int32* %retval, i32 0, i32 0, !dbg !2533
  %1 = extractvalue %struct.v4int32 %call, 0, !dbg !2533
  store %struct.ipd.custom_type.v16int8.v16int8 %1, %struct.ipd.custom_type.v16int8.v16int8* %0, align 16, !dbg !2533
  %2 = load %struct.v4int32, %struct.v4int32* %retval, align 16, !dbg !2534
  ret %struct.v4int32 %2, !dbg !2534
}

; Function Attrs: alwaysinline nounwind mustprogress
define linkonce_odr dso_local %struct.v4int32 @_Z13undef_v4int32v() addrspace(1) #9 comdat {
entry:
  %retval = alloca %struct.v4int32, align 16
  %call = call x86_regcallcc addrspace(1) %struct.v4int32 @__regcall3__chessintr_v4int32_undef_v4int32() #34
  %0 = getelementptr inbounds %struct.v4int32, %struct.v4int32* %retval, i32 0, i32 0
  %1 = extractvalue %struct.v4int32 %call, 0
  store %struct.ipd.custom_type.v16int8.v16int8 %1, %struct.ipd.custom_type.v16int8.v16int8* %0, align 16
  %2 = load %struct.v4int32, %struct.v4int32* %retval, align 16
  ret %struct.v4int32 %2
}

; Function Attrs: nounwind readnone willreturn
declare dso_local x86_regcallcc %struct.v4int32 @__regcall3__chessintr_v4int32_undef_v4int32() addrspace(1) #13

; Function Attrs: alwaysinline nounwind mustprogress
define linkonce_odr dso_local void @_ZN3aie6detail6vectorIiLj16EE3setEij(%"class.aie::detail::vector.3"* nonnull dereferenceable(64) %this, i32 %v, i32 %idx) addrspace(1) #9 comdat align 2 !dbg !2535 {
entry:
  %tmp = alloca %struct.v16int32, align 32
  call addrspace(1) void @llvm.dbg.value(metadata %"class.aie::detail::vector.3"* %this, metadata !2537, metadata !DIExpression()), !dbg !2540
  call addrspace(1) void @llvm.dbg.value(metadata i32 %v, metadata !2538, metadata !DIExpression()), !dbg !2540
  call addrspace(1) void @llvm.dbg.value(metadata i32 %idx, metadata !2539, metadata !DIExpression()), !dbg !2540
  %cmp = icmp ult i32 %idx, 16, !dbg !2541
  %0 = call addrspace(1) i1 @llvm.is.constant.i1(i1 %cmp), !dbg !2541
  br i1 %0, label %do.body, label %if.end4, !dbg !2543

do.body:                                          ; preds = %entry
  %cmp2 = icmp ult i32 %idx, 16, !dbg !2544
  %1 = call addrspace(1) i1 @llvm.chess_manifest(i1 %cmp2), !dbg !2544
  br i1 %1, label %if.end4, label %if.then3, !dbg !2548

if.then3:                                         ; preds = %do.body
  call addrspace(1) void @llvm.chess_error(metadata !1399), !dbg !2544
  unreachable, !dbg !2544

if.end4:                                          ; preds = %do.body, %entry
  %cmp5 = icmp ult i32 %idx, 16, !dbg !2543
  call addrspace(1) void @llvm.assume(i1 %cmp5), !dbg !2543
  %data = getelementptr inbounds %"class.aie::detail::vector.3", %"class.aie::detail::vector.3"* %this, i32 0, i32 0, !dbg !2549
  %2 = bitcast %struct.v16int32* %tmp to i8*, !dbg !2554
  call addrspace(1) void @llvm.lifetime.start.p0i8(i64 64, i8* %2) #24, !dbg !2554
  %data6 = getelementptr inbounds %"class.aie::detail::vector.3", %"class.aie::detail::vector.3"* %this, i32 0, i32 0, !dbg !2555
  %3 = load %struct.v16int32, %struct.v16int32* %data6, align 32, !dbg !2554, !tbaa !2358
  %call = call addrspace(1) %struct.v16int32 @_Z8upd_elem8v16int32ji(%struct.v16int32 %3, i32 %idx, i32 %v) #27, !dbg !2554
  %4 = getelementptr inbounds %struct.v16int32, %struct.v16int32* %tmp, i32 0, i32 0, !dbg !2554
  %5 = extractvalue %struct.v16int32 %call, 0, !dbg !2554
  store %struct.ipd.custom_type.v64int8.v64int8 %5, %struct.ipd.custom_type.v64int8.v64int8* %4, align 32, !dbg !2554
  %6 = load %struct.v16int32, %struct.v16int32* %tmp, align 32, !dbg !2554, !tbaa !2370
  store %struct.v16int32 %6, %struct.v16int32* %data, align 32, !dbg !2554, !tbaa !2370
  %7 = bitcast %struct.v16int32* %tmp to i8*, !dbg !2554
  call addrspace(1) void @llvm.lifetime.end.p0i8(i64 64, i8* %7) #24, !dbg !2554
  ret void, !dbg !2556
}

; Function Attrs: alwaysinline nounwind mustprogress
define linkonce_odr dso_local %struct.v16int32 @_Z8upd_elem8v16int32ji(%struct.v16int32 %a0.coerce, i32 %a1, i32 %a2) addrspace(1) #9 comdat {
entry:
  %retval = alloca %struct.v16int32, align 32
  %call = call x86_regcallcc addrspace(1) %struct.v16int32 @__regcall3__chessintr_v16int32_upd_elem_v16int32___uint___sint(%struct.v16int32 %a0.coerce, i32 zeroext %a1, i32 signext %a2) #34
  %0 = getelementptr inbounds %struct.v16int32, %struct.v16int32* %retval, i32 0, i32 0
  %1 = extractvalue %struct.v16int32 %call, 0
  store %struct.ipd.custom_type.v64int8.v64int8 %1, %struct.ipd.custom_type.v64int8.v64int8* %0, align 32
  %2 = load %struct.v16int32, %struct.v16int32* %retval, align 32
  ret %struct.v16int32 %2
}

; Function Attrs: nounwind readnone willreturn
declare dso_local x86_regcallcc %struct.v16int32 @__regcall3__chessintr_v16int32_upd_elem_v16int32___uint___sint(%struct.v16int32, i32 zeroext, i32 signext) addrspace(1) #13

; Function Attrs: alwaysinline nounwind mustprogress
define linkonce_odr dso_local %"class.aie::detail::vector_elem_ref.4" @_ZN3aie6detail6vectorIiLj16EE8elem_refEj(%"class.aie::detail::vector.3"* nonnull dereferenceable(64) %this, i32 %idx) addrspace(1) #9 comdat align 2 !dbg !2557 {
entry:
  %retval = alloca %"class.aie::detail::vector_elem_ref.4", align 4
  call addrspace(1) void @llvm.dbg.value(metadata %"class.aie::detail::vector.3"* %this, metadata !2559, metadata !DIExpression()), !dbg !2561
  call addrspace(1) void @llvm.dbg.value(metadata i32 %idx, metadata !2560, metadata !DIExpression()), !dbg !2561
  %cmp = icmp ult i32 %idx, 16, !dbg !2562
  %0 = call addrspace(1) i1 @llvm.is.constant.i1(i1 %cmp), !dbg !2562
  br i1 %0, label %do.body, label %if.end4, !dbg !2564

do.body:                                          ; preds = %entry
  %cmp2 = icmp ult i32 %idx, 16, !dbg !2565
  %1 = call addrspace(1) i1 @llvm.chess_manifest(i1 %cmp2), !dbg !2565
  br i1 %1, label %if.end4, label %if.then3, !dbg !2569

if.then3:                                         ; preds = %do.body
  call addrspace(1) void @llvm.chess_error(metadata !1399), !dbg !2565
  unreachable, !dbg !2565

if.end4:                                          ; preds = %do.body, %entry
  %cmp5 = icmp ult i32 %idx, 16, !dbg !2564
  call addrspace(1) void @llvm.assume(i1 %cmp5), !dbg !2564
  call addrspace(1) void @_ZN3aie6detail15vector_elem_refIiLj16EEC2ERNS0_6vectorIiLj16EEEj(%"class.aie::detail::vector_elem_ref.4"* nonnull dereferenceable(8) %retval, %"class.aie::detail::vector.3"* nonnull align 32 dereferenceable(64) %this, i32 %idx) #27, !dbg !2570
  %2 = load %"class.aie::detail::vector_elem_ref.4", %"class.aie::detail::vector_elem_ref.4"* %retval, align 4, !dbg !2571
  ret %"class.aie::detail::vector_elem_ref.4" %2, !dbg !2571
}

; Function Attrs: alwaysinline nounwind
define linkonce_odr dso_local void @_ZN3aie6detail15vector_elem_refIiLj16EEC2ERNS0_6vectorIiLj16EEEj(%"class.aie::detail::vector_elem_ref.4"* nonnull dereferenceable(8) %this, %"class.aie::detail::vector.3"* nonnull align 32 dereferenceable(64) %v, i32 %idx) unnamed_addr addrspace(1) #11 comdat align 2 !dbg !2572 {
entry:
  call addrspace(1) void @llvm.dbg.value(metadata %"class.aie::detail::vector_elem_ref.4"* %this, metadata !2574, metadata !DIExpression()), !dbg !2577
  call addrspace(1) void @llvm.dbg.value(metadata %"class.aie::detail::vector.3"* %v, metadata !2575, metadata !DIExpression()), !dbg !2577
  call addrspace(1) void @llvm.dbg.value(metadata i32 %idx, metadata !2576, metadata !DIExpression()), !dbg !2577
  %parent = getelementptr inbounds %"class.aie::detail::vector_elem_ref.4", %"class.aie::detail::vector_elem_ref.4"* %this, i32 0, i32 0, !dbg !2578
  store %"class.aie::detail::vector.3"* %v, %"class.aie::detail::vector.3"** %parent, align 4, !dbg !2578, !tbaa !2579
  %offset = getelementptr inbounds %"class.aie::detail::vector_elem_ref.4", %"class.aie::detail::vector_elem_ref.4"* %this, i32 0, i32 1, !dbg !2580
  store i32 %idx, i32* %offset, align 4, !dbg !2580, !tbaa !2029
  ret void, !dbg !2581
}

; Function Attrs: alwaysinline nounwind mustprogress
define linkonce_odr dso_local %"class.aie::detail::vector.3" @_ZN3aie6detail5zerosIiLj16EEENS0_6vectorIT_XT0_EEEv() addrspace(1) #9 comdat !dbg !2582 {
entry:
  %retval = alloca %"class.aie::detail::vector.3", align 32
  %tmp = alloca %"class.aie::detail::vector.1", align 32
  %custom_type.tmp = alloca %"class.aie::detail::vector.1", align 32
  %ref.tmp = alloca %"class.aie::detail::vector.3", align 32
  store %"class.aie::detail::vector.1" undef, %"class.aie::detail::vector.1"* %tmp, align 32, !dbg !2592
  %0 = bitcast %"class.aie::detail::vector.1"* %tmp to i8*, !dbg !2592
  call addrspace(1) void @llvm.lifetime.start.p0i8(i64 32, i8* %0) #24, !dbg !2592
  call addrspace(1) void @llvm.dbg.declare(metadata %"class.aie::detail::vector.1"* %tmp, metadata !2587, metadata !DIExpression()), !dbg !2593
  %1 = load %struct.v8int32, %struct.v8int32* bitcast ([8 x i32]* @ZERO to %struct.v8int32*), align 32, !dbg !2593, !tbaa !2594
  call addrspace(1) void @_ZN3aie6detail6vectorIiLj8EEC2E7v8int32(%"class.aie::detail::vector.1"* nonnull dereferenceable(32) %custom_type.tmp, %struct.v8int32 %1) #27, !dbg !2593
  %2 = load %"class.aie::detail::vector.1", %"class.aie::detail::vector.1"* %custom_type.tmp, align 32, !dbg !2593, !tbaa !1850
  store %"class.aie::detail::vector.1" %2, %"class.aie::detail::vector.1"* %tmp, align 32, !dbg !2593, !tbaa !1850
  %3 = bitcast %"class.aie::detail::vector.3"* %ref.tmp to i8*, !dbg !2595
  call addrspace(1) void @llvm.lifetime.start.p0i8(i64 64, i8* %3) #24, !dbg !2595
  %call = call addrspace(1) %"class.aie::detail::vector.3" @_ZN3aie6detail13concat_vectorIJRKNS0_6vectorIiLj8EEES5_EEEDaDpOT_(%"class.aie::detail::vector.1"* nonnull align 32 dereferenceable(32) %tmp, %"class.aie::detail::vector.1"* nonnull align 32 dereferenceable(32) %tmp) #27, !dbg !2595
  %4 = getelementptr inbounds %"class.aie::detail::vector.3", %"class.aie::detail::vector.3"* %ref.tmp, i32 0, i32 0, !dbg !2595
  %5 = extractvalue %"class.aie::detail::vector.3" %call, 0, !dbg !2595
  store %struct.v16int32 %5, %struct.v16int32* %4, align 32, !dbg !2595
  %call1 = call addrspace(1) %"class.aie::detail::vector.3" @_ZN3aie6detail11vector_castIiiLj16EEEDaRKNS0_6vectorIT0_XT1_EEE(%"class.aie::detail::vector.3"* nonnull align 32 dereferenceable(64) %ref.tmp) #27, !dbg !2596
  %6 = getelementptr inbounds %"class.aie::detail::vector.3", %"class.aie::detail::vector.3"* %retval, i32 0, i32 0, !dbg !2596
  %7 = extractvalue %"class.aie::detail::vector.3" %call1, 0, !dbg !2596
  store %struct.v16int32 %7, %struct.v16int32* %6, align 32, !dbg !2596
  %8 = bitcast %"class.aie::detail::vector.3"* %ref.tmp to i8*, !dbg !2597
  call addrspace(1) void @llvm.lifetime.end.p0i8(i64 64, i8* %8) #24, !dbg !2597
  %9 = bitcast %"class.aie::detail::vector.1"* %tmp to i8*, !dbg !2598
  call addrspace(1) void @llvm.lifetime.end.p0i8(i64 32, i8* %9) #24, !dbg !2598
  %10 = load %"class.aie::detail::vector.3", %"class.aie::detail::vector.3"* %retval, align 32, !dbg !2599
  ret %"class.aie::detail::vector.3" %10, !dbg !2599
}

; Function Attrs: alwaysinline nounwind
define linkonce_odr dso_local void @_ZN3aie6detail6vectorIiLj8EEC2E7v8int32(%"class.aie::detail::vector.1"* nonnull dereferenceable(32) %this, %struct.v8int32 %v.coerce) unnamed_addr addrspace(1) #11 comdat align 2 !dbg !2600 {
entry:
  call addrspace(1) void @llvm.dbg.value(metadata %struct.v8int32 %v.coerce, metadata !2603, metadata !DIExpression()), !dbg !2604
  call addrspace(1) void @llvm.dbg.value(metadata %"class.aie::detail::vector.1"* %this, metadata !2602, metadata !DIExpression()), !dbg !2604
  %data = getelementptr inbounds %"class.aie::detail::vector.1", %"class.aie::detail::vector.1"* %this, i32 0, i32 0, !dbg !2605
  store %struct.v8int32 %v.coerce, %struct.v8int32* %data, align 32, !dbg !2606, !tbaa !2594
  ret void, !dbg !2607
}

; Function Attrs: alwaysinline nounwind mustprogress
define linkonce_odr dso_local %"class.aie::detail::vector.3" @_ZN3aie6detail13concat_vectorIJRKNS0_6vectorIiLj8EEES5_EEEDaDpOT_(%"class.aie::detail::vector.1"* nonnull align 32 dereferenceable(32) %vectors, %"class.aie::detail::vector.1"* nonnull align 32 dereferenceable(32) %vectors1) addrspace(1) #9 comdat !dbg !2608 {
entry:
  %retval = alloca %"class.aie::detail::vector.3", align 32
  call addrspace(1) void @llvm.dbg.value(metadata %"class.aie::detail::vector.1"* %vectors, metadata !2613, metadata !DIExpression()), !dbg !2619
  call addrspace(1) void @llvm.dbg.value(metadata %"class.aie::detail::vector.1"* %vectors1, metadata !2614, metadata !DIExpression()), !dbg !2619
  %call = call nonnull align 32 dereferenceable(32) addrspace(1) %"class.aie::detail::vector.1"* @_ZNSt3__27forwardIRKN3aie6detail6vectorIiLj8EEEEEOT_RNS_16remove_referenceIS7_E4typeE(%"class.aie::detail::vector.1"* nonnull align 32 dereferenceable(32) %vectors) #35, !dbg !2620
  %call3 = call nonnull align 32 dereferenceable(32) addrspace(1) %"class.aie::detail::vector.1"* @_ZNSt3__27forwardIRKN3aie6detail6vectorIiLj8EEEEEOT_RNS_16remove_referenceIS7_E4typeE(%"class.aie::detail::vector.1"* nonnull align 32 dereferenceable(32) %vectors1) #35, !dbg !2620
  %call4 = call addrspace(1) %"class.aie::detail::vector.3" @_ZN3aie6detail20concat_vector_helperIiLj8EE3runIJRKNS0_6vectorIiLj8EEES7_EEEDaDpOT_(%"class.aie::detail::vector.1"* nonnull align 32 dereferenceable(32) %call, %"class.aie::detail::vector.1"* nonnull align 32 dereferenceable(32) %call3) #27, !dbg !2621
  %0 = getelementptr inbounds %"class.aie::detail::vector.3", %"class.aie::detail::vector.3"* %retval, i32 0, i32 0, !dbg !2621
  %1 = extractvalue %"class.aie::detail::vector.3" %call4, 0, !dbg !2621
  store %struct.v16int32 %1, %struct.v16int32* %0, align 32, !dbg !2621
  %2 = load %"class.aie::detail::vector.3", %"class.aie::detail::vector.3"* %retval, align 32, !dbg !2622
  ret %"class.aie::detail::vector.3" %2, !dbg !2622
}

; Function Attrs: alwaysinline nounwind mustprogress
define linkonce_odr dso_local %"class.aie::detail::vector.3" @_ZN3aie6detail11vector_castIiiLj16EEEDaRKNS0_6vectorIT0_XT1_EEE(%"class.aie::detail::vector.3"* nonnull align 32 dereferenceable(64) %v) addrspace(1) #9 comdat !dbg !2623 {
entry:
  %retval = alloca %"class.aie::detail::vector.3", align 32
  call addrspace(1) void @llvm.dbg.value(metadata %"class.aie::detail::vector.3"* %v, metadata !2628, metadata !DIExpression()), !dbg !2632
  %call = call addrspace(1) %"class.aie::detail::vector.3" @_ZNK3aie6detail6vectorIiLj16EE7cast_toIiEEDav(%"class.aie::detail::vector.3"* nonnull dereferenceable(64) %v) #27, !dbg !2633
  %0 = getelementptr inbounds %"class.aie::detail::vector.3", %"class.aie::detail::vector.3"* %retval, i32 0, i32 0, !dbg !2633
  %1 = extractvalue %"class.aie::detail::vector.3" %call, 0, !dbg !2633
  store %struct.v16int32 %1, %struct.v16int32* %0, align 32, !dbg !2633
  %2 = load %"class.aie::detail::vector.3", %"class.aie::detail::vector.3"* %retval, align 32, !dbg !2634
  ret %"class.aie::detail::vector.3" %2, !dbg !2634
}

; Function Attrs: alwaysinline nounwind mustprogress
define linkonce_odr dso_local %"class.aie::detail::vector.3" @_ZNK3aie6detail6vectorIiLj16EE7cast_toIiEEDav(%"class.aie::detail::vector.3"* nonnull dereferenceable(64) %this) addrspace(1) #9 comdat align 2 !dbg !2635 {
entry:
  %ret = alloca %"class.aie::detail::vector.3", align 32
  %custom_type.tmp = alloca %"class.aie::detail::vector.3", align 32
  %tmp = alloca %struct.v16int32, align 32
  call addrspace(1) void @llvm.dbg.value(metadata %"class.aie::detail::vector.3"* %this, metadata !2641, metadata !DIExpression()), !dbg !2645
  call addrspace(1) void @llvm.dbg.value(metadata i32 undef, metadata !2642, metadata !DIExpression()), !dbg !2645
  call addrspace(1) void @llvm.dbg.value(metadata i32 32, metadata !2642, metadata !DIExpression()), !dbg !2645
  call addrspace(1) void @llvm.dbg.value(metadata i32 undef, metadata !2643, metadata !DIExpression()), !dbg !2645
  call addrspace(1) void @llvm.dbg.value(metadata i32 16, metadata !2643, metadata !DIExpression()), !dbg !2645
  store %"class.aie::detail::vector.3" undef, %"class.aie::detail::vector.3"* %ret, align 32, !dbg !2646
  %0 = bitcast %"class.aie::detail::vector.3"* %ret to i8*, !dbg !2646
  call addrspace(1) void @llvm.lifetime.start.p0i8(i64 64, i8* %0) #24, !dbg !2646
  call addrspace(1) void @llvm.dbg.declare(metadata %"class.aie::detail::vector.3"* %ret, metadata !2644, metadata !DIExpression()), !dbg !2647
  call addrspace(1) void @_ZN3aie6detail6vectorIiLj16EEC2Ev(%"class.aie::detail::vector.3"* nonnull dereferenceable(64) %custom_type.tmp) #27, !dbg !2647
  %1 = load %"class.aie::detail::vector.3", %"class.aie::detail::vector.3"* %custom_type.tmp, align 32, !dbg !2647, !tbaa !2648
  store %"class.aie::detail::vector.3" %1, %"class.aie::detail::vector.3"* %ret, align 32, !dbg !2647, !tbaa !2648
  %data = getelementptr inbounds %"class.aie::detail::vector.3", %"class.aie::detail::vector.3"* %ret, i32 0, i32 0, !dbg !2649
  %2 = bitcast %struct.v16int32* %tmp to i8*, !dbg !2650
  call addrspace(1) void @llvm.lifetime.start.p0i8(i64 64, i8* %2) #24, !dbg !2650
  %data2 = getelementptr inbounds %"class.aie::detail::vector.3", %"class.aie::detail::vector.3"* %this, i32 0, i32 0, !dbg !2651
  %data2.val = load %struct.v16int32, %struct.v16int32* %data2, align 32, !dbg !2650, !tbaa !2370
  %call = call addrspace(1) %struct.ipd.custom_type.v64int8.v64int8 @_ZN3aie6detailL18vector_cast_helperIiLj16ERK8v16int32EENS0_14vector_storageIT_XT0_EE4typeEOT1_(%struct.v16int32 %data2.val) #27, !dbg !2650
  %oldret = insertvalue %struct.v16int32 undef, %struct.ipd.custom_type.v64int8.v64int8 %call, 0, !dbg !2650
  %3 = getelementptr inbounds %struct.v16int32, %struct.v16int32* %tmp, i32 0, i32 0, !dbg !2650
  %4 = extractvalue %struct.v16int32 %oldret, 0, !dbg !2650
  store %struct.ipd.custom_type.v64int8.v64int8 %4, %struct.ipd.custom_type.v64int8.v64int8* %3, align 32, !dbg !2650
  %5 = load %struct.v16int32, %struct.v16int32* %tmp, align 32, !dbg !2650, !tbaa !2370
  store %struct.v16int32 %5, %struct.v16int32* %data, align 32, !dbg !2650, !tbaa !2370
  %6 = bitcast %struct.v16int32* %tmp to i8*, !dbg !2650
  call addrspace(1) void @llvm.lifetime.end.p0i8(i64 64, i8* %6) #24, !dbg !2650
  %7 = load %"class.aie::detail::vector.3", %"class.aie::detail::vector.3"* %ret, align 32, !dbg !2652, !tbaa !2648
  %8 = bitcast %"class.aie::detail::vector.3"* %ret to i8*, !dbg !2653
  call addrspace(1) void @llvm.lifetime.end.p0i8(i64 64, i8* %8) #24, !dbg !2653
  ret %"class.aie::detail::vector.3" %7, !dbg !2652
}

; Function Attrs: alwaysinline nounwind
define linkonce_odr dso_local void @_ZN3aie6detail6vectorIiLj16EEC2Ev(%"class.aie::detail::vector.3"* nonnull dereferenceable(64) %this) unnamed_addr addrspace(1) #11 comdat align 2 !dbg !2654 {
entry:
  call addrspace(1) void @llvm.dbg.value(metadata %"class.aie::detail::vector.3"* %this, metadata !2656, metadata !DIExpression()), !dbg !2657
  %data = getelementptr inbounds %"class.aie::detail::vector.3", %"class.aie::detail::vector.3"* %this, i32 0, i32 0, !dbg !2658
  %call = call addrspace(1) %struct.v16int32 @_ZN3aie6detail14vector_storageIiLj16EE5undefEv() #27, !dbg !2659
  %0 = getelementptr inbounds %struct.v16int32, %struct.v16int32* %data, i32 0, i32 0, !dbg !2659
  %1 = extractvalue %struct.v16int32 %call, 0, !dbg !2659
  store %struct.ipd.custom_type.v64int8.v64int8 %1, %struct.ipd.custom_type.v64int8.v64int8* %0, align 32, !dbg !2659
  ret void, !dbg !2660
}

; Function Attrs: alwaysinline nounwind mustprogress
define internal %struct.ipd.custom_type.v64int8.v64int8 @_ZN3aie6detailL18vector_cast_helperIiLj16ERK8v16int32EENS0_14vector_storageIT_XT0_EE4typeEOT1_(%struct.v16int32 %from.val) addrspace(1) #9 !dbg !2661 {
entry:
  %retval = alloca %struct.v16int32, align 32
  call addrspace(1) void @llvm.dbg.value(metadata %struct.v16int32* undef, metadata !2665, metadata !DIExpression()), !dbg !2668
  %call = call addrspace(1) %struct.v16int32 @_Z11as_v16int328v16int32(%struct.v16int32 %from.val) #27, !dbg !2669
  %0 = getelementptr inbounds %struct.v16int32, %struct.v16int32* %retval, i32 0, i32 0, !dbg !2669
  %1 = extractvalue %struct.v16int32 %call, 0, !dbg !2669
  store %struct.ipd.custom_type.v64int8.v64int8 %1, %struct.ipd.custom_type.v64int8.v64int8* %0, align 32, !dbg !2669
  %2 = load %struct.v16int32, %struct.v16int32* %retval, align 32, !dbg !2671
  %oldret = extractvalue %struct.v16int32 %2, 0, !dbg !2671
  ret %struct.ipd.custom_type.v64int8.v64int8 %oldret, !dbg !2671
}

; Function Attrs: alwaysinline nounwind mustprogress
define linkonce_odr dso_local %struct.v16int32 @_Z11as_v16int328v16int32(%struct.v16int32 %a.coerce) addrspace(1) #9 comdat {
entry:
  ret %struct.v16int32 %a.coerce
}

; Function Attrs: alwaysinline nounwind mustprogress
define linkonce_odr dso_local %struct.v16int32 @_ZN3aie6detail14vector_storageIiLj16EE5undefEv() addrspace(1) #9 comdat align 2 !dbg !2672 {
entry:
  %retval = alloca %struct.v16int32, align 32
  %call = call addrspace(1) %struct.v16int32 @_Z14undef_v16int32v() #27, !dbg !2673
  %0 = getelementptr inbounds %struct.v16int32, %struct.v16int32* %retval, i32 0, i32 0, !dbg !2673
  %1 = extractvalue %struct.v16int32 %call, 0, !dbg !2673
  store %struct.ipd.custom_type.v64int8.v64int8 %1, %struct.ipd.custom_type.v64int8.v64int8* %0, align 32, !dbg !2673
  %2 = load %struct.v16int32, %struct.v16int32* %retval, align 32, !dbg !2674
  ret %struct.v16int32 %2, !dbg !2674
}

; Function Attrs: alwaysinline nounwind mustprogress
define linkonce_odr dso_local %struct.v16int32 @_Z14undef_v16int32v() addrspace(1) #9 comdat {
entry:
  %retval = alloca %struct.v16int32, align 32
  %call = call x86_regcallcc addrspace(1) %struct.v16int32 @__regcall3__chessintr_v16int32_undef_v16int32() #34
  %0 = getelementptr inbounds %struct.v16int32, %struct.v16int32* %retval, i32 0, i32 0
  %1 = extractvalue %struct.v16int32 %call, 0
  store %struct.ipd.custom_type.v64int8.v64int8 %1, %struct.ipd.custom_type.v64int8.v64int8* %0, align 32
  %2 = load %struct.v16int32, %struct.v16int32* %retval, align 32
  ret %struct.v16int32 %2
}

; Function Attrs: nounwind readnone willreturn
declare dso_local x86_regcallcc %struct.v16int32 @__regcall3__chessintr_v16int32_undef_v16int32() addrspace(1) #13

; Function Attrs: alwaysinline nounwind mustprogress
define linkonce_odr hidden nonnull align 32 dereferenceable(32) %"class.aie::detail::vector.1"* @_ZNSt3__27forwardIRKN3aie6detail6vectorIiLj8EEEEEOT_RNS_16remove_referenceIS7_E4typeE(%"class.aie::detail::vector.1"* nonnull align 32 dereferenceable(32) %__t) addrspace(1) #9 comdat !dbg !2675 {
entry:
  call addrspace(1) void @llvm.dbg.value(metadata %"class.aie::detail::vector.1"* %__t, metadata !2680, metadata !DIExpression()), !dbg !2683
  ret %"class.aie::detail::vector.1"* %__t, !dbg !2684
}

; Function Attrs: alwaysinline nounwind mustprogress
define linkonce_odr dso_local %"class.aie::detail::vector.3" @_ZN3aie6detail20concat_vector_helperIiLj8EE3runIJRKNS0_6vectorIiLj8EEES7_EEEDaDpOT_(%"class.aie::detail::vector.1"* nonnull align 32 dereferenceable(32) %vectors, %"class.aie::detail::vector.1"* nonnull align 32 dereferenceable(32) %vectors1) addrspace(1) #9 comdat align 2 !dbg !2685 {
entry:
  %ret = alloca %"class.aie::detail::vector.3", align 32
  %custom_type.tmp = alloca %"class.aie::detail::vector.3", align 32
  call addrspace(1) void @llvm.dbg.value(metadata %"class.aie::detail::vector.1"* %vectors, metadata !2689, metadata !DIExpression()), !dbg !2693
  call addrspace(1) void @llvm.dbg.value(metadata %"class.aie::detail::vector.1"* %vectors1, metadata !2690, metadata !DIExpression()), !dbg !2693
  store %"class.aie::detail::vector.3" undef, %"class.aie::detail::vector.3"* %ret, align 32, !dbg !2694
  %0 = bitcast %"class.aie::detail::vector.3"* %ret to i8*, !dbg !2694
  call addrspace(1) void @llvm.lifetime.start.p0i8(i64 64, i8* %0) #24, !dbg !2694
  call addrspace(1) void @llvm.dbg.declare(metadata %"class.aie::detail::vector.3"* %ret, metadata !2691, metadata !DIExpression()), !dbg !2695
  call addrspace(1) void @_ZN3aie6detail6vectorIiLj16EEC2Ev(%"class.aie::detail::vector.3"* nonnull dereferenceable(64) %custom_type.tmp) #27, !dbg !2695
  %1 = load %"class.aie::detail::vector.3", %"class.aie::detail::vector.3"* %custom_type.tmp, align 32, !dbg !2695, !tbaa !2648
  store %"class.aie::detail::vector.3" %1, %"class.aie::detail::vector.3"* %ret, align 32, !dbg !2695, !tbaa !2648
  %call = call nonnull align 32 dereferenceable(32) addrspace(1) %"class.aie::detail::vector.1"* @_ZNSt3__27forwardIRKN3aie6detail6vectorIiLj8EEEEEOT_RNS_16remove_referenceIS7_E4typeE(%"class.aie::detail::vector.1"* nonnull align 32 dereferenceable(32) %vectors) #35, !dbg !2696
  %call3 = call nonnull align 32 dereferenceable(32) addrspace(1) %"class.aie::detail::vector.1"* @_ZNSt3__27forwardIRKN3aie6detail6vectorIiLj8EEEEEOT_RNS_16remove_referenceIS7_E4typeE(%"class.aie::detail::vector.1"* nonnull align 32 dereferenceable(32) %vectors1) #35, !dbg !2696
  %call4 = call nonnull align 32 dereferenceable(64) addrspace(1) %"class.aie::detail::vector.3"* @_ZN3aie6detail6vectorIiLj16EE7upd_allIJRKNS1_IiLj8EEES6_EEERS2_DpOT_(%"class.aie::detail::vector.3"* nonnull dereferenceable(64) %ret, %"class.aie::detail::vector.1"* nonnull align 32 dereferenceable(32) %call, %"class.aie::detail::vector.1"* nonnull align 32 dereferenceable(32) %call3) #27, !dbg !2697
  %2 = load %"class.aie::detail::vector.3", %"class.aie::detail::vector.3"* %ret, align 32, !dbg !2698, !tbaa !2648
  %3 = bitcast %"class.aie::detail::vector.3"* %ret to i8*, !dbg !2699
  call addrspace(1) void @llvm.lifetime.end.p0i8(i64 64, i8* %3) #24, !dbg !2699
  ret %"class.aie::detail::vector.3" %2, !dbg !2698
}

; Function Attrs: alwaysinline nounwind mustprogress
define linkonce_odr dso_local nonnull align 32 dereferenceable(64) %"class.aie::detail::vector.3"* @_ZN3aie6detail6vectorIiLj16EE7upd_allIJRKNS1_IiLj8EEES6_EEERS2_DpOT_(%"class.aie::detail::vector.3"* nonnull dereferenceable(64) %this, %"class.aie::detail::vector.1"* nonnull align 32 dereferenceable(32) %subvectors, %"class.aie::detail::vector.1"* nonnull align 32 dereferenceable(32) %subvectors1) addrspace(1) #9 comdat align 2 !dbg !2700 {
entry:
  %tmp = alloca %struct.v16int32, align 32
  call addrspace(1) void @llvm.dbg.value(metadata %"class.aie::detail::vector.3"* %this, metadata !2707, metadata !DIExpression()), !dbg !2713
  call addrspace(1) void @llvm.dbg.value(metadata %"class.aie::detail::vector.1"* %subvectors, metadata !2708, metadata !DIExpression()), !dbg !2713
  call addrspace(1) void @llvm.dbg.value(metadata %"class.aie::detail::vector.1"* %subvectors1, metadata !2709, metadata !DIExpression()), !dbg !2713
  call addrspace(1) void @llvm.dbg.value(metadata i32 undef, metadata !2710, metadata !DIExpression()), !dbg !2713
  call addrspace(1) void @llvm.dbg.value(metadata i32 2, metadata !2710, metadata !DIExpression()), !dbg !2713
  call addrspace(1) void @llvm.dbg.value(metadata i32 undef, metadata !2711, metadata !DIExpression()), !dbg !2713
  call addrspace(1) void @llvm.dbg.value(metadata i32 256, metadata !2711, metadata !DIExpression()), !dbg !2713
  call addrspace(1) void @llvm.dbg.value(metadata i32 undef, metadata !2712, metadata !DIExpression()), !dbg !2713
  call addrspace(1) void @llvm.dbg.value(metadata i32 8, metadata !2712, metadata !DIExpression()), !dbg !2713
  %data = getelementptr inbounds %"class.aie::detail::vector.3", %"class.aie::detail::vector.3"* %this, i32 0, i32 0, !dbg !2714
  %0 = bitcast %struct.v16int32* %tmp to i8*, !dbg !2717
  call addrspace(1) void @llvm.lifetime.start.p0i8(i64 64, i8* %0) #24, !dbg !2717
  %call = call nonnull align 32 dereferenceable(32) addrspace(1) %"class.aie::detail::vector.1"* @_ZNSt3__27forwardIRKN3aie6detail6vectorIiLj8EEEEEOT_RNS_16remove_referenceIS7_E4typeE(%"class.aie::detail::vector.1"* nonnull align 32 dereferenceable(32) %subvectors) #35, !dbg !2718
  %data4 = getelementptr inbounds %"class.aie::detail::vector.1", %"class.aie::detail::vector.1"* %call, i32 0, i32 0, !dbg !2719
  %call5 = call nonnull align 32 dereferenceable(32) addrspace(1) %"class.aie::detail::vector.1"* @_ZNSt3__27forwardIRKN3aie6detail6vectorIiLj8EEEEEOT_RNS_16remove_referenceIS7_E4typeE(%"class.aie::detail::vector.1"* nonnull align 32 dereferenceable(32) %subvectors1) #35, !dbg !2718
  %data6 = getelementptr inbounds %"class.aie::detail::vector.1", %"class.aie::detail::vector.1"* %call5, i32 0, i32 0, !dbg !2719
  %1 = load %struct.v8int32, %struct.v8int32* %data4, align 32, !dbg !2717, !tbaa !2720
  %2 = load %struct.v8int32, %struct.v8int32* %data6, align 32, !dbg !2717, !tbaa !2720
  %call7 = call addrspace(1) %struct.v16int32 @_Z6concat7v8int32S_(%struct.v8int32 %1, %struct.v8int32 %2) #27, !dbg !2717
  %3 = getelementptr inbounds %struct.v16int32, %struct.v16int32* %tmp, i32 0, i32 0, !dbg !2717
  %4 = extractvalue %struct.v16int32 %call7, 0, !dbg !2717
  store %struct.ipd.custom_type.v64int8.v64int8 %4, %struct.ipd.custom_type.v64int8.v64int8* %3, align 32, !dbg !2717
  %5 = load %struct.v16int32, %struct.v16int32* %tmp, align 32, !dbg !2717, !tbaa !2370
  store %struct.v16int32 %5, %struct.v16int32* %data, align 32, !dbg !2717, !tbaa !2370
  %6 = bitcast %struct.v16int32* %tmp to i8*, !dbg !2717
  call addrspace(1) void @llvm.lifetime.end.p0i8(i64 64, i8* %6) #24, !dbg !2717
  ret %"class.aie::detail::vector.3"* %this, !dbg !2721
}

; Function Attrs: alwaysinline nounwind mustprogress
define linkonce_odr dso_local %struct.v16int32 @_Z6concat7v8int32S_(%struct.v8int32 %a0.coerce, %struct.v8int32 %a1.coerce) addrspace(1) #9 comdat {
entry:
  %retval = alloca %struct.v16int32, align 32
  %call = call x86_regcallcc addrspace(1) %struct.v16int32 @__regcall3__chessintr_v16int32_concat_v8int32_v8int32(%struct.v8int32 %a0.coerce, %struct.v8int32 %a1.coerce) #34
  %0 = getelementptr inbounds %struct.v16int32, %struct.v16int32* %retval, i32 0, i32 0
  %1 = extractvalue %struct.v16int32 %call, 0
  store %struct.ipd.custom_type.v64int8.v64int8 %1, %struct.ipd.custom_type.v64int8.v64int8* %0, align 32
  %2 = load %struct.v16int32, %struct.v16int32* %retval, align 32
  ret %struct.v16int32 %2
}

; Function Attrs: nounwind readnone willreturn
declare dso_local x86_regcallcc %struct.v16int32 @__regcall3__chessintr_v16int32_concat_v8int32_v8int32(%struct.v8int32, %struct.v8int32) addrspace(1) #13

; Function Attrs: alwaysinline nounwind mustprogress
define linkonce_odr dso_local %"class.aie::detail::vector" @_ZNK3aie6detail6vectorIiLj8EE7extractILj4EEENS1_IiXT_EEEj(%"class.aie::detail::vector.1"* nonnull dereferenceable(32) %this, i32 %idx) addrspace(1) #9 comdat align 2 !dbg !2722 {
entry:
  %retval = alloca %"class.aie::detail::vector", align 16
  %custom_type.tmp = alloca %"class.aie::detail::vector", align 16
  %tmp = alloca %struct.v4int32, align 16
  %tmp8 = alloca %"class.aie::detail::vector.12", align 32
  %custom_type.tmp9 = alloca %"class.aie::detail::vector.12", align 32
  %agg.tmp = alloca %struct.v8cint32, align 32
  %agg.tmp10 = alloca %struct.v8cint32, align 32
  %ref.tmp = alloca %"class.aie::detail::vector.12", align 32
  %ref.tmp11 = alloca %"class.aie::detail::vector.13", align 32
  %custom_type.tmp16 = alloca %"class.aie::detail::vector", align 16
  %agg.tmp17 = alloca %struct.v4int32, align 16
  %ref.tmp18 = alloca %struct.v2cint32, align 16
  %agg.tmp19 = alloca %struct.v8cint32, align 32
  call addrspace(1) void @llvm.dbg.value(metadata %"class.aie::detail::vector.1"* %this, metadata !2727, metadata !DIExpression()), !dbg !2743
  call addrspace(1) void @llvm.dbg.value(metadata i32 %idx, metadata !2729, metadata !DIExpression()), !dbg !2743
  %cmp = icmp ult i32 %idx, 2, !dbg !2744
  %0 = call addrspace(1) i1 @llvm.is.constant.i1(i1 %cmp), !dbg !2744
  br i1 %0, label %do.body, label %if.end4, !dbg !2746

do.body:                                          ; preds = %entry
  %cmp2 = icmp ult i32 %idx, 2, !dbg !2747
  %1 = call addrspace(1) i1 @llvm.chess_manifest(i1 %cmp2), !dbg !2747
  br i1 %1, label %if.end4, label %if.then3, !dbg !2751

if.then3:                                         ; preds = %do.body
  call addrspace(1) void @llvm.chess_error(metadata !2066), !dbg !2747
  unreachable, !dbg !2747

if.end4:                                          ; preds = %do.body, %entry
  %cmp5 = icmp ult i32 %idx, 2, !dbg !2746
  call addrspace(1) void @llvm.assume(i1 %cmp5), !dbg !2746
  call addrspace(1) void @llvm.dbg.value(metadata i32 undef, metadata !2730, metadata !DIExpression()), !dbg !2743
  call addrspace(1) void @llvm.dbg.value(metadata i32 128, metadata !2730, metadata !DIExpression()), !dbg !2743
  call addrspace(1) void @llvm.dbg.declare(metadata %"class.aie::detail::vector"* %retval, metadata !2731, metadata !DIExpression()), !dbg !2752
  call addrspace(1) void @_ZN3aie6detail6vectorIiLj4EEC2Ev(%"class.aie::detail::vector"* nonnull dereferenceable(16) %custom_type.tmp) #27, !dbg !2752
  %2 = load %"class.aie::detail::vector", %"class.aie::detail::vector"* %custom_type.tmp, align 16, !dbg !2752, !tbaa !2070
  store %"class.aie::detail::vector" %2, %"class.aie::detail::vector"* %retval, align 16, !dbg !2752, !tbaa !2070
  %3 = call addrspace(1) i1 @llvm.is.constant.i32(i32 %idx), !dbg !2753
  br i1 %3, label %if.then6, label %if.else, !dbg !2754

if.then6:                                         ; preds = %if.end4
  %data = getelementptr inbounds %"class.aie::detail::vector", %"class.aie::detail::vector"* %retval, i32 0, i32 0, !dbg !2755
  %4 = bitcast %struct.v4int32* %tmp to i8*, !dbg !2761
  call addrspace(1) void @llvm.lifetime.start.p0i8(i64 16, i8* %4) #24, !dbg !2761
  %data7 = getelementptr inbounds %"class.aie::detail::vector.1", %"class.aie::detail::vector.1"* %this, i32 0, i32 0, !dbg !2762
  %5 = load %struct.v8int32, %struct.v8int32* %data7, align 32, !dbg !2761, !tbaa !2720
  %call = call addrspace(1) %struct.v4int32 @_Z5ext_v7v8int32i(%struct.v8int32 %5, i32 %idx) #29, !dbg !2761
  %6 = getelementptr inbounds %struct.v4int32, %struct.v4int32* %tmp, i32 0, i32 0, !dbg !2761
  %7 = extractvalue %struct.v4int32 %call, 0, !dbg !2761
  store %struct.ipd.custom_type.v16int8.v16int8 %7, %struct.ipd.custom_type.v16int8.v16int8* %6, align 16, !dbg !2761
  %8 = load %struct.v4int32, %struct.v4int32* %tmp, align 16, !dbg !2761, !tbaa !2079
  store %struct.v4int32 %8, %struct.v4int32* %data, align 16, !dbg !2761, !tbaa !2079
  %9 = bitcast %struct.v4int32* %tmp to i8*, !dbg !2761
  call addrspace(1) void @llvm.lifetime.end.p0i8(i64 16, i8* %9) #24, !dbg !2761
  br label %cleanup, !dbg !2763

if.else:                                          ; preds = %if.end4
  call addrspace(1) void @llvm.dbg.value(metadata i32 undef, metadata !2734, metadata !DIExpression()), !dbg !2764
  call addrspace(1) void @llvm.dbg.value(metadata i32 2, metadata !2734, metadata !DIExpression()), !dbg !2764
  call addrspace(1) void @llvm.dbg.value(metadata i32 undef, metadata !2737, metadata !DIExpression()), !dbg !2765
  call addrspace(1) void @llvm.dbg.value(metadata i32 8, metadata !2737, metadata !DIExpression()), !dbg !2765
  store %"class.aie::detail::vector.12" undef, %"class.aie::detail::vector.12"* %tmp8, align 32, !dbg !2766
  %10 = bitcast %"class.aie::detail::vector.12"* %tmp8 to i8*, !dbg !2766
  call addrspace(1) void @llvm.lifetime.start.p0i8(i64 64, i8* %10) #24, !dbg !2766
  call addrspace(1) void @llvm.dbg.declare(metadata %"class.aie::detail::vector.12"* %tmp8, metadata !2742, metadata !DIExpression()), !dbg !2767
  %11 = bitcast %"class.aie::detail::vector.12"* %ref.tmp to i8*, !dbg !2768
  call addrspace(1) void @llvm.lifetime.start.p0i8(i64 64, i8* %11) #24, !dbg !2768
  %12 = bitcast %"class.aie::detail::vector.13"* %ref.tmp11 to i8*, !dbg !2768
  call addrspace(1) void @llvm.lifetime.start.p0i8(i64 32, i8* %12) #24, !dbg !2768
  %call12 = call addrspace(1) %"class.aie::detail::vector.13" @_ZNK3aie6detail6vectorIiLj8EE7cast_toI6cint32EEDav(%"class.aie::detail::vector.1"* nonnull dereferenceable(32) %this) #27, !dbg !2768
  %13 = getelementptr inbounds %"class.aie::detail::vector.13", %"class.aie::detail::vector.13"* %ref.tmp11, i32 0, i32 0, !dbg !2768
  %14 = extractvalue %"class.aie::detail::vector.13" %call12, 0, !dbg !2768
  store %struct.v4cint32 %14, %struct.v4cint32* %13, align 32, !dbg !2768
  %call13 = call addrspace(1) %"class.aie::detail::vector.12" @_ZNK3aie6detail6vectorI6cint32Lj4EE4growILj8EEENS1_IS2_XT_EEEj(%"class.aie::detail::vector.13"* nonnull dereferenceable(32) %ref.tmp11, i32 0) #27, !dbg !2769
  %15 = getelementptr inbounds %"class.aie::detail::vector.12", %"class.aie::detail::vector.12"* %ref.tmp, i32 0, i32 0, !dbg !2769
  %16 = extractvalue %"class.aie::detail::vector.12" %call13, 0, !dbg !2769
  store %struct.v8cint32 %16, %struct.v8cint32* %15, align 32, !dbg !2769
  %call14 = call addrspace(1) %struct.v8cint32 @_ZNK3aie6detail6vectorI6cint32Lj8EEcv8v8cint32Ev(%"class.aie::detail::vector.12"* nonnull dereferenceable(64) %ref.tmp) #27, !dbg !2768
  %17 = getelementptr inbounds %struct.v8cint32, %struct.v8cint32* %agg.tmp10, i32 0, i32 0, !dbg !2768
  %18 = extractvalue %struct.v8cint32 %call14, 0, !dbg !2768
  store %struct.ipd.custom_type.v64int8.v64int8 %18, %struct.ipd.custom_type.v64int8.v64int8* %17, align 32, !dbg !2768
  %mul = mul i32 %idx, 2, !dbg !2770
  %19 = load %struct.v8cint32, %struct.v8cint32* %agg.tmp10, align 32, !dbg !2771, !tbaa !2370
  %call15 = call addrspace(1) %struct.v8cint32 @_Z8shuffle88v8cint32ij(%struct.v8cint32 %19, i32 %mul, i32 16) #27, !dbg !2771
  %20 = getelementptr inbounds %struct.v8cint32, %struct.v8cint32* %agg.tmp, i32 0, i32 0, !dbg !2771
  %21 = extractvalue %struct.v8cint32 %call15, 0, !dbg !2771
  store %struct.ipd.custom_type.v64int8.v64int8 %21, %struct.ipd.custom_type.v64int8.v64int8* %20, align 32, !dbg !2771
  %22 = load %struct.v8cint32, %struct.v8cint32* %agg.tmp, align 32, !dbg !2771, !tbaa !2370
  call addrspace(1) void @_ZN3aie6detail6vectorI6cint32Lj8EEC2E8v8cint32(%"class.aie::detail::vector.12"* nonnull dereferenceable(64) %custom_type.tmp9, %struct.v8cint32 %22) #27, !dbg !2771
  %23 = load %"class.aie::detail::vector.12", %"class.aie::detail::vector.12"* %custom_type.tmp9, align 32, !dbg !2771, !tbaa !2371
  store %"class.aie::detail::vector.12" %23, %"class.aie::detail::vector.12"* %tmp8, align 32, !dbg !2771, !tbaa !2371
  %24 = bitcast %"class.aie::detail::vector.13"* %ref.tmp11 to i8*, !dbg !2771
  call addrspace(1) void @llvm.lifetime.end.p0i8(i64 32, i8* %24) #24, !dbg !2771
  %25 = bitcast %"class.aie::detail::vector.12"* %ref.tmp to i8*, !dbg !2771
  call addrspace(1) void @llvm.lifetime.end.p0i8(i64 64, i8* %25) #24, !dbg !2771
  %26 = bitcast %struct.v2cint32* %ref.tmp18 to i8*, !dbg !2772
  call addrspace(1) void @llvm.lifetime.start.p0i8(i64 16, i8* %26) #24, !dbg !2772
  %call20 = call addrspace(1) %struct.v8cint32 @_ZNK3aie6detail6vectorI6cint32Lj8EEcv8v8cint32Ev(%"class.aie::detail::vector.12"* nonnull dereferenceable(64) %tmp8) #27, !dbg !2773
  %27 = getelementptr inbounds %struct.v8cint32, %struct.v8cint32* %agg.tmp19, i32 0, i32 0, !dbg !2773
  %28 = extractvalue %struct.v8cint32 %call20, 0, !dbg !2773
  store %struct.ipd.custom_type.v64int8.v64int8 %28, %struct.ipd.custom_type.v64int8.v64int8* %27, align 32, !dbg !2773
  %29 = load %struct.v8cint32, %struct.v8cint32* %agg.tmp19, align 32, !dbg !2772, !tbaa !2370
  %call21 = call addrspace(1) %struct.v2cint32 @_Z5ext_v8v8cint32i(%struct.v8cint32 %29, i32 0) #29, !dbg !2772
  %30 = getelementptr inbounds %struct.v2cint32, %struct.v2cint32* %ref.tmp18, i32 0, i32 0, !dbg !2772
  %31 = extractvalue %struct.v2cint32 %call21, 0, !dbg !2772
  store %struct.ipd.custom_type.v16int8.v16int8 %31, %struct.ipd.custom_type.v16int8.v16int8* %30, align 16, !dbg !2772
  %ref.tmp18.val = load %struct.v2cint32, %struct.v2cint32* %ref.tmp18, align 16, !dbg !2774, !tbaa !2079
  %call22 = call addrspace(1) %struct.ipd.custom_type.v16int8.v16int8 @_ZN3aie6detailL18vector_cast_helperIiLj4E8v2cint32EENS0_14vector_storageIT_XT0_EE4typeEOT1_(%struct.v2cint32 %ref.tmp18.val) #27, !dbg !2774
  %oldret = insertvalue %struct.v4int32 undef, %struct.ipd.custom_type.v16int8.v16int8 %call22, 0, !dbg !2774
  %32 = getelementptr inbounds %struct.v4int32, %struct.v4int32* %agg.tmp17, i32 0, i32 0, !dbg !2774
  %33 = extractvalue %struct.v4int32 %oldret, 0, !dbg !2774
  store %struct.ipd.custom_type.v16int8.v16int8 %33, %struct.ipd.custom_type.v16int8.v16int8* %32, align 16, !dbg !2774
  %34 = load %struct.v4int32, %struct.v4int32* %agg.tmp17, align 16, !dbg !2774, !tbaa !2079
  call addrspace(1) void @_ZN3aie6detail6vectorIiLj4EEC2E7v4int32(%"class.aie::detail::vector"* nonnull dereferenceable(16) %custom_type.tmp16, %struct.v4int32 %34) #27, !dbg !2774
  %35 = load %"class.aie::detail::vector", %"class.aie::detail::vector"* %custom_type.tmp16, align 16, !dbg !2774, !tbaa !2070
  store %"class.aie::detail::vector" %35, %"class.aie::detail::vector"* %retval, align 16, !dbg !2774, !tbaa !2070
  %36 = bitcast %struct.v2cint32* %ref.tmp18 to i8*, !dbg !2775
  call addrspace(1) void @llvm.lifetime.end.p0i8(i64 16, i8* %36) #24, !dbg !2775
  %37 = bitcast %"class.aie::detail::vector.12"* %tmp8 to i8*, !dbg !2776
  call addrspace(1) void @llvm.lifetime.end.p0i8(i64 64, i8* %37) #24, !dbg !2776
  br label %cleanup, !dbg !2777

cleanup:                                          ; preds = %if.else, %if.then6
  %38 = load %"class.aie::detail::vector", %"class.aie::detail::vector"* %retval, align 16, !dbg !2778
  ret %"class.aie::detail::vector" %38, !dbg !2778
}

; Function Attrs: alwaysinline nounwind mustprogress
define linkonce_odr dso_local %struct.v4int32 @_Z5ext_v7v8int32i(%struct.v8int32 %a0.coerce, i32 %a1) addrspace(1) #10 comdat {
entry:
  %retval = alloca %struct.v4int32, align 16
  %call = call x86_regcallcc addrspace(1) %struct.v4int32 @__regcall3__chessintr_v4int32_ext_v_v8int32___sint(%struct.v8int32 %a0.coerce, i32 signext %a1) #34
  %0 = getelementptr inbounds %struct.v4int32, %struct.v4int32* %retval, i32 0, i32 0
  %1 = extractvalue %struct.v4int32 %call, 0
  store %struct.ipd.custom_type.v16int8.v16int8 %1, %struct.ipd.custom_type.v16int8.v16int8* %0, align 16
  %2 = load %struct.v4int32, %struct.v4int32* %retval, align 16
  ret %struct.v4int32 %2
}

; Function Attrs: alwaysinline nounwind mustprogress
define linkonce_odr dso_local %"class.aie::detail::vector.13" @_ZNK3aie6detail6vectorIiLj8EE7cast_toI6cint32EEDav(%"class.aie::detail::vector.1"* nonnull dereferenceable(32) %this) addrspace(1) #9 comdat align 2 !dbg !2779 {
entry:
  %ret = alloca %"class.aie::detail::vector.13", align 32
  %custom_type.tmp = alloca %"class.aie::detail::vector.13", align 32
  %tmp = alloca %struct.v4cint32, align 32
  call addrspace(1) void @llvm.dbg.value(metadata %"class.aie::detail::vector.1"* %this, metadata !2856, metadata !DIExpression()), !dbg !2860
  call addrspace(1) void @llvm.dbg.value(metadata i32 undef, metadata !2857, metadata !DIExpression()), !dbg !2860
  call addrspace(1) void @llvm.dbg.value(metadata i32 64, metadata !2857, metadata !DIExpression()), !dbg !2860
  call addrspace(1) void @llvm.dbg.value(metadata i32 undef, metadata !2858, metadata !DIExpression()), !dbg !2860
  call addrspace(1) void @llvm.dbg.value(metadata i32 4, metadata !2858, metadata !DIExpression()), !dbg !2860
  store %"class.aie::detail::vector.13" undef, %"class.aie::detail::vector.13"* %ret, align 32, !dbg !2861
  %0 = bitcast %"class.aie::detail::vector.13"* %ret to i8*, !dbg !2861
  call addrspace(1) void @llvm.lifetime.start.p0i8(i64 32, i8* %0) #24, !dbg !2861
  call addrspace(1) void @llvm.dbg.declare(metadata %"class.aie::detail::vector.13"* %ret, metadata !2859, metadata !DIExpression()), !dbg !2862
  call addrspace(1) void @_ZN3aie6detail6vectorI6cint32Lj4EEC2Ev(%"class.aie::detail::vector.13"* nonnull dereferenceable(32) %custom_type.tmp) #27, !dbg !2862
  %1 = load %"class.aie::detail::vector.13", %"class.aie::detail::vector.13"* %custom_type.tmp, align 32, !dbg !2862, !tbaa !2863
  store %"class.aie::detail::vector.13" %1, %"class.aie::detail::vector.13"* %ret, align 32, !dbg !2862, !tbaa !2863
  %data = getelementptr inbounds %"class.aie::detail::vector.13", %"class.aie::detail::vector.13"* %ret, i32 0, i32 0, !dbg !2865
  %2 = bitcast %struct.v4cint32* %tmp to i8*, !dbg !2866
  call addrspace(1) void @llvm.lifetime.start.p0i8(i64 32, i8* %2) #24, !dbg !2866
  %data2 = getelementptr inbounds %"class.aie::detail::vector.1", %"class.aie::detail::vector.1"* %this, i32 0, i32 0, !dbg !2867
  %data2.val = load %struct.v8int32, %struct.v8int32* %data2, align 32, !dbg !2866, !tbaa !2594
  %call = call addrspace(1) %struct.ipd.custom_type.v32int8.v32int8 @_ZN3aie6detailL18vector_cast_helperI6cint32Lj4ERK7v8int32EENS0_14vector_storageIT_XT0_EE4typeEOT1_(%struct.v8int32 %data2.val) #27, !dbg !2866
  %oldret = insertvalue %struct.v4cint32 undef, %struct.ipd.custom_type.v32int8.v32int8 %call, 0, !dbg !2866
  %3 = getelementptr inbounds %struct.v4cint32, %struct.v4cint32* %tmp, i32 0, i32 0, !dbg !2866
  %4 = extractvalue %struct.v4cint32 %oldret, 0, !dbg !2866
  store %struct.ipd.custom_type.v32int8.v32int8 %4, %struct.ipd.custom_type.v32int8.v32int8* %3, align 32, !dbg !2866
  %5 = load %struct.v4cint32, %struct.v4cint32* %tmp, align 32, !dbg !2866, !tbaa !2594
  store %struct.v4cint32 %5, %struct.v4cint32* %data, align 32, !dbg !2866, !tbaa !2594
  %6 = bitcast %struct.v4cint32* %tmp to i8*, !dbg !2866
  call addrspace(1) void @llvm.lifetime.end.p0i8(i64 32, i8* %6) #24, !dbg !2866
  %7 = load %"class.aie::detail::vector.13", %"class.aie::detail::vector.13"* %ret, align 32, !dbg !2868, !tbaa !2863
  %8 = bitcast %"class.aie::detail::vector.13"* %ret to i8*, !dbg !2869
  call addrspace(1) void @llvm.lifetime.end.p0i8(i64 32, i8* %8) #24, !dbg !2869
  ret %"class.aie::detail::vector.13" %7, !dbg !2868
}

; Function Attrs: alwaysinline nounwind mustprogress
define linkonce_odr dso_local %"class.aie::detail::vector.12" @_ZNK3aie6detail6vectorI6cint32Lj4EE4growILj8EEENS1_IS2_XT_EEEj(%"class.aie::detail::vector.13"* nonnull dereferenceable(32) %this, i32 %idx) addrspace(1) #9 comdat align 2 !dbg !2870 {
entry:
  %retval = alloca %"class.aie::detail::vector.12", align 32
  %custom_type.tmp = alloca %"class.aie::detail::vector.12", align 32
  %tmp = alloca %struct.v8cint32, align 32
  call addrspace(1) void @llvm.dbg.value(metadata %"class.aie::detail::vector.13"* %this, metadata !2875, metadata !DIExpression()), !dbg !2880
  call addrspace(1) void @llvm.dbg.value(metadata i32 0, metadata !2877, metadata !DIExpression()), !dbg !2880
  call addrspace(1) void @llvm.dbg.value(metadata i32 undef, metadata !2878, metadata !DIExpression()), !dbg !2880
  call addrspace(1) void @llvm.dbg.value(metadata i32 512, metadata !2878, metadata !DIExpression()), !dbg !2880
  call addrspace(1) void @llvm.dbg.declare(metadata %"class.aie::detail::vector.12"* %retval, metadata !2879, metadata !DIExpression()), !dbg !2881
  call addrspace(1) void @_ZN3aie6detail6vectorI6cint32Lj8EEC2Ev(%"class.aie::detail::vector.12"* nonnull dereferenceable(64) %custom_type.tmp) #27, !dbg !2881
  %0 = load %"class.aie::detail::vector.12", %"class.aie::detail::vector.12"* %custom_type.tmp, align 32, !dbg !2881, !tbaa !2371
  store %"class.aie::detail::vector.12" %0, %"class.aie::detail::vector.12"* %retval, align 32, !dbg !2881, !tbaa !2371
  %data = getelementptr inbounds %"class.aie::detail::vector.12", %"class.aie::detail::vector.12"* %retval, i32 0, i32 0, !dbg !2882
  %1 = bitcast %struct.v8cint32* %tmp to i8*, !dbg !2889
  call addrspace(1) void @llvm.lifetime.start.p0i8(i64 64, i8* %1) #24, !dbg !2889
  %data2 = getelementptr inbounds %"class.aie::detail::vector.13", %"class.aie::detail::vector.13"* %this, i32 0, i32 0, !dbg !2890
  %2 = load %struct.v4cint32, %struct.v4cint32* %data2, align 32, !dbg !2889, !tbaa !2891
  %call = call addrspace(1) %struct.v8cint32 @_Z6xset_wi8v4cint32(i32 0, %struct.v4cint32 %2) #29, !dbg !2889
  %3 = getelementptr inbounds %struct.v8cint32, %struct.v8cint32* %tmp, i32 0, i32 0, !dbg !2889
  %4 = extractvalue %struct.v8cint32 %call, 0, !dbg !2889
  store %struct.ipd.custom_type.v64int8.v64int8 %4, %struct.ipd.custom_type.v64int8.v64int8* %3, align 32, !dbg !2889
  %5 = load %struct.v8cint32, %struct.v8cint32* %tmp, align 32, !dbg !2889, !tbaa !2370
  store %struct.v8cint32 %5, %struct.v8cint32* %data, align 32, !dbg !2889, !tbaa !2370
  %6 = bitcast %struct.v8cint32* %tmp to i8*, !dbg !2889
  call addrspace(1) void @llvm.lifetime.end.p0i8(i64 64, i8* %6) #24, !dbg !2889
  %7 = load %"class.aie::detail::vector.12", %"class.aie::detail::vector.12"* %retval, align 32, !dbg !2892
  ret %"class.aie::detail::vector.12" %7, !dbg !2892
}

; Function Attrs: alwaysinline nounwind mustprogress
define linkonce_odr dso_local %struct.v8cint32 @_Z6xset_wi8v4cint32(i32 %a0, %struct.v4cint32 %a1.coerce) addrspace(1) #10 comdat {
entry:
  %retval = alloca %struct.v8cint32, align 32
  %call = call x86_regcallcc addrspace(1) %struct.v8cint32 @__regcall3__chessintr_v8cint32_xset_w___sint_v4cint32(i32 signext 0, %struct.v4cint32 %a1.coerce) #34
  %0 = getelementptr inbounds %struct.v8cint32, %struct.v8cint32* %retval, i32 0, i32 0
  %1 = extractvalue %struct.v8cint32 %call, 0
  store %struct.ipd.custom_type.v64int8.v64int8 %1, %struct.ipd.custom_type.v64int8.v64int8* %0, align 32
  %2 = load %struct.v8cint32, %struct.v8cint32* %retval, align 32
  ret %struct.v8cint32 %2
}

; Function Attrs: nounwind readnone willreturn
declare dso_local x86_regcallcc %struct.v8cint32 @__regcall3__chessintr_v8cint32_xset_w___sint_v4cint32(i32 signext, %struct.v4cint32) addrspace(1) #13

; Function Attrs: alwaysinline nounwind
define linkonce_odr dso_local void @_ZN3aie6detail6vectorI6cint32Lj4EEC2Ev(%"class.aie::detail::vector.13"* nonnull dereferenceable(32) %this) unnamed_addr addrspace(1) #11 comdat align 2 !dbg !2893 {
entry:
  call addrspace(1) void @llvm.dbg.value(metadata %"class.aie::detail::vector.13"* %this, metadata !2895, metadata !DIExpression()), !dbg !2897
  %data = getelementptr inbounds %"class.aie::detail::vector.13", %"class.aie::detail::vector.13"* %this, i32 0, i32 0, !dbg !2898
  %call = call addrspace(1) %struct.v4cint32 @_ZN3aie6detail14vector_storageI6cint32Lj4EE5undefEv() #27, !dbg !2899
  %0 = getelementptr inbounds %struct.v4cint32, %struct.v4cint32* %data, i32 0, i32 0, !dbg !2899
  %1 = extractvalue %struct.v4cint32 %call, 0, !dbg !2899
  store %struct.ipd.custom_type.v32int8.v32int8 %1, %struct.ipd.custom_type.v32int8.v32int8* %0, align 32, !dbg !2899
  ret void, !dbg !2900
}

; Function Attrs: alwaysinline nounwind mustprogress
define internal %struct.ipd.custom_type.v32int8.v32int8 @_ZN3aie6detailL18vector_cast_helperI6cint32Lj4ERK7v8int32EENS0_14vector_storageIT_XT0_EE4typeEOT1_(%struct.v8int32 %from.val) addrspace(1) #9 !dbg !2901 {
entry:
  %retval = alloca %struct.v4cint32, align 32
  call addrspace(1) void @llvm.dbg.value(metadata %struct.v8int32* undef, metadata !2907, metadata !DIExpression()), !dbg !2910
  %call = call addrspace(1) %struct.v4cint32 @_Z11as_v4cint327v8int32(%struct.v8int32 %from.val) #27, !dbg !2911
  %0 = getelementptr inbounds %struct.v4cint32, %struct.v4cint32* %retval, i32 0, i32 0, !dbg !2911
  %1 = extractvalue %struct.v4cint32 %call, 0, !dbg !2911
  store %struct.ipd.custom_type.v32int8.v32int8 %1, %struct.ipd.custom_type.v32int8.v32int8* %0, align 32, !dbg !2911
  %2 = load %struct.v4cint32, %struct.v4cint32* %retval, align 32, !dbg !2913
  %oldret = extractvalue %struct.v4cint32 %2, 0, !dbg !2913
  ret %struct.ipd.custom_type.v32int8.v32int8 %oldret, !dbg !2913
}

; Function Attrs: alwaysinline nounwind mustprogress
define linkonce_odr dso_local %struct.v4cint32 @_Z11as_v4cint327v8int32(%struct.v8int32 %a.coerce) addrspace(1) #9 comdat {
entry:
  %a = alloca %struct.v8int32, align 32
  %custom_type.tmp = alloca %struct.v4cint32, align 32
  store %struct.v8int32 %a.coerce, %struct.v8int32* %a, align 32
  %mw = getelementptr inbounds %struct.v8int32, %struct.v8int32* %a, i32 0, i32 0
  %0 = load %struct.ipd.custom_type.v32int8.v32int8, %struct.ipd.custom_type.v32int8.v32int8* %mw, align 32, !tbaa !2594
  call addrspace(1) void @_ZN8v4cint32C2E17chessllvmInternal7v32int8(%struct.v4cint32* nonnull dereferenceable(32) %custom_type.tmp, i32 0, %struct.ipd.custom_type.v32int8.v32int8 %0) #27
  %1 = load %struct.v4cint32, %struct.v4cint32* %custom_type.tmp, align 32, !tbaa !2594
  ret %struct.v4cint32 %1
}

; Function Attrs: alwaysinline nounwind
define linkonce_odr dso_local void @_ZN8v4cint32C2E17chessllvmInternal7v32int8(%struct.v4cint32* nonnull dereferenceable(32) %this, i32 %0, %struct.ipd.custom_type.v32int8.v32int8 %aw.coerce) unnamed_addr addrspace(1) #11 comdat align 2 !dbg !2914 {
entry:
  call addrspace(1) void @llvm.dbg.value(metadata %struct.ipd.custom_type.v32int8.v32int8 %aw.coerce, metadata !2941, metadata !DIExpression()), !dbg !2942
  call addrspace(1) void @llvm.dbg.value(metadata %struct.v4cint32* %this, metadata !2938, metadata !DIExpression()), !dbg !2942
  call addrspace(1) void @llvm.dbg.value(metadata i32 0, metadata !2940, metadata !DIExpression()), !dbg !2942
  %mw = getelementptr inbounds %struct.v4cint32, %struct.v4cint32* %this, i32 0, i32 0, !dbg !2943
  store %struct.ipd.custom_type.v32int8.v32int8 %aw.coerce, %struct.ipd.custom_type.v32int8.v32int8* %mw, align 32, !dbg !2944, !tbaa !2594
  ret void, !dbg !2945
}

; Function Attrs: alwaysinline nounwind mustprogress
define linkonce_odr dso_local %struct.v4cint32 @_ZN3aie6detail14vector_storageI6cint32Lj4EE5undefEv() addrspace(1) #9 comdat align 2 !dbg !2946 {
entry:
  %retval = alloca %struct.v4cint32, align 32
  %call = call addrspace(1) %struct.v4cint32 @_Z14undef_v4cint32v() #27, !dbg !2947
  %0 = getelementptr inbounds %struct.v4cint32, %struct.v4cint32* %retval, i32 0, i32 0, !dbg !2947
  %1 = extractvalue %struct.v4cint32 %call, 0, !dbg !2947
  store %struct.ipd.custom_type.v32int8.v32int8 %1, %struct.ipd.custom_type.v32int8.v32int8* %0, align 32, !dbg !2947
  %2 = load %struct.v4cint32, %struct.v4cint32* %retval, align 32, !dbg !2948
  ret %struct.v4cint32 %2, !dbg !2948
}

; Function Attrs: alwaysinline nounwind mustprogress
define linkonce_odr dso_local %struct.v4cint32 @_Z14undef_v4cint32v() addrspace(1) #9 comdat {
entry:
  %retval = alloca %struct.v4cint32, align 32
  %call = call x86_regcallcc addrspace(1) %struct.v4cint32 @__regcall3__chessintr_v4cint32_undef_v4cint32() #34
  %0 = getelementptr inbounds %struct.v4cint32, %struct.v4cint32* %retval, i32 0, i32 0
  %1 = extractvalue %struct.v4cint32 %call, 0
  store %struct.ipd.custom_type.v32int8.v32int8 %1, %struct.ipd.custom_type.v32int8.v32int8* %0, align 32
  %2 = load %struct.v4cint32, %struct.v4cint32* %retval, align 32
  ret %struct.v4cint32 %2
}

; Function Attrs: nounwind readnone willreturn
declare dso_local x86_regcallcc %struct.v4cint32 @__regcall3__chessintr_v4cint32_undef_v4cint32() addrspace(1) #13

; Function Attrs: nounwind readnone willreturn
declare dso_local x86_regcallcc %struct.v4int32 @__regcall3__chessintr_v4int32_ext_v_v8int32___sint(%struct.v8int32, i32 signext) addrspace(1) #13

; Function Attrs: alwaysinline nounwind mustprogress
define linkonce_odr dso_local void @_ZN3aie6detail6vectorIiLj8EE3setEij(%"class.aie::detail::vector.1"* nonnull dereferenceable(32) %this, i32 %v, i32 %idx) addrspace(1) #9 comdat align 2 !dbg !2949 {
entry:
  %tmp = alloca %struct.v8int32, align 32
  call addrspace(1) void @llvm.dbg.value(metadata %"class.aie::detail::vector.1"* %this, metadata !2951, metadata !DIExpression()), !dbg !2954
  call addrspace(1) void @llvm.dbg.value(metadata i32 %v, metadata !2952, metadata !DIExpression()), !dbg !2954
  call addrspace(1) void @llvm.dbg.value(metadata i32 %idx, metadata !2953, metadata !DIExpression()), !dbg !2954
  %cmp = icmp ult i32 %idx, 8, !dbg !2955
  %0 = call addrspace(1) i1 @llvm.is.constant.i1(i1 %cmp), !dbg !2955
  br i1 %0, label %do.body, label %if.end4, !dbg !2957

do.body:                                          ; preds = %entry
  %cmp2 = icmp ult i32 %idx, 8, !dbg !2958
  %1 = call addrspace(1) i1 @llvm.chess_manifest(i1 %cmp2), !dbg !2958
  br i1 %1, label %if.end4, label %if.then3, !dbg !2962

if.then3:                                         ; preds = %do.body
  call addrspace(1) void @llvm.chess_error(metadata !1399), !dbg !2958
  unreachable, !dbg !2958

if.end4:                                          ; preds = %do.body, %entry
  %cmp5 = icmp ult i32 %idx, 8, !dbg !2957
  call addrspace(1) void @llvm.assume(i1 %cmp5), !dbg !2957
  %data = getelementptr inbounds %"class.aie::detail::vector.1", %"class.aie::detail::vector.1"* %this, i32 0, i32 0, !dbg !2963
  %2 = bitcast %struct.v8int32* %tmp to i8*, !dbg !2968
  call addrspace(1) void @llvm.lifetime.start.p0i8(i64 32, i8* %2) #24, !dbg !2968
  %data6 = getelementptr inbounds %"class.aie::detail::vector.1", %"class.aie::detail::vector.1"* %this, i32 0, i32 0, !dbg !2969
  %3 = load %struct.v8int32, %struct.v8int32* %data6, align 32, !dbg !2968, !tbaa !2720
  %call = call addrspace(1) %struct.v8int32 @_Z8upd_elem7v8int32ji(%struct.v8int32 %3, i32 %idx, i32 %v) #27, !dbg !2968
  %4 = getelementptr inbounds %struct.v8int32, %struct.v8int32* %tmp, i32 0, i32 0, !dbg !2968
  %5 = extractvalue %struct.v8int32 %call, 0, !dbg !2968
  store %struct.ipd.custom_type.v32int8.v32int8 %5, %struct.ipd.custom_type.v32int8.v32int8* %4, align 32, !dbg !2968
  %6 = load %struct.v8int32, %struct.v8int32* %tmp, align 32, !dbg !2968, !tbaa !2594
  store %struct.v8int32 %6, %struct.v8int32* %data, align 32, !dbg !2968, !tbaa !2594
  %7 = bitcast %struct.v8int32* %tmp to i8*, !dbg !2968
  call addrspace(1) void @llvm.lifetime.end.p0i8(i64 32, i8* %7) #24, !dbg !2968
  ret void, !dbg !2970
}

; Function Attrs: alwaysinline nounwind mustprogress
define linkonce_odr dso_local %struct.v8int32 @_Z8upd_elem7v8int32ji(%struct.v8int32 %a0.coerce, i32 %a1, i32 %a2) addrspace(1) #9 comdat {
entry:
  %retval = alloca %struct.v8int32, align 32
  %call = call x86_regcallcc addrspace(1) %struct.v8int32 @__regcall3__chessintr_v8int32_upd_elem_v8int32___uint___sint(%struct.v8int32 %a0.coerce, i32 zeroext %a1, i32 signext %a2) #34
  %0 = getelementptr inbounds %struct.v8int32, %struct.v8int32* %retval, i32 0, i32 0
  %1 = extractvalue %struct.v8int32 %call, 0
  store %struct.ipd.custom_type.v32int8.v32int8 %1, %struct.ipd.custom_type.v32int8.v32int8* %0, align 32
  %2 = load %struct.v8int32, %struct.v8int32* %retval, align 32
  ret %struct.v8int32 %2
}

; Function Attrs: nounwind readnone willreturn
declare dso_local x86_regcallcc %struct.v8int32 @__regcall3__chessintr_v8int32_upd_elem_v8int32___uint___sint(%struct.v8int32, i32 zeroext, i32 signext) addrspace(1) #13

; Function Attrs: alwaysinline nounwind mustprogress
define linkonce_odr dso_local %"class.aie::detail::vector_elem_ref.2" @_ZN3aie6detail6vectorIiLj8EE8elem_refEj(%"class.aie::detail::vector.1"* nonnull dereferenceable(32) %this, i32 %idx) addrspace(1) #9 comdat align 2 !dbg !2971 {
entry:
  %retval = alloca %"class.aie::detail::vector_elem_ref.2", align 4
  call addrspace(1) void @llvm.dbg.value(metadata %"class.aie::detail::vector.1"* %this, metadata !2973, metadata !DIExpression()), !dbg !2975
  call addrspace(1) void @llvm.dbg.value(metadata i32 %idx, metadata !2974, metadata !DIExpression()), !dbg !2975
  %cmp = icmp ult i32 %idx, 8, !dbg !2976
  %0 = call addrspace(1) i1 @llvm.is.constant.i1(i1 %cmp), !dbg !2976
  br i1 %0, label %do.body, label %if.end4, !dbg !2978

do.body:                                          ; preds = %entry
  %cmp2 = icmp ult i32 %idx, 8, !dbg !2979
  %1 = call addrspace(1) i1 @llvm.chess_manifest(i1 %cmp2), !dbg !2979
  br i1 %1, label %if.end4, label %if.then3, !dbg !2983

if.then3:                                         ; preds = %do.body
  call addrspace(1) void @llvm.chess_error(metadata !1399), !dbg !2979
  unreachable, !dbg !2979

if.end4:                                          ; preds = %do.body, %entry
  %cmp5 = icmp ult i32 %idx, 8, !dbg !2978
  call addrspace(1) void @llvm.assume(i1 %cmp5), !dbg !2978
  call addrspace(1) void @_ZN3aie6detail15vector_elem_refIiLj8EEC2ERNS0_6vectorIiLj8EEEj(%"class.aie::detail::vector_elem_ref.2"* nonnull dereferenceable(8) %retval, %"class.aie::detail::vector.1"* nonnull align 32 dereferenceable(32) %this, i32 %idx) #27, !dbg !2984
  %2 = load %"class.aie::detail::vector_elem_ref.2", %"class.aie::detail::vector_elem_ref.2"* %retval, align 4, !dbg !2985
  ret %"class.aie::detail::vector_elem_ref.2" %2, !dbg !2985
}

; Function Attrs: alwaysinline nounwind
define linkonce_odr dso_local void @_ZN3aie6detail15vector_elem_refIiLj8EEC2ERNS0_6vectorIiLj8EEEj(%"class.aie::detail::vector_elem_ref.2"* nonnull dereferenceable(8) %this, %"class.aie::detail::vector.1"* nonnull align 32 dereferenceable(32) %v, i32 %idx) unnamed_addr addrspace(1) #11 comdat align 2 !dbg !2986 {
entry:
  call addrspace(1) void @llvm.dbg.value(metadata %"class.aie::detail::vector_elem_ref.2"* %this, metadata !2988, metadata !DIExpression()), !dbg !2991
  call addrspace(1) void @llvm.dbg.value(metadata %"class.aie::detail::vector.1"* %v, metadata !2989, metadata !DIExpression()), !dbg !2991
  call addrspace(1) void @llvm.dbg.value(metadata i32 %idx, metadata !2990, metadata !DIExpression()), !dbg !2991
  %parent = getelementptr inbounds %"class.aie::detail::vector_elem_ref.2", %"class.aie::detail::vector_elem_ref.2"* %this, i32 0, i32 0, !dbg !2992
  store %"class.aie::detail::vector.1"* %v, %"class.aie::detail::vector.1"** %parent, align 4, !dbg !2992, !tbaa !2579
  %offset = getelementptr inbounds %"class.aie::detail::vector_elem_ref.2", %"class.aie::detail::vector_elem_ref.2"* %this, i32 0, i32 1, !dbg !2993
  store i32 %idx, i32* %offset, align 4, !dbg !2993, !tbaa !1988
  ret void, !dbg !2994
}

; Function Attrs: alwaysinline nounwind mustprogress
define linkonce_odr dso_local i32 @_ZN5Point4getXEv(%class.Point* nonnull dereferenceable(12) %this) addrspace(1) #9 comdat align 2 !dbg !2995 {
entry:
  call addrspace(1) void @llvm.dbg.value(metadata %class.Point* %this, metadata !2997, metadata !DIExpression()), !dbg !2998
  %x = getelementptr inbounds %class.Point, %class.Point* %this, i32 0, i32 1, !dbg !2999
  %0 = load i32, i32* %x, align 4, !dbg !2999, !tbaa !1484
  ret i32 %0, !dbg !3000
}

; Function Attrs: alwaysinline nounwind mustprogress
define linkonce_odr dso_local i32 @_ZN5Point4getYEv(%class.Point* nonnull dereferenceable(12) %this) addrspace(1) #9 comdat align 2 !dbg !3001 {
entry:
  call addrspace(1) void @llvm.dbg.value(metadata %class.Point* %this, metadata !3003, metadata !DIExpression()), !dbg !3004
  %y = getelementptr inbounds %class.Point, %class.Point* %this, i32 0, i32 2, !dbg !3005
  %0 = load i32, i32* %y, align 4, !dbg !3005, !tbaa !1488
  ret i32 %0, !dbg !3006
}

; Function Attrs: alwaysinline nounwind mustprogress
define linkonce_odr dso_local i32 @_ZN3aie10reduce_minINS_6detail6vectorIiLj8EEEEENT_10value_typeERKS4_(%"class.aie::detail::vector.1"* nonnull align 32 dereferenceable(32) %v) addrspace(1) #9 comdat !dbg !3007 {
entry:
  call addrspace(1) void @llvm.dbg.value(metadata %"class.aie::detail::vector.1"* %v, metadata !3011, metadata !DIExpression()), !dbg !3015
  call addrspace(1) void @llvm.dbg.value(metadata i32 undef, metadata !3012, metadata !DIExpression()), !dbg !3015
  call addrspace(1) void @llvm.dbg.value(metadata i32 8, metadata !3012, metadata !DIExpression()), !dbg !3015
  %call = call addrspace(1) i32 @_ZN3aie6detail19max_min_reduce_bitsILj32EiLj8ELNS0_15MaxMinOperationE1EE3runERKNS0_6vectorIiLj8EEE(%"class.aie::detail::vector.1"* nonnull align 32 dereferenceable(32) %v) #27, !dbg !3016
  ret i32 %call, !dbg !3017
}

; Function Attrs: alwaysinline nounwind mustprogress
define linkonce_odr dso_local zeroext i1 @_ZNK3aie6detail15vector_elem_refIiLj8EEeqIiEEbT_(%"class.aie::detail::vector_elem_ref.2"* nonnull dereferenceable(8) %this, i32 %v) addrspace(1) #9 comdat align 2 !dbg !3018 {
entry:
  call addrspace(1) void @llvm.dbg.value(metadata %"class.aie::detail::vector_elem_ref.2"* %this, metadata !3025, metadata !DIExpression()), !dbg !3028
  call addrspace(1) void @llvm.dbg.value(metadata i32 %v, metadata !3027, metadata !DIExpression()), !dbg !3028
  %call = call addrspace(1) i32 @_ZNK3aie6detail15vector_elem_refIiLj8EEcviEv(%"class.aie::detail::vector_elem_ref.2"* nonnull dereferenceable(8) %this) #27, !dbg !3029
  %cmp = icmp eq i32 %call, %v, !dbg !3030
  ret i1 %cmp, !dbg !3031
}

; Function Attrs: alwaysinline nounwind mustprogress
define linkonce_odr dso_local i32 @_ZNK3aie6detail15vector_elem_refIiLj8EEcviEv(%"class.aie::detail::vector_elem_ref.2"* nonnull dereferenceable(8) %this) addrspace(1) #9 comdat align 2 !dbg !3032 {
entry:
  call addrspace(1) void @llvm.dbg.value(metadata %"class.aie::detail::vector_elem_ref.2"* %this, metadata !3034, metadata !DIExpression()), !dbg !3035
  %call = call addrspace(1) i32 @_ZNK3aie6detail15vector_elem_refIiLj8EE3getEv(%"class.aie::detail::vector_elem_ref.2"* nonnull dereferenceable(8) %this) #27, !dbg !3036
  ret i32 %call, !dbg !3037
}

; Function Attrs: alwaysinline nounwind mustprogress
define linkonce_odr dso_local i32 @_ZNK3aie6detail15vector_elem_refIiLj8EE3getEv(%"class.aie::detail::vector_elem_ref.2"* nonnull dereferenceable(8) %this) addrspace(1) #9 comdat align 2 !dbg !3038 {
entry:
  call addrspace(1) void @llvm.dbg.value(metadata %"class.aie::detail::vector_elem_ref.2"* %this, metadata !3040, metadata !DIExpression()), !dbg !3041
  %parent = getelementptr inbounds %"class.aie::detail::vector_elem_ref.2", %"class.aie::detail::vector_elem_ref.2"* %this, i32 0, i32 0, !dbg !3042
  %0 = load %"class.aie::detail::vector.1"*, %"class.aie::detail::vector.1"** %parent, align 4, !dbg !3042, !tbaa !1983
  %offset = getelementptr inbounds %"class.aie::detail::vector_elem_ref.2", %"class.aie::detail::vector_elem_ref.2"* %this, i32 0, i32 1, !dbg !3043
  %1 = load i32, i32* %offset, align 4, !dbg !3043, !tbaa !1988
  %call = call addrspace(1) i32 @_ZNK3aie6detail6vectorIiLj8EE3getEj(%"class.aie::detail::vector.1"* nonnull dereferenceable(32) %0, i32 %1) #27, !dbg !3044
  ret i32 %call, !dbg !3045
}

; Function Attrs: alwaysinline nounwind mustprogress
define linkonce_odr dso_local i32 @_ZNK3aie6detail6vectorIiLj8EE3getEj(%"class.aie::detail::vector.1"* nonnull dereferenceable(32) %this, i32 %idx) addrspace(1) #9 comdat align 2 !dbg !3046 {
entry:
  call addrspace(1) void @llvm.dbg.value(metadata %"class.aie::detail::vector.1"* %this, metadata !3048, metadata !DIExpression()), !dbg !3050
  call addrspace(1) void @llvm.dbg.value(metadata i32 %idx, metadata !3049, metadata !DIExpression()), !dbg !3050
  %cmp = icmp ult i32 %idx, 8, !dbg !3051
  %0 = call addrspace(1) i1 @llvm.is.constant.i1(i1 %cmp), !dbg !3051
  br i1 %0, label %do.body, label %if.end4, !dbg !3053

do.body:                                          ; preds = %entry
  %cmp2 = icmp ult i32 %idx, 8, !dbg !3054
  %1 = call addrspace(1) i1 @llvm.chess_manifest(i1 %cmp2), !dbg !3054
  br i1 %1, label %if.end4, label %if.then3, !dbg !3058

if.then3:                                         ; preds = %do.body
  call addrspace(1) void @llvm.chess_error(metadata !1399), !dbg !3054
  unreachable, !dbg !3054

if.end4:                                          ; preds = %do.body, %entry
  %cmp5 = icmp ult i32 %idx, 8, !dbg !3053
  call addrspace(1) void @llvm.assume(i1 %cmp5), !dbg !3053
  %data = getelementptr inbounds %"class.aie::detail::vector.1", %"class.aie::detail::vector.1"* %this, i32 0, i32 0, !dbg !3059
  %2 = load %struct.v8int32, %struct.v8int32* %data, align 32, !dbg !3064, !tbaa !2720
  %call = call addrspace(1) i32 @_Z8ext_elem7v8int32j(%struct.v8int32 %2, i32 %idx) #27, !dbg !3064
  ret i32 %call, !dbg !3065
}

; Function Attrs: alwaysinline nounwind mustprogress
define linkonce_odr dso_local i32 @_Z8ext_elem7v8int32j(%struct.v8int32 %a0.coerce, i32 %a1) addrspace(1) #9 comdat {
entry:
  %call = call x86_regcallcc signext addrspace(1) i32 @__regcall3__chessintr___sint_ext_elem_v8int32___uint(%struct.v8int32 %a0.coerce, i32 zeroext %a1) #34
  ret i32 %call
}

; Function Attrs: nounwind readnone willreturn
declare dso_local x86_regcallcc signext i32 @__regcall3__chessintr___sint_ext_elem_v8int32___uint(%struct.v8int32, i32 zeroext) addrspace(1) #13

; Function Attrs: alwaysinline nounwind mustprogress
define linkonce_odr dso_local i32 @_ZN3aie6detail19max_min_reduce_bitsILj32EiLj8ELNS0_15MaxMinOperationE1EE3runERKNS0_6vectorIiLj8EEE(%"class.aie::detail::vector.1"* nonnull align 32 dereferenceable(32) %v) addrspace(1) #9 comdat align 2 !dbg !3066 {
entry:
  call addrspace(1) void @llvm.dbg.value(metadata %"class.aie::detail::vector.1"* %v, metadata !3079, metadata !DIExpression()), !dbg !3080
  %call = call addrspace(1) i32 @_ZN3aie6detail24max_min_bits_reduce_implILj32EiLj8ELNS0_15MaxMinOperationE1EE3runERKNS0_6vectorIiLj8EEE(%"class.aie::detail::vector.1"* nonnull align 32 dereferenceable(32) %v) #27, !dbg !3081
  ret i32 %call, !dbg !3082
}

; Function Attrs: alwaysinline nounwind mustprogress
define linkonce_odr dso_local i32 @_ZN3aie6detail24max_min_bits_reduce_implILj32EiLj8ELNS0_15MaxMinOperationE1EE3runERKNS0_6vectorIiLj8EEE(%"class.aie::detail::vector.1"* nonnull align 32 dereferenceable(32) %v) addrspace(1) #9 comdat align 2 !dbg !3083 {
entry:
  %op = alloca %class.anon, align 1
  %v2 = alloca %"class.aie::detail::vector.3", align 32
  %custom_type.tmp = alloca %"class.aie::detail::vector.3", align 32
  %custom_type.tmp1 = alloca %"class.aie::detail::vector.3", align 32
  %agg.tmp = alloca %struct.v16int32, align 32
  %ref.tmp = alloca %"class.aie::detail::vector.3", align 32
  %ref.tmp2 = alloca i32, align 4
  %ref.tmp3 = alloca i32, align 4
  %ref.tmp4 = alloca i32, align 4
  %ref.tmp5 = alloca i32, align 4
  %ref.tmp6 = alloca i32, align 4
  %ref.tmp7 = alloca i32, align 4
  %custom_type.tmp9 = alloca %"class.aie::detail::vector.3", align 32
  %agg.tmp10 = alloca %struct.v16int32, align 32
  %ref.tmp11 = alloca i32, align 4
  %ref.tmp12 = alloca i32, align 4
  %ref.tmp13 = alloca i32, align 4
  %ref.tmp14 = alloca i32, align 4
  %ref.tmp15 = alloca i32, align 4
  %ref.tmp16 = alloca i32, align 4
  %custom_type.tmp18 = alloca %"class.aie::detail::vector.3", align 32
  %agg.tmp19 = alloca %struct.v16int32, align 32
  %ref.tmp20 = alloca i32, align 4
  %ref.tmp21 = alloca i32, align 4
  %ref.tmp22 = alloca i32, align 4
  %ref.tmp23 = alloca i32, align 4
  %ref.tmp24 = alloca i32, align 4
  %ref.tmp25 = alloca i32, align 4
  %ref.tmp27 = alloca %"class.aie::detail::vector_elem_ref.4", align 4
  call addrspace(1) void @llvm.dbg.value(metadata %"class.aie::detail::vector.1"* %v, metadata !3097, metadata !DIExpression()), !dbg !3102
  store %class.anon undef, %class.anon* %op, align 1, !dbg !3103
  %0 = bitcast %class.anon* %op to i8*, !dbg !3103
  call addrspace(1) void @llvm.lifetime.start.p0i8(i64 1, i8* %0) #24, !dbg !3103
  call addrspace(1) void @llvm.dbg.declare(metadata %class.anon* %op, metadata !3098, metadata !DIExpression()), !dbg !3104
  %1 = bitcast %class.anon* %op to i8*, !dbg !3104
  call addrspace(1) void @llvm.memcpy.p0i8.p0i8.i32(i8* align 1 %1, i8* align 1 getelementptr inbounds (%class.anon, %class.anon* @__const._ZN3aie6detail24max_min_bits_reduce_implILj32EiLj8ELNS0_15MaxMinOperationE1EE3runERKNS0_6vectorIiLj8EEE.op, i32 0, i32 0), i32 1, i1 false), !dbg !3104
  store %"class.aie::detail::vector.3" undef, %"class.aie::detail::vector.3"* %v2, align 32, !dbg !3105
  %2 = bitcast %"class.aie::detail::vector.3"* %v2 to i8*, !dbg !3105
  call addrspace(1) void @llvm.lifetime.start.p0i8(i64 64, i8* %2) #24, !dbg !3105
  call addrspace(1) void @llvm.dbg.declare(metadata %"class.aie::detail::vector.3"* %v2, metadata !3101, metadata !DIExpression()), !dbg !3106
  call addrspace(1) void @_ZN3aie6detail6vectorIiLj16EEC2Ev(%"class.aie::detail::vector.3"* nonnull dereferenceable(64) %custom_type.tmp) #27, !dbg !3106
  %3 = load %"class.aie::detail::vector.3", %"class.aie::detail::vector.3"* %custom_type.tmp, align 32, !dbg !3106, !tbaa !2648
  store %"class.aie::detail::vector.3" %3, %"class.aie::detail::vector.3"* %v2, align 32, !dbg !3106, !tbaa !2648
  %4 = bitcast %"class.aie::detail::vector.3"* %ref.tmp to i8*, !dbg !3107
  call addrspace(1) void @llvm.lifetime.start.p0i8(i64 64, i8* %4) #24, !dbg !3107
  %call = call addrspace(1) %"class.aie::detail::vector.3" @_ZNK3aie6detail6vectorIiLj8EE4growILj16EEENS1_IiXT_EEEj(%"class.aie::detail::vector.1"* nonnull dereferenceable(32) %v, i32 0) #27, !dbg !3112
  %5 = getelementptr inbounds %"class.aie::detail::vector.3", %"class.aie::detail::vector.3"* %ref.tmp, i32 0, i32 0, !dbg !3112
  %6 = extractvalue %"class.aie::detail::vector.3" %call, 0, !dbg !3112
  store %struct.v16int32 %6, %struct.v16int32* %5, align 32, !dbg !3112
  %7 = bitcast i32* %ref.tmp2 to i8*, !dbg !3113
  call addrspace(1) void @llvm.lifetime.start.p0i8(i64 4, i8* %7) #24, !dbg !3113
  store i32 0, i32* %ref.tmp2, align 4, !dbg !3113, !tbaa !1328
  %8 = bitcast i32* %ref.tmp3 to i8*, !dbg !3114
  call addrspace(1) void @llvm.lifetime.start.p0i8(i64 4, i8* %8) #24, !dbg !3114
  store i32 1985229328, i32* %ref.tmp3, align 4, !dbg !3114, !tbaa !1328
  %9 = bitcast i32* %ref.tmp4 to i8*, !dbg !3115
  call addrspace(1) void @llvm.lifetime.start.p0i8(i64 4, i8* %9) #24, !dbg !3115
  store i32 0, i32* %ref.tmp4, align 4, !dbg !3115, !tbaa !1328
  %10 = bitcast i32* %ref.tmp5 to i8*, !dbg !3116
  call addrspace(1) void @llvm.lifetime.start.p0i8(i64 4, i8* %10) #24, !dbg !3116
  store i32 4, i32* %ref.tmp5, align 4, !dbg !3116, !tbaa !1328
  %11 = bitcast i32* %ref.tmp6 to i8*, !dbg !3117
  call addrspace(1) void @llvm.lifetime.start.p0i8(i64 4, i8* %11) #24, !dbg !3117
  store i32 1985229328, i32* %ref.tmp6, align 4, !dbg !3117, !tbaa !1328
  %12 = bitcast i32* %ref.tmp7 to i8*, !dbg !3118
  call addrspace(1) void @llvm.lifetime.start.p0i8(i64 4, i8* %12) #24, !dbg !3118
  store i32 0, i32* %ref.tmp7, align 4, !dbg !3118, !tbaa !1328
  %call8 = call addrspace(1) %struct.v16int32 @_ZZN3aie6detail24max_min_bits_reduce_implILj32EiLj8ELNS0_15MaxMinOperationE1EE6get_opEvENKUlDpOT_E_clIJNS0_6vectorIiLj16EEEiiiiiiEEEDaS6_(%class.anon* nonnull dereferenceable(1) %op, %"class.aie::detail::vector.3"* nonnull align 32 dereferenceable(64) %ref.tmp, i32* nonnull align 4 dereferenceable(4) %ref.tmp2, i32* nonnull align 4 dereferenceable(4) %ref.tmp3, i32* nonnull align 4 dereferenceable(4) %ref.tmp4, i32* nonnull align 4 dereferenceable(4) %ref.tmp5, i32* nonnull align 4 dereferenceable(4) %ref.tmp6, i32* nonnull align 4 dereferenceable(4) %ref.tmp7) #27, !dbg !3119
  %13 = getelementptr inbounds %struct.v16int32, %struct.v16int32* %agg.tmp, i32 0, i32 0, !dbg !3119
  %14 = extractvalue %struct.v16int32 %call8, 0, !dbg !3119
  store %struct.ipd.custom_type.v64int8.v64int8 %14, %struct.ipd.custom_type.v64int8.v64int8* %13, align 32, !dbg !3119
  %15 = load %struct.v16int32, %struct.v16int32* %agg.tmp, align 32, !dbg !3119, !tbaa !2370
  call addrspace(1) void @_ZN3aie6detail6vectorIiLj16EEC2E8v16int32(%"class.aie::detail::vector.3"* nonnull dereferenceable(64) %custom_type.tmp1, %struct.v16int32 %15) #27, !dbg !3119
  %16 = load %"class.aie::detail::vector.3", %"class.aie::detail::vector.3"* %custom_type.tmp1, align 32, !dbg !3119, !tbaa !2648
  store %"class.aie::detail::vector.3" %16, %"class.aie::detail::vector.3"* %v2, align 32, !dbg !3119, !tbaa !2648
  %17 = bitcast i32* %ref.tmp7 to i8*, !dbg !3120
  call addrspace(1) void @llvm.lifetime.end.p0i8(i64 4, i8* %17) #24, !dbg !3120
  %18 = bitcast i32* %ref.tmp6 to i8*, !dbg !3120
  call addrspace(1) void @llvm.lifetime.end.p0i8(i64 4, i8* %18) #24, !dbg !3120
  %19 = bitcast i32* %ref.tmp5 to i8*, !dbg !3120
  call addrspace(1) void @llvm.lifetime.end.p0i8(i64 4, i8* %19) #24, !dbg !3120
  %20 = bitcast i32* %ref.tmp4 to i8*, !dbg !3120
  call addrspace(1) void @llvm.lifetime.end.p0i8(i64 4, i8* %20) #24, !dbg !3120
  %21 = bitcast i32* %ref.tmp3 to i8*, !dbg !3120
  call addrspace(1) void @llvm.lifetime.end.p0i8(i64 4, i8* %21) #24, !dbg !3120
  %22 = bitcast i32* %ref.tmp2 to i8*, !dbg !3120
  call addrspace(1) void @llvm.lifetime.end.p0i8(i64 4, i8* %22) #24, !dbg !3120
  %23 = bitcast %"class.aie::detail::vector.3"* %ref.tmp to i8*, !dbg !3120
  call addrspace(1) void @llvm.lifetime.end.p0i8(i64 64, i8* %23) #24, !dbg !3120
  %24 = bitcast i32* %ref.tmp11 to i8*, !dbg !3121
  call addrspace(1) void @llvm.lifetime.start.p0i8(i64 4, i8* %24) #24, !dbg !3121
  store i32 0, i32* %ref.tmp11, align 4, !dbg !3121, !tbaa !1328
  %25 = bitcast i32* %ref.tmp12 to i8*, !dbg !3122
  call addrspace(1) void @llvm.lifetime.start.p0i8(i64 4, i8* %25) #24, !dbg !3122
  store i32 1985229328, i32* %ref.tmp12, align 4, !dbg !3122, !tbaa !1328
  %26 = bitcast i32* %ref.tmp13 to i8*, !dbg !3123
  call addrspace(1) void @llvm.lifetime.start.p0i8(i64 4, i8* %26) #24, !dbg !3123
  store i32 0, i32* %ref.tmp13, align 4, !dbg !3123, !tbaa !1328
  %27 = bitcast i32* %ref.tmp14 to i8*, !dbg !3124
  call addrspace(1) void @llvm.lifetime.start.p0i8(i64 4, i8* %27) #24, !dbg !3124
  store i32 2, i32* %ref.tmp14, align 4, !dbg !3124, !tbaa !1328
  %28 = bitcast i32* %ref.tmp15 to i8*, !dbg !3125
  call addrspace(1) void @llvm.lifetime.start.p0i8(i64 4, i8* %28) #24, !dbg !3125
  store i32 1985229328, i32* %ref.tmp15, align 4, !dbg !3125, !tbaa !1328
  %29 = bitcast i32* %ref.tmp16 to i8*, !dbg !3126
  call addrspace(1) void @llvm.lifetime.start.p0i8(i64 4, i8* %29) #24, !dbg !3126
  store i32 0, i32* %ref.tmp16, align 4, !dbg !3126, !tbaa !1328
  %call17 = call addrspace(1) %struct.v16int32 @_ZZN3aie6detail24max_min_bits_reduce_implILj32EiLj8ELNS0_15MaxMinOperationE1EE6get_opEvENKUlDpOT_E_clIJRNS0_6vectorIiLj16EEEiiiiiiEEEDaS6_(%class.anon* nonnull dereferenceable(1) %op, %"class.aie::detail::vector.3"* nonnull align 32 dereferenceable(64) %v2, i32* nonnull align 4 dereferenceable(4) %ref.tmp11, i32* nonnull align 4 dereferenceable(4) %ref.tmp12, i32* nonnull align 4 dereferenceable(4) %ref.tmp13, i32* nonnull align 4 dereferenceable(4) %ref.tmp14, i32* nonnull align 4 dereferenceable(4) %ref.tmp15, i32* nonnull align 4 dereferenceable(4) %ref.tmp16) #27, !dbg !3127
  %30 = getelementptr inbounds %struct.v16int32, %struct.v16int32* %agg.tmp10, i32 0, i32 0, !dbg !3127
  %31 = extractvalue %struct.v16int32 %call17, 0, !dbg !3127
  store %struct.ipd.custom_type.v64int8.v64int8 %31, %struct.ipd.custom_type.v64int8.v64int8* %30, align 32, !dbg !3127
  %32 = load %struct.v16int32, %struct.v16int32* %agg.tmp10, align 32, !dbg !3127, !tbaa !2370
  call addrspace(1) void @_ZN3aie6detail6vectorIiLj16EEC2E8v16int32(%"class.aie::detail::vector.3"* nonnull dereferenceable(64) %custom_type.tmp9, %struct.v16int32 %32) #27, !dbg !3127
  %33 = load %"class.aie::detail::vector.3", %"class.aie::detail::vector.3"* %custom_type.tmp9, align 32, !dbg !3127, !tbaa !2648
  store %"class.aie::detail::vector.3" %33, %"class.aie::detail::vector.3"* %v2, align 32, !dbg !3127, !tbaa !2648
  %34 = bitcast i32* %ref.tmp16 to i8*, !dbg !3128
  call addrspace(1) void @llvm.lifetime.end.p0i8(i64 4, i8* %34) #24, !dbg !3128
  %35 = bitcast i32* %ref.tmp15 to i8*, !dbg !3128
  call addrspace(1) void @llvm.lifetime.end.p0i8(i64 4, i8* %35) #24, !dbg !3128
  %36 = bitcast i32* %ref.tmp14 to i8*, !dbg !3128
  call addrspace(1) void @llvm.lifetime.end.p0i8(i64 4, i8* %36) #24, !dbg !3128
  %37 = bitcast i32* %ref.tmp13 to i8*, !dbg !3128
  call addrspace(1) void @llvm.lifetime.end.p0i8(i64 4, i8* %37) #24, !dbg !3128
  %38 = bitcast i32* %ref.tmp12 to i8*, !dbg !3128
  call addrspace(1) void @llvm.lifetime.end.p0i8(i64 4, i8* %38) #24, !dbg !3128
  %39 = bitcast i32* %ref.tmp11 to i8*, !dbg !3128
  call addrspace(1) void @llvm.lifetime.end.p0i8(i64 4, i8* %39) #24, !dbg !3128
  %40 = bitcast i32* %ref.tmp20 to i8*, !dbg !3129
  call addrspace(1) void @llvm.lifetime.start.p0i8(i64 4, i8* %40) #24, !dbg !3129
  store i32 0, i32* %ref.tmp20, align 4, !dbg !3129, !tbaa !1328
  %41 = bitcast i32* %ref.tmp21 to i8*, !dbg !3130
  call addrspace(1) void @llvm.lifetime.start.p0i8(i64 4, i8* %41) #24, !dbg !3130
  store i32 1985229328, i32* %ref.tmp21, align 4, !dbg !3130, !tbaa !1328
  %42 = bitcast i32* %ref.tmp22 to i8*, !dbg !3131
  call addrspace(1) void @llvm.lifetime.start.p0i8(i64 4, i8* %42) #24, !dbg !3131
  store i32 0, i32* %ref.tmp22, align 4, !dbg !3131, !tbaa !1328
  %43 = bitcast i32* %ref.tmp23 to i8*, !dbg !3132
  call addrspace(1) void @llvm.lifetime.start.p0i8(i64 4, i8* %43) #24, !dbg !3132
  store i32 1, i32* %ref.tmp23, align 4, !dbg !3132, !tbaa !1328
  %44 = bitcast i32* %ref.tmp24 to i8*, !dbg !3133
  call addrspace(1) void @llvm.lifetime.start.p0i8(i64 4, i8* %44) #24, !dbg !3133
  store i32 1985229328, i32* %ref.tmp24, align 4, !dbg !3133, !tbaa !1328
  %45 = bitcast i32* %ref.tmp25 to i8*, !dbg !3134
  call addrspace(1) void @llvm.lifetime.start.p0i8(i64 4, i8* %45) #24, !dbg !3134
  store i32 0, i32* %ref.tmp25, align 4, !dbg !3134, !tbaa !1328
  %call26 = call addrspace(1) %struct.v16int32 @_ZZN3aie6detail24max_min_bits_reduce_implILj32EiLj8ELNS0_15MaxMinOperationE1EE6get_opEvENKUlDpOT_E_clIJRNS0_6vectorIiLj16EEEiiiiiiEEEDaS6_(%class.anon* nonnull dereferenceable(1) %op, %"class.aie::detail::vector.3"* nonnull align 32 dereferenceable(64) %v2, i32* nonnull align 4 dereferenceable(4) %ref.tmp20, i32* nonnull align 4 dereferenceable(4) %ref.tmp21, i32* nonnull align 4 dereferenceable(4) %ref.tmp22, i32* nonnull align 4 dereferenceable(4) %ref.tmp23, i32* nonnull align 4 dereferenceable(4) %ref.tmp24, i32* nonnull align 4 dereferenceable(4) %ref.tmp25) #27, !dbg !3135
  %46 = getelementptr inbounds %struct.v16int32, %struct.v16int32* %agg.tmp19, i32 0, i32 0, !dbg !3135
  %47 = extractvalue %struct.v16int32 %call26, 0, !dbg !3135
  store %struct.ipd.custom_type.v64int8.v64int8 %47, %struct.ipd.custom_type.v64int8.v64int8* %46, align 32, !dbg !3135
  %48 = load %struct.v16int32, %struct.v16int32* %agg.tmp19, align 32, !dbg !3135, !tbaa !2370
  call addrspace(1) void @_ZN3aie6detail6vectorIiLj16EEC2E8v16int32(%"class.aie::detail::vector.3"* nonnull dereferenceable(64) %custom_type.tmp18, %struct.v16int32 %48) #27, !dbg !3135
  %49 = load %"class.aie::detail::vector.3", %"class.aie::detail::vector.3"* %custom_type.tmp18, align 32, !dbg !3135, !tbaa !2648
  store %"class.aie::detail::vector.3" %49, %"class.aie::detail::vector.3"* %v2, align 32, !dbg !3135, !tbaa !2648
  %50 = bitcast i32* %ref.tmp25 to i8*, !dbg !3136
  call addrspace(1) void @llvm.lifetime.end.p0i8(i64 4, i8* %50) #24, !dbg !3136
  %51 = bitcast i32* %ref.tmp24 to i8*, !dbg !3136
  call addrspace(1) void @llvm.lifetime.end.p0i8(i64 4, i8* %51) #24, !dbg !3136
  %52 = bitcast i32* %ref.tmp23 to i8*, !dbg !3136
  call addrspace(1) void @llvm.lifetime.end.p0i8(i64 4, i8* %52) #24, !dbg !3136
  %53 = bitcast i32* %ref.tmp22 to i8*, !dbg !3136
  call addrspace(1) void @llvm.lifetime.end.p0i8(i64 4, i8* %53) #24, !dbg !3136
  %54 = bitcast i32* %ref.tmp21 to i8*, !dbg !3136
  call addrspace(1) void @llvm.lifetime.end.p0i8(i64 4, i8* %54) #24, !dbg !3136
  %55 = bitcast i32* %ref.tmp20 to i8*, !dbg !3136
  call addrspace(1) void @llvm.lifetime.end.p0i8(i64 4, i8* %55) #24, !dbg !3136
  %56 = bitcast %"class.aie::detail::vector_elem_ref.4"* %ref.tmp27 to i8*, !dbg !3137
  call addrspace(1) void @llvm.lifetime.start.p0i8(i64 8, i8* %56) #24, !dbg !3137
  %call28 = call addrspace(1) %"class.aie::detail::vector_elem_ref.4" @_ZN3aie6detail6vectorIiLj16EEixEj(%"class.aie::detail::vector.3"* nonnull dereferenceable(64) %v2, i32 0) #27, !dbg !3137
  %57 = getelementptr inbounds %"class.aie::detail::vector_elem_ref.4", %"class.aie::detail::vector_elem_ref.4"* %ref.tmp27, i32 0, i32 0, !dbg !3137
  %58 = extractvalue %"class.aie::detail::vector_elem_ref.4" %call28, 0, !dbg !3137
  store %"class.aie::detail::vector.3"* %58, %"class.aie::detail::vector.3"** %57, align 4, !dbg !3137
  %59 = getelementptr inbounds %"class.aie::detail::vector_elem_ref.4", %"class.aie::detail::vector_elem_ref.4"* %ref.tmp27, i32 0, i32 1, !dbg !3137
  %60 = extractvalue %"class.aie::detail::vector_elem_ref.4" %call28, 1, !dbg !3137
  store i32 %60, i32* %59, align 4, !dbg !3137
  %call29 = call addrspace(1) i32 @_ZNK3aie6detail15vector_elem_refIiLj16EEcviEv(%"class.aie::detail::vector_elem_ref.4"* nonnull dereferenceable(8) %ref.tmp27) #27, !dbg !3137
  %61 = bitcast %"class.aie::detail::vector_elem_ref.4"* %ref.tmp27 to i8*, !dbg !3138
  call addrspace(1) void @llvm.lifetime.end.p0i8(i64 8, i8* %61) #24, !dbg !3138
  %62 = bitcast %"class.aie::detail::vector.3"* %v2 to i8*, !dbg !3139
  call addrspace(1) void @llvm.lifetime.end.p0i8(i64 64, i8* %62) #24, !dbg !3139
  %63 = bitcast %class.anon* %op to i8*, !dbg !3139
  call addrspace(1) void @llvm.lifetime.end.p0i8(i64 1, i8* %63) #24, !dbg !3139
  ret i32 %call29, !dbg !3138
}

; Function Attrs: argmemonly nofree nosync nounwind willreturn
declare void @llvm.memcpy.p0i8.p0i8.i32(i8* noalias nocapture writeonly, i8* noalias nocapture readonly, i32, i1 immarg) addrspace(1) #3

; Function Attrs: alwaysinline nounwind mustprogress
define linkonce_odr dso_local %"class.aie::detail::vector.3" @_ZNK3aie6detail6vectorIiLj8EE4growILj16EEENS1_IiXT_EEEj(%"class.aie::detail::vector.1"* nonnull dereferenceable(32) %this, i32 %idx) addrspace(1) #9 comdat align 2 !dbg !3140 {
entry:
  %retval = alloca %"class.aie::detail::vector.3", align 32
  %custom_type.tmp = alloca %"class.aie::detail::vector.3", align 32
  %tmp = alloca %struct.v16int32, align 32
  call addrspace(1) void @llvm.dbg.value(metadata %"class.aie::detail::vector.1"* %this, metadata !3147, metadata !DIExpression()), !dbg !3151
  call addrspace(1) void @llvm.dbg.value(metadata i32 0, metadata !3148, metadata !DIExpression()), !dbg !3151
  call addrspace(1) void @llvm.dbg.value(metadata i32 undef, metadata !3149, metadata !DIExpression()), !dbg !3151
  call addrspace(1) void @llvm.dbg.value(metadata i32 512, metadata !3149, metadata !DIExpression()), !dbg !3151
  call addrspace(1) void @llvm.dbg.declare(metadata %"class.aie::detail::vector.3"* %retval, metadata !3150, metadata !DIExpression()), !dbg !3152
  call addrspace(1) void @_ZN3aie6detail6vectorIiLj16EEC2Ev(%"class.aie::detail::vector.3"* nonnull dereferenceable(64) %custom_type.tmp) #27, !dbg !3152
  %0 = load %"class.aie::detail::vector.3", %"class.aie::detail::vector.3"* %custom_type.tmp, align 32, !dbg !3152, !tbaa !2648
  store %"class.aie::detail::vector.3" %0, %"class.aie::detail::vector.3"* %retval, align 32, !dbg !3152, !tbaa !2648
  %data = getelementptr inbounds %"class.aie::detail::vector.3", %"class.aie::detail::vector.3"* %retval, i32 0, i32 0, !dbg !3153
  %1 = bitcast %struct.v16int32* %tmp to i8*, !dbg !3160
  call addrspace(1) void @llvm.lifetime.start.p0i8(i64 64, i8* %1) #24, !dbg !3160
  %data2 = getelementptr inbounds %"class.aie::detail::vector.1", %"class.aie::detail::vector.1"* %this, i32 0, i32 0, !dbg !3161
  %2 = load %struct.v8int32, %struct.v8int32* %data2, align 32, !dbg !3160, !tbaa !2720
  %call = call addrspace(1) %struct.v16int32 @_Z6xset_wi7v8int32(i32 0, %struct.v8int32 %2) #29, !dbg !3160
  %3 = getelementptr inbounds %struct.v16int32, %struct.v16int32* %tmp, i32 0, i32 0, !dbg !3160
  %4 = extractvalue %struct.v16int32 %call, 0, !dbg !3160
  store %struct.ipd.custom_type.v64int8.v64int8 %4, %struct.ipd.custom_type.v64int8.v64int8* %3, align 32, !dbg !3160
  %5 = load %struct.v16int32, %struct.v16int32* %tmp, align 32, !dbg !3160, !tbaa !2370
  store %struct.v16int32 %5, %struct.v16int32* %data, align 32, !dbg !3160, !tbaa !2370
  %6 = bitcast %struct.v16int32* %tmp to i8*, !dbg !3160
  call addrspace(1) void @llvm.lifetime.end.p0i8(i64 64, i8* %6) #24, !dbg !3160
  %7 = load %"class.aie::detail::vector.3", %"class.aie::detail::vector.3"* %retval, align 32, !dbg !3162
  ret %"class.aie::detail::vector.3" %7, !dbg !3162
}

; Function Attrs: alwaysinline nounwind mustprogress
define linkonce_odr dso_local %struct.v16int32 @_ZZN3aie6detail24max_min_bits_reduce_implILj32EiLj8ELNS0_15MaxMinOperationE1EE6get_opEvENKUlDpOT_E_clIJNS0_6vectorIiLj16EEEiiiiiiEEEDaS6_(%class.anon* nonnull dereferenceable(1) %this, %"class.aie::detail::vector.3"* nonnull align 32 dereferenceable(64) %args, i32* nonnull align 4 dereferenceable(4) %args1, i32* nonnull align 4 dereferenceable(4) %args3, i32* nonnull align 4 dereferenceable(4) %args5, i32* nonnull align 4 dereferenceable(4) %args7, i32* nonnull align 4 dereferenceable(4) %args9, i32* nonnull align 4 dereferenceable(4) %args11) addrspace(1) #9 comdat align 2 !dbg !3163 {
entry:
  %retval = alloca %struct.v16int32, align 32
  %agg.tmp = alloca %struct.v16int32, align 32
  call addrspace(1) void @llvm.dbg.value(metadata %class.anon* %this, metadata !3178, metadata !DIExpression()), !dbg !3187
  call addrspace(1) void @llvm.dbg.value(metadata %"class.aie::detail::vector.3"* %args, metadata !3180, metadata !DIExpression()), !dbg !3187
  call addrspace(1) void @llvm.dbg.value(metadata i32* %args1, metadata !3181, metadata !DIExpression()), !dbg !3187
  call addrspace(1) void @llvm.dbg.value(metadata i32* %args3, metadata !3182, metadata !DIExpression()), !dbg !3187
  call addrspace(1) void @llvm.dbg.value(metadata i32* %args5, metadata !3183, metadata !DIExpression()), !dbg !3187
  call addrspace(1) void @llvm.dbg.value(metadata i32* %args7, metadata !3184, metadata !DIExpression()), !dbg !3187
  call addrspace(1) void @llvm.dbg.value(metadata i32* %args9, metadata !3185, metadata !DIExpression()), !dbg !3187
  call addrspace(1) void @llvm.dbg.value(metadata i32* %args11, metadata !3186, metadata !DIExpression()), !dbg !3187
  %call = call addrspace(1) %struct.v16int32 @_ZNK3aie6detail6vectorIiLj16EEcv8v16int32Ev(%"class.aie::detail::vector.3"* nonnull dereferenceable(64) %args) #27, !dbg !3188
  %0 = getelementptr inbounds %struct.v16int32, %struct.v16int32* %agg.tmp, i32 0, i32 0, !dbg !3188
  %1 = extractvalue %struct.v16int32 %call, 0, !dbg !3188
  store %struct.ipd.custom_type.v64int8.v64int8 %1, %struct.ipd.custom_type.v64int8.v64int8* %0, align 32, !dbg !3188
  %2 = load i32, i32* %args1, align 4, !dbg !3188, !tbaa !1328
  %3 = load i32, i32* %args3, align 4, !dbg !3188, !tbaa !1328
  %4 = load i32, i32* %args5, align 4, !dbg !3188, !tbaa !1328
  %5 = load i32, i32* %args7, align 4, !dbg !3188, !tbaa !1328
  %6 = load i32, i32* %args9, align 4, !dbg !3188, !tbaa !1328
  %7 = load i32, i32* %args11, align 4, !dbg !3188, !tbaa !1328
  %8 = load %struct.v16int32, %struct.v16int32* %agg.tmp, align 32, !dbg !3189, !tbaa !2370
  %call14 = call addrspace(1) %struct.v16int32 @_Z5min168v16int32ijjijj(%struct.v16int32 %8, i32 %2, i32 %3, i32 %4, i32 %5, i32 %6, i32 %7) #27, !dbg !3189
  %9 = getelementptr inbounds %struct.v16int32, %struct.v16int32* %retval, i32 0, i32 0, !dbg !3189
  %10 = extractvalue %struct.v16int32 %call14, 0, !dbg !3189
  store %struct.ipd.custom_type.v64int8.v64int8 %10, %struct.ipd.custom_type.v64int8.v64int8* %9, align 32, !dbg !3189
  %11 = load %struct.v16int32, %struct.v16int32* %retval, align 32, !dbg !3190
  ret %struct.v16int32 %11, !dbg !3190
}

; Function Attrs: alwaysinline nounwind
define linkonce_odr dso_local void @_ZN3aie6detail6vectorIiLj16EEC2E8v16int32(%"class.aie::detail::vector.3"* nonnull dereferenceable(64) %this, %struct.v16int32 %v.coerce) unnamed_addr addrspace(1) #11 comdat align 2 !dbg !3191 {
entry:
  call addrspace(1) void @llvm.dbg.value(metadata %struct.v16int32 %v.coerce, metadata !3194, metadata !DIExpression()), !dbg !3195
  call addrspace(1) void @llvm.dbg.value(metadata %"class.aie::detail::vector.3"* %this, metadata !3193, metadata !DIExpression()), !dbg !3195
  %data = getelementptr inbounds %"class.aie::detail::vector.3", %"class.aie::detail::vector.3"* %this, i32 0, i32 0, !dbg !3196
  store %struct.v16int32 %v.coerce, %struct.v16int32* %data, align 32, !dbg !3197, !tbaa !2370
  ret void, !dbg !3198
}

; Function Attrs: alwaysinline nounwind mustprogress
define linkonce_odr dso_local %struct.v16int32 @_ZZN3aie6detail24max_min_bits_reduce_implILj32EiLj8ELNS0_15MaxMinOperationE1EE6get_opEvENKUlDpOT_E_clIJRNS0_6vectorIiLj16EEEiiiiiiEEEDaS6_(%class.anon* nonnull dereferenceable(1) %this, %"class.aie::detail::vector.3"* nonnull align 32 dereferenceable(64) %args, i32* nonnull align 4 dereferenceable(4) %args1, i32* nonnull align 4 dereferenceable(4) %args3, i32* nonnull align 4 dereferenceable(4) %args5, i32* nonnull align 4 dereferenceable(4) %args7, i32* nonnull align 4 dereferenceable(4) %args9, i32* nonnull align 4 dereferenceable(4) %args11) addrspace(1) #9 comdat align 2 !dbg !3199 {
entry:
  %retval = alloca %struct.v16int32, align 32
  %agg.tmp = alloca %struct.v16int32, align 32
  call addrspace(1) void @llvm.dbg.value(metadata %class.anon* %this, metadata !3210, metadata !DIExpression()), !dbg !3218
  call addrspace(1) void @llvm.dbg.value(metadata %"class.aie::detail::vector.3"* %args, metadata !3211, metadata !DIExpression()), !dbg !3218
  call addrspace(1) void @llvm.dbg.value(metadata i32* %args1, metadata !3212, metadata !DIExpression()), !dbg !3218
  call addrspace(1) void @llvm.dbg.value(metadata i32* %args3, metadata !3213, metadata !DIExpression()), !dbg !3218
  call addrspace(1) void @llvm.dbg.value(metadata i32* %args5, metadata !3214, metadata !DIExpression()), !dbg !3218
  call addrspace(1) void @llvm.dbg.value(metadata i32* %args7, metadata !3215, metadata !DIExpression()), !dbg !3218
  call addrspace(1) void @llvm.dbg.value(metadata i32* %args9, metadata !3216, metadata !DIExpression()), !dbg !3218
  call addrspace(1) void @llvm.dbg.value(metadata i32* %args11, metadata !3217, metadata !DIExpression()), !dbg !3218
  %call = call addrspace(1) %struct.v16int32 @_ZNK3aie6detail6vectorIiLj16EEcv8v16int32Ev(%"class.aie::detail::vector.3"* nonnull dereferenceable(64) %args) #27, !dbg !3219
  %0 = getelementptr inbounds %struct.v16int32, %struct.v16int32* %agg.tmp, i32 0, i32 0, !dbg !3219
  %1 = extractvalue %struct.v16int32 %call, 0, !dbg !3219
  store %struct.ipd.custom_type.v64int8.v64int8 %1, %struct.ipd.custom_type.v64int8.v64int8* %0, align 32, !dbg !3219
  %2 = load i32, i32* %args1, align 4, !dbg !3219, !tbaa !1328
  %3 = load i32, i32* %args3, align 4, !dbg !3219, !tbaa !1328
  %4 = load i32, i32* %args5, align 4, !dbg !3219, !tbaa !1328
  %5 = load i32, i32* %args7, align 4, !dbg !3219, !tbaa !1328
  %6 = load i32, i32* %args9, align 4, !dbg !3219, !tbaa !1328
  %7 = load i32, i32* %args11, align 4, !dbg !3219, !tbaa !1328
  %8 = load %struct.v16int32, %struct.v16int32* %agg.tmp, align 32, !dbg !3220, !tbaa !2370
  %call14 = call addrspace(1) %struct.v16int32 @_Z5min168v16int32ijjijj(%struct.v16int32 %8, i32 %2, i32 %3, i32 %4, i32 %5, i32 %6, i32 %7) #27, !dbg !3220
  %9 = getelementptr inbounds %struct.v16int32, %struct.v16int32* %retval, i32 0, i32 0, !dbg !3220
  %10 = extractvalue %struct.v16int32 %call14, 0, !dbg !3220
  store %struct.ipd.custom_type.v64int8.v64int8 %10, %struct.ipd.custom_type.v64int8.v64int8* %9, align 32, !dbg !3220
  %11 = load %struct.v16int32, %struct.v16int32* %retval, align 32, !dbg !3221
  ret %struct.v16int32 %11, !dbg !3221
}

; Function Attrs: alwaysinline nounwind mustprogress
define linkonce_odr dso_local i32 @_ZNK3aie6detail15vector_elem_refIiLj16EEcviEv(%"class.aie::detail::vector_elem_ref.4"* nonnull dereferenceable(8) %this) addrspace(1) #9 comdat align 2 !dbg !3222 {
entry:
  call addrspace(1) void @llvm.dbg.value(metadata %"class.aie::detail::vector_elem_ref.4"* %this, metadata !3224, metadata !DIExpression()), !dbg !3226
  %call = call addrspace(1) i32 @_ZNK3aie6detail15vector_elem_refIiLj16EE3getEv(%"class.aie::detail::vector_elem_ref.4"* nonnull dereferenceable(8) %this) #27, !dbg !3227
  ret i32 %call, !dbg !3228
}

; Function Attrs: alwaysinline nounwind mustprogress
define linkonce_odr dso_local i32 @_ZNK3aie6detail15vector_elem_refIiLj16EE3getEv(%"class.aie::detail::vector_elem_ref.4"* nonnull dereferenceable(8) %this) addrspace(1) #9 comdat align 2 !dbg !3229 {
entry:
  call addrspace(1) void @llvm.dbg.value(metadata %"class.aie::detail::vector_elem_ref.4"* %this, metadata !3231, metadata !DIExpression()), !dbg !3232
  %parent = getelementptr inbounds %"class.aie::detail::vector_elem_ref.4", %"class.aie::detail::vector_elem_ref.4"* %this, i32 0, i32 0, !dbg !3233
  %0 = load %"class.aie::detail::vector.3"*, %"class.aie::detail::vector.3"** %parent, align 4, !dbg !3233, !tbaa !2025
  %offset = getelementptr inbounds %"class.aie::detail::vector_elem_ref.4", %"class.aie::detail::vector_elem_ref.4"* %this, i32 0, i32 1, !dbg !3234
  %1 = load i32, i32* %offset, align 4, !dbg !3234, !tbaa !2029
  %call = call addrspace(1) i32 @_ZNK3aie6detail6vectorIiLj16EE3getEj(%"class.aie::detail::vector.3"* nonnull dereferenceable(64) %0, i32 %1) #27, !dbg !3235
  ret i32 %call, !dbg !3236
}

; Function Attrs: alwaysinline nounwind mustprogress
define linkonce_odr dso_local i32 @_ZNK3aie6detail6vectorIiLj16EE3getEj(%"class.aie::detail::vector.3"* nonnull dereferenceable(64) %this, i32 %idx) addrspace(1) #9 comdat align 2 !dbg !3237 {
entry:
  call addrspace(1) void @llvm.dbg.value(metadata %"class.aie::detail::vector.3"* %this, metadata !3239, metadata !DIExpression()), !dbg !3241
  call addrspace(1) void @llvm.dbg.value(metadata i32 %idx, metadata !3240, metadata !DIExpression()), !dbg !3241
  %cmp = icmp ult i32 %idx, 16, !dbg !3242
  %0 = call addrspace(1) i1 @llvm.is.constant.i1(i1 %cmp), !dbg !3242
  br i1 %0, label %do.body, label %if.end4, !dbg !3244

do.body:                                          ; preds = %entry
  %cmp2 = icmp ult i32 %idx, 16, !dbg !3245
  %1 = call addrspace(1) i1 @llvm.chess_manifest(i1 %cmp2), !dbg !3245
  br i1 %1, label %if.end4, label %if.then3, !dbg !3249

if.then3:                                         ; preds = %do.body
  call addrspace(1) void @llvm.chess_error(metadata !1399), !dbg !3245
  unreachable, !dbg !3245

if.end4:                                          ; preds = %do.body, %entry
  %cmp5 = icmp ult i32 %idx, 16, !dbg !3244
  call addrspace(1) void @llvm.assume(i1 %cmp5), !dbg !3244
  %data = getelementptr inbounds %"class.aie::detail::vector.3", %"class.aie::detail::vector.3"* %this, i32 0, i32 0, !dbg !3250
  %2 = load %struct.v16int32, %struct.v16int32* %data, align 32, !dbg !3255, !tbaa !2358
  %call = call addrspace(1) i32 @_Z8ext_elem8v16int32j(%struct.v16int32 %2, i32 %idx) #27, !dbg !3255
  ret i32 %call, !dbg !3256
}

; Function Attrs: alwaysinline nounwind mustprogress
define linkonce_odr dso_local i32 @_Z8ext_elem8v16int32j(%struct.v16int32 %a0.coerce, i32 %a1) addrspace(1) #9 comdat {
entry:
  %call = call x86_regcallcc signext addrspace(1) i32 @__regcall3__chessintr___sint_ext_elem_v16int32___uint(%struct.v16int32 %a0.coerce, i32 zeroext %a1) #34
  ret i32 %call
}

; Function Attrs: nounwind readnone willreturn
declare dso_local x86_regcallcc signext i32 @__regcall3__chessintr___sint_ext_elem_v16int32___uint(%struct.v16int32, i32 zeroext) addrspace(1) #13

; Function Attrs: alwaysinline nounwind mustprogress
define linkonce_odr dso_local %struct.v16int32 @_ZNK3aie6detail6vectorIiLj16EEcv8v16int32Ev(%"class.aie::detail::vector.3"* nonnull dereferenceable(64) %this) addrspace(1) #9 comdat align 2 !dbg !3257 {
entry:
  %retval = alloca %struct.v16int32, align 32
  call addrspace(1) void @llvm.dbg.value(metadata %"class.aie::detail::vector.3"* %this, metadata !3259, metadata !DIExpression()), !dbg !3260
  %call = call addrspace(1) %struct.v16int32 @_ZNK3aie6detail6vectorIiLj16EE9to_nativeEv(%"class.aie::detail::vector.3"* nonnull dereferenceable(64) %this) #27, !dbg !3261
  %0 = getelementptr inbounds %struct.v16int32, %struct.v16int32* %retval, i32 0, i32 0, !dbg !3261
  %1 = extractvalue %struct.v16int32 %call, 0, !dbg !3261
  store %struct.ipd.custom_type.v64int8.v64int8 %1, %struct.ipd.custom_type.v64int8.v64int8* %0, align 32, !dbg !3261
  %2 = load %struct.v16int32, %struct.v16int32* %retval, align 32, !dbg !3262
  ret %struct.v16int32 %2, !dbg !3262
}

; Function Attrs: alwaysinline nounwind mustprogress
define linkonce_odr dso_local %struct.v16int32 @_Z5min168v16int32ijjijj(%struct.v16int32 %a0.coerce, i32 %a1, i32 %a2, i32 %a3, i32 %a4, i32 %a5, i32 %a6) addrspace(1) #9 comdat {
entry:
  %retval = alloca %struct.v16int32, align 32
  %call = call x86_regcallcc addrspace(1) %struct.v16int32 @__regcall3__chessintr_v16int32_min16_v16int32___sint___uint___uint___sint___uint___uint(%struct.v16int32 %a0.coerce, i32 signext %a1, i32 zeroext %a2, i32 zeroext %a3, i32 signext %a4, i32 zeroext %a5, i32 zeroext %a6) #34
  %0 = getelementptr inbounds %struct.v16int32, %struct.v16int32* %retval, i32 0, i32 0
  %1 = extractvalue %struct.v16int32 %call, 0
  store %struct.ipd.custom_type.v64int8.v64int8 %1, %struct.ipd.custom_type.v64int8.v64int8* %0, align 32
  %2 = load %struct.v16int32, %struct.v16int32* %retval, align 32
  ret %struct.v16int32 %2
}

; Function Attrs: nounwind readnone willreturn
declare dso_local x86_regcallcc %struct.v16int32 @__regcall3__chessintr_v16int32_min16_v16int32___sint___uint___uint___sint___uint___uint(%struct.v16int32, i32 signext, i32 zeroext, i32 zeroext, i32 signext, i32 zeroext, i32 zeroext) addrspace(1) #13

; Function Attrs: alwaysinline nounwind mustprogress
define linkonce_odr dso_local %struct.v16int32 @_ZNK3aie6detail6vectorIiLj16EE9to_nativeEv(%"class.aie::detail::vector.3"* nonnull dereferenceable(64) %this) addrspace(1) #9 comdat align 2 !dbg !3263 {
entry:
  call addrspace(1) void @llvm.dbg.value(metadata %"class.aie::detail::vector.3"* %this, metadata !3268, metadata !DIExpression()), !dbg !3269
  %data = getelementptr inbounds %"class.aie::detail::vector.3", %"class.aie::detail::vector.3"* %this, i32 0, i32 0, !dbg !3270
  %0 = load %struct.v16int32, %struct.v16int32* %data, align 32, !dbg !3270, !tbaa !2370
  ret %struct.v16int32 %0, !dbg !3270
}

; Function Attrs: alwaysinline nounwind mustprogress
define linkonce_odr dso_local %struct.v16int32 @_Z6xset_wi7v8int32(i32 %a0, %struct.v8int32 %a1.coerce) addrspace(1) #10 comdat {
entry:
  %retval = alloca %struct.v16int32, align 32
  %call = call x86_regcallcc addrspace(1) %struct.v16int32 @__regcall3__chessintr_v16int32_xset_w___sint_v8int32(i32 signext 0, %struct.v8int32 %a1.coerce) #34
  %0 = getelementptr inbounds %struct.v16int32, %struct.v16int32* %retval, i32 0, i32 0
  %1 = extractvalue %struct.v16int32 %call, 0
  store %struct.ipd.custom_type.v64int8.v64int8 %1, %struct.ipd.custom_type.v64int8.v64int8* %0, align 32
  %2 = load %struct.v16int32, %struct.v16int32* %retval, align 32
  ret %struct.v16int32 %2
}

; Function Attrs: nounwind readnone willreturn
declare dso_local x86_regcallcc %struct.v16int32 @__regcall3__chessintr_v16int32_xset_w___sint_v8int32(i32 signext, %struct.v8int32) addrspace(1) #13

; Function Attrs: alwaysinline nounwind mustprogress
define linkonce_odr dso_local %"class.aie::detail::accum" @_ZN3aie5zerosI5acc64Lj8EEENS_6detail5accumIXsr6detailE21accum_class_for_tag_vIT_EEXsr6detailE20accum_bits_for_tag_vIS4_EEXT0_EEEv() addrspace(1) #9 comdat !dbg !3272 {
entry:
  %retval = alloca %"class.aie::detail::accum", align 32
  %call = call addrspace(1) %"class.aie::detail::accum" @_ZN3aie6detail5zerosILNS0_10AccumClassE0ELj64ELj8EEENS0_5accumIXT_EXT0_EXT1_EEEv() #27, !dbg !3279
  %0 = getelementptr inbounds %"class.aie::detail::accum", %"class.aie::detail::accum"* %retval, i32 0, i32 0, !dbg !3279
  %1 = extractvalue %"class.aie::detail::accum" %call, 0, !dbg !3279
  store %struct.v8acc80 %1, %struct.v8acc80* %0, align 32, !dbg !3279
  %2 = load %"class.aie::detail::accum", %"class.aie::detail::accum"* %retval, align 32, !dbg !3280
  ret %"class.aie::detail::accum" %2, !dbg !3280
}

; Function Attrs: alwaysinline nounwind mustprogress
define linkonce_odr dso_local %"class.aie::detail::vector.1" @_ZN3aie3subINS_6detail6vectorIiLj8EEEiEEN22aie_dm_resource_removeIT_E4typeERKS5_T0_(%"class.aie::detail::vector.1"* nonnull align 32 dereferenceable(32) %v, i32 %a) addrspace(1) #9 comdat !dbg !3281 {
entry:
  %retval = alloca %"class.aie::detail::vector.1", align 32
  %a.addr = alloca i32, align 4
  call addrspace(1) void @llvm.dbg.value(metadata %"class.aie::detail::vector.1"* %v, metadata !3291, metadata !DIExpression()), !dbg !3296
  store i32 %a, i32* %a.addr, align 4, !tbaa !1328
  call addrspace(1) void @llvm.dbg.declare(metadata i32* %a.addr, metadata !3292, metadata !DIExpression()), !dbg !3297
  call addrspace(1) void @llvm.dbg.value(metadata i32 undef, metadata !3293, metadata !DIExpression()), !dbg !3296
  call addrspace(1) void @llvm.dbg.value(metadata i32 8, metadata !3293, metadata !DIExpression()), !dbg !3296
  %0 = load i32, i32* %a.addr, align 4, !dbg !3298, !tbaa !1328
  %cmp = icmp eq i32 %0, 0, !dbg !3298
  %1 = call addrspace(1) i1 @llvm.chess_manifest(i1 %cmp), !dbg !3298
  br i1 %1, label %if.then, label %if.end, !dbg !3304

if.then:                                          ; preds = %entry
  %2 = load %"class.aie::detail::vector.1", %"class.aie::detail::vector.1"* %v, align 32, !dbg !3305, !tbaa !1850
  store %"class.aie::detail::vector.1" %2, %"class.aie::detail::vector.1"* %retval, align 32, !dbg !3305, !tbaa !1850
  br label %cleanup, !dbg !3306

if.end:                                           ; preds = %entry
  %call = call addrspace(1) %"class.aie::detail::vector.1" @_ZN3aie6detail12add_sub_bitsILj32EiLj8ELNS0_15AddSubOperationE1EE3runERKNS0_6vectorIiLj8EEERKi(%"class.aie::detail::vector.1"* nonnull align 32 dereferenceable(32) %v, i32* nonnull align 4 dereferenceable(4) %a.addr) #27, !dbg !3307
  %3 = getelementptr inbounds %"class.aie::detail::vector.1", %"class.aie::detail::vector.1"* %retval, i32 0, i32 0, !dbg !3307
  %4 = extractvalue %"class.aie::detail::vector.1" %call, 0, !dbg !3307
  store %struct.v8int32 %4, %struct.v8int32* %3, align 32, !dbg !3307
  br label %cleanup, !dbg !3308

cleanup:                                          ; preds = %if.end, %if.then
  %5 = load %"class.aie::detail::vector.1", %"class.aie::detail::vector.1"* %retval, align 32, !dbg !3309
  ret %"class.aie::detail::vector.1" %5, !dbg !3309
}

; Function Attrs: alwaysinline nounwind mustprogress
define linkonce_odr dso_local %"class.aie::detail::accum" @_ZN3aie3mulINS_6detail6vectorIiLj8EEES3_EEDaRKT_RKT0_(%"class.aie::detail::vector.1"* nonnull align 32 dereferenceable(32) %v1, %"class.aie::detail::vector.1"* nonnull align 32 dereferenceable(32) %v2) addrspace(1) #9 comdat !dbg !3310 {
entry:
  %retval = alloca %"class.aie::detail::accum", align 32
  call addrspace(1) void @llvm.dbg.value(metadata %"class.aie::detail::vector.1"* %v1, metadata !3314, metadata !DIExpression()), !dbg !3319
  call addrspace(1) void @llvm.dbg.value(metadata %"class.aie::detail::vector.1"* %v2, metadata !3315, metadata !DIExpression()), !dbg !3319
  %call = call addrspace(1) %"class.aie::detail::accum" @_ZN3aie3mulI5acc64NS_6detail6vectorIiLj8EEES4_EENS2_5accumIXsr6detailE21accum_class_for_tag_vIT_EEXsr6detailE20accum_bits_for_tag_vIS6_EEXclsrT0_4sizeEEEERKS7_RKT1_(%"class.aie::detail::vector.1"* nonnull align 32 dereferenceable(32) %v1, %"class.aie::detail::vector.1"* nonnull align 32 dereferenceable(32) %v2) #27, !dbg !3320
  %0 = getelementptr inbounds %"class.aie::detail::accum", %"class.aie::detail::accum"* %retval, i32 0, i32 0, !dbg !3320
  %1 = extractvalue %"class.aie::detail::accum" %call, 0, !dbg !3320
  store %struct.v8acc80 %1, %struct.v8acc80* %0, align 32, !dbg !3320
  %2 = load %"class.aie::detail::accum", %"class.aie::detail::accum"* %retval, align 32, !dbg !3321
  ret %"class.aie::detail::accum" %2, !dbg !3321
}

; Function Attrs: alwaysinline nounwind mustprogress
define linkonce_odr dso_local %"class.aie::detail::vector.1" @_ZNK3aie6detail5accumILNS0_10AccumClassE0ELj64ELj8EE9to_vectorIiEENS0_6vectorIT_Lj8EEEi(%"class.aie::detail::accum"* nonnull dereferenceable(128) %this, i32 %shift) addrspace(1) #9 comdat align 2 !dbg !3322 {
entry:
  %custom_type.tmp = alloca %"class.aie::detail::vector.1", align 32
  %fn = alloca %class.anon, align 1
  %custom_type.tmp2 = alloca %"class.aie::detail::vector.1", align 32
  %agg.tmp = alloca %struct.v8int32, align 32
  call addrspace(1) void @llvm.dbg.value(metadata %"class.aie::detail::accum"* %this, metadata !3327, metadata !DIExpression()), !dbg !3337
  call addrspace(1) void @llvm.dbg.value(metadata i32 0, metadata !3329, metadata !DIExpression()), !dbg !3337
  call addrspace(1) void @_ZN3aie6detail6vectorIiLj8EEC2Ev(%"class.aie::detail::vector.1"* nonnull dereferenceable(32) %custom_type.tmp) #27, !dbg !3338
  %0 = load %"class.aie::detail::vector.1", %"class.aie::detail::vector.1"* %custom_type.tmp, align 32, !dbg !3338, !tbaa !1850
  call addrspace(1) void @llvm.dbg.value(metadata %"class.aie::detail::vector.1" %0, metadata !3330, metadata !DIExpression()), !dbg !3337
  store %class.anon undef, %class.anon* %fn, align 1, !dbg !3339
  %1 = bitcast %class.anon* %fn to i8*, !dbg !3339
  call addrspace(1) void @llvm.lifetime.start.p0i8(i64 1, i8* %1) #24, !dbg !3339
  call addrspace(1) void @llvm.dbg.declare(metadata %class.anon* %fn, metadata !3331, metadata !DIExpression()), !dbg !3340
  %2 = bitcast %class.anon* %fn to i8*, !dbg !3340
  call addrspace(1) void @llvm.memcpy.p0i8.p0i8.i32(i8* align 1 %2, i8* align 1 getelementptr inbounds (%class.anon, %class.anon* @__const._ZNK3aie6detail5accumILNS0_10AccumClassE0ELj64ELj8EE9to_vectorIiEENS0_6vectorIT_Lj8EEEi.fn, i32 0, i32 0), i32 1, i1 false), !dbg !3340
  %data = getelementptr inbounds %"class.aie::detail::accum", %"class.aie::detail::accum"* %this, i32 0, i32 0, !dbg !3341
  %call = call addrspace(1) %struct.v8int32 @_ZZN3aie6detail5accumILNS0_10AccumClassE0ELj64ELj8EE7get_srsIiEEDavENKUlRKT_iE_clI7v8acc80EEDaS7_i(%class.anon* nonnull dereferenceable(1) %fn, %struct.v8acc80* nonnull align 32 dereferenceable(128) %data, i32 0) #27, !dbg !3344
  %3 = getelementptr inbounds %struct.v8int32, %struct.v8int32* %agg.tmp, i32 0, i32 0, !dbg !3344
  %4 = extractvalue %struct.v8int32 %call, 0, !dbg !3344
  store %struct.ipd.custom_type.v32int8.v32int8 %4, %struct.ipd.custom_type.v32int8.v32int8* %3, align 32, !dbg !3344
  %5 = load %struct.v8int32, %struct.v8int32* %agg.tmp, align 32, !dbg !3344, !tbaa !2594
  call addrspace(1) void @_ZN3aie6detail6vectorIiLj8EEC2E7v8int32(%"class.aie::detail::vector.1"* nonnull dereferenceable(32) %custom_type.tmp2, %struct.v8int32 %5) #27, !dbg !3344
  %6 = load %"class.aie::detail::vector.1", %"class.aie::detail::vector.1"* %custom_type.tmp2, align 32, !dbg !3344, !tbaa !1850
  %7 = bitcast %class.anon* %fn to i8*, !dbg !3345
  call addrspace(1) void @llvm.lifetime.end.p0i8(i64 1, i8* %7) #24, !dbg !3345
  ret %"class.aie::detail::vector.1" %6, !dbg !3344
}

; Function Attrs: alwaysinline nounwind mustprogress
define linkonce_odr dso_local %"class.aie::detail::vector.1" @_ZN3aie3addINS_6detail6vectorIiLj8EEES3_EEN22aie_dm_resource_removeIT_E4typeERKS5_RKT0_(%"class.aie::detail::vector.1"* nonnull align 32 dereferenceable(32) %v1, %"class.aie::detail::vector.1"* nonnull align 32 dereferenceable(32) %v2) addrspace(1) #9 comdat !dbg !3346 {
entry:
  %retval = alloca %"class.aie::detail::vector.1", align 32
  call addrspace(1) void @llvm.dbg.value(metadata %"class.aie::detail::vector.1"* %v1, metadata !3350, metadata !DIExpression()), !dbg !3353
  call addrspace(1) void @llvm.dbg.value(metadata %"class.aie::detail::vector.1"* %v2, metadata !3351, metadata !DIExpression()), !dbg !3353
  call addrspace(1) void @llvm.dbg.value(metadata i32 undef, metadata !3352, metadata !DIExpression()), !dbg !3353
  call addrspace(1) void @llvm.dbg.value(metadata i32 8, metadata !3352, metadata !DIExpression()), !dbg !3353
  %call = call addrspace(1) %"class.aie::detail::vector.1" @_ZN3aie6detail12add_sub_bitsILj32EiLj8ELNS0_15AddSubOperationE0EE3runERKNS0_6vectorIiLj8EEES7_(%"class.aie::detail::vector.1"* nonnull align 32 dereferenceable(32) %v1, %"class.aie::detail::vector.1"* nonnull align 32 dereferenceable(32) %v2) #27, !dbg !3354
  %0 = getelementptr inbounds %"class.aie::detail::vector.1", %"class.aie::detail::vector.1"* %retval, i32 0, i32 0, !dbg !3354
  %1 = extractvalue %"class.aie::detail::vector.1" %call, 0, !dbg !3354
  store %struct.v8int32 %1, %struct.v8int32* %0, align 32, !dbg !3354
  %2 = load %"class.aie::detail::vector.1", %"class.aie::detail::vector.1"* %retval, align 32, !dbg !3355
  ret %"class.aie::detail::vector.1" %2, !dbg !3355
}

; Function Attrs: alwaysinline nounwind mustprogress
