; ModuleID = '/home/users/eleonora.cabai/Documents/K-Means-AIE/aie/Work/aie/24_0/src/24_0.cc'
source_filename = "/home/users/eleonora.cabai/Documents/K-Means-AIE/aie/Work/aie/24_0/src/24_0.cc"
target datalayout = "e-i8:8:8-i16:16:16-i32:32:32-i64:32:32-f32:32:32-f64:32:32-p:32:32:32:32:8-s0:256:256-a0:8:8-S256-n32:64-P1-p0:20:32:32:32:8-p1:20:32:32:32:8-p2:20:32:32:32:8-p3:20:32:32:32:8-p4:20:32:32:32:8-p5:20:32:32:32:8-p6:20:32:32:32:8-p7:20:32:32:32:8-p8:20:32:32:32:8-p9:1:32:32:32:32-p10:1:32:32:32:32-p11:1:32:32:32:32-p12:1:32:32:32:32-p13:1:32:32:32:32-p14:1:32:32:32:32-p15:1:32:32:32:32-p16:1:32:32:32:32-p17:1:32:32:32:32-p18:1:32:32:32:32-p19:1:32:32:32:32-p20:1:32:32:32:32-p21:1:32:32:32:32-p22:1:32:32:32:32-p23:1:32:32:32:32-p24:1:32:32:32:32"
target triple = "pdarch-unknown-unknown-elf"

%class.anon = type { i8 }
%"struct.aie::detail::utils::unroll_context" = type { i8 }
%struct.input_stream.0 = type { %union.anon.1 }
%union.anon.1 = type { i32 }
%struct.output_stream.2 = type { %union.anon.3 }
%union.anon.3 = type { i32 }
%struct.ipd.custom_type.uint2_t.uint2_t.4 = type { i8 }
%"class.aie::detail::vector" = type { %struct.v4int32 }
%struct.v4int32 = type { %struct.ipd.custom_type.v16int8.v16int8 }
%struct.ipd.custom_type.v16int8.v16int8 = type { i128 }
%"class.aie::detail::vector_elem_ref" = type { %"class.aie::detail::vector"*, i32 }
%class.Cluster = type { i32, i32, i32, i32, i32 }
%class.Point = type { i32, i32, i32 }
%"class.aie::detail::vector.1" = type { %struct.v8int32 }
%struct.v8int32 = type { %struct.ipd.custom_type.v32int8.v32int8 }
%struct.ipd.custom_type.v32int8.v32int8 = type { i256 }
%"class.aie::detail::vector_elem_ref.2" = type { %"class.aie::detail::vector.1"*, i32 }
%"class.aie::detail::vector.3" = type { %struct.v16int32 }
%struct.v16int32 = type { %struct.ipd.custom_type.v64int8.v64int8 }
%struct.ipd.custom_type.v64int8.v64int8 = type { i512 }
%"class.aie::detail::vector_elem_ref.4" = type { %"class.aie::detail::vector.3"*, i32 }
%"class.aie::detail::accum" = type { %struct.v8acc80 }
%struct.v8acc80 = type { %struct.ipd.custom_type.v16acc48.v16acc48 }
%struct.ipd.custom_type.v16acc48.v16acc48 = type { i768 }
%struct.v8int16 = type { %struct.ipd.custom_type.v16int8.v16int8 }
%struct.output_stream.10 = type { %union.anon.1 }
%struct.ipd.custom_type.uint1_t.uint1_t = type { i8 }
%"class.aie::detail::vector.12" = type { %struct.v8cint32 }
%struct.v8cint32 = type { %struct.ipd.custom_type.v64int8.v64int8 }
%struct.v2cint32 = type { %struct.ipd.custom_type.v16int8.v16int8 }
%"class.aie::detail::vector.13" = type { %struct.v4cint32 }
%struct.v4cint32 = type { %struct.ipd.custom_type.v32int8.v32int8 }
%struct.v32int32 = type { %struct.ipd.custom_type.v128int8.v128int8 }
%struct.ipd.custom_type.v128int8.v128int8 = type { i1024 }
%struct.ipd.custom_type.uint3_t.uint3_t = type { i8 }
%"struct.me_primitive::chessout_v8int32_dssrs_v8acc80___uchar_uint1_t_uint1_t_uint1_t_uint3_t_uint1_t" = type <{ %struct.v8int32, %struct.ipd.custom_type.uint1_t.uint1_t }>
%"struct.aie::unary_op" = type { %"struct.aie::unary_op_common" }
%"struct.aie::unary_op_common" = type { %"class.aie::detail::vector.1" }
%class.anon.6 = type { %"class.aie::detail::vector.1"*, %"class.aie::detail::vector.1"*, %class.anon*, %"class.aie::detail::accum"* }
%"class.aie::detail::vector_elem_const_ref" = type { %"class.aie::detail::vector.3"*, i32 }
%class.anon.14 = type { %"class.aie::detail::accum"*, i32*, %"class.aie::detail::accum"* }
%"struct.me_primitive::chessout_v8acc80_ups_w2b_sw_v8int32___uchar_uint1_t_uint2_t_uint1_t_uint1_t" = type <{ %struct.v8acc80, %struct.ipd.custom_type.uint1_t.uint1_t }>
%"class.aie::detail::vector.7" = type { %struct.v8int16 }
%"struct.me_primitive::chessout_v4int32_stream_read128___PWSS_rsrc1__sint_uint1_t___sint" = type <{ %struct.v4int32, i32 }>
%"struct.me_primitive::chessout_v4int32_stream_read128___PWSS_rsrc2__sint_uint1_t___sint" = type <{ %struct.v4int32, i32 }>
%"struct.me_primitive::chessout_v4int32_stream_read128___PWSSMEM__sint_uint1_t___sint" = type <{ %struct.v4int32, i32 }>

$_ZN12input_streamIiEC2Ej = comdat any

$_ZN13output_streamIiEC2Ej = comdat any

$_Z4donev = comdat any

$_ZN12me_primitive5eventE7uint2_t = comdat any

$_ZN7uint2_tC2Ei = comdat any

$_ZN3aie5zerosIiLj4EEENS_6detail6vectorIT_XT0_EEEv = comdat any

$_Z10readincr_vILj4EL22aie_stream_resource_in0EiEN3aie6detail6vectorIT1_XT_EEEP12input_streamIS4_E = comdat any

$_ZN3aie6detail6vectorIiLj4EEixEj = comdat any

$_ZNK3aie6detail15vector_elem_refIiLj4EEcviEv = comdat any

$_ZN7ClusterC2Ev = comdat any

$_ZN5PointC2Ev = comdat any

$_ZN5PointC2Eii = comdat any

$_ZN7ClusterC2Eii = comdat any

$_ZN3aie5zerosIiLj8EEENS_6detail6vectorIT_XT0_EEEv = comdat any

$_ZN5Point10setClusterEi = comdat any

$_ZN7Cluster8addPointE5Point = comdat any

$_ZN7Cluster17updateCoordinatesEv = comdat any

$_ZN7Cluster4getXEv = comdat any

$_ZN3aie6detail6vectorIiLj8EEixEj = comdat any

$_ZN3aie6detail15vector_elem_refIiLj8EEaSERKi = comdat any

$_ZN7Cluster4getYEv = comdat any

$_Z9writeincrIL23aie_stream_resource_out0EiLj8EEvP13output_streamIT0_ERKN3aie6detail6vectorIS2_XT1_EEE = comdat any

$_ZN3aie5zerosIiLj16EEENS_6detail6vectorIT_XT0_EEEv = comdat any

$_ZN3aie6detail6vectorIiLj16EEixEj = comdat any

$_ZN3aie6detail15vector_elem_refIiLj16EEaSERKi = comdat any

$_Z9writeincrIL23aie_stream_resource_out0EiLj16EEvP13output_streamIT0_ERKN3aie6detail6vectorIS2_XT1_EEE = comdat any

$_ZN3aie6detail15vector_elem_refIiLj4EEaSERKi = comdat any

$_Z9writeincrIL23aie_stream_resource_out0EiLj4EEvP13output_streamIT0_ERKN3aie6detail6vectorIS2_XT1_EEE = comdat any

$_ZN3aie6detail3adf17stream_out_helperILj4EiL23aie_stream_resource_out0EE9writeincrEP13output_streamIiENS0_6vectorIiLj4EEE = comdat any

$_ZNK3aie6detail6vectorIiLj4EE7extractILj4EEENS1_IiXT_EEEj = comdat any

$_ZNK3aie6detail6vectorIiLj4EEcv7v4int32Ev = comdat any

$_Z10as_v8int167v4int32 = comdat any

$_Z7put_wmsi7v8int16i = comdat any

$_Z10as_v4int327v8int16 = comdat any

$_Z7put_wmsi7v4int32i = comdat any

$_ZN7uint1_tC2Ei = comdat any

$_ZN12me_primitive15stream_write128EPU4AS23U16__protect_accessi7v4int327uint1_tS3_ = comdat any

$_ZN12me_primitive15stream_write128EPU4AS24U16__protect_accessi7v4int327uint1_tS3_ = comdat any

$_ZN12me_primitive15stream_write128EPU4AS12U16__protect_accessi7v4int327uint1_tS3_ = comdat any

$_ZN7v4int32C2E17chessllvmInternal7v16int8 = comdat any

$_ZN7v8int16C2E17chessllvmInternal7v16int8 = comdat any

$_ZNK3aie6detail6vectorIiLj4EE9to_nativeEv = comdat any

$_ZN3aie6detail6vectorIiLj4EE3setEij = comdat any

$_Z8upd_elem7v4int32ji = comdat any

$_ZN3aie6detail3adf17stream_out_helperILj16EiL23aie_stream_resource_out0EE9writeincrEP13output_streamIiENS0_6vectorIiLj16EEE = comdat any

$_ZNK3aie6detail6vectorIiLj16EE7extractILj4EEENS1_IiXT_EEEj = comdat any

$_ZN3aie6detail6vectorIiLj4EEC2Ev = comdat any

$_Z5ext_v8v16int32i = comdat any

$_ZNK3aie6detail6vectorIiLj16EE7cast_toI6cint32EEDav = comdat any

$_ZNK3aie6detail6vectorI6cint32Lj8EE4growILj8EEENS1_IS2_XT_EEEj = comdat any

$_ZNK3aie6detail6vectorI6cint32Lj8EEcv8v8cint32Ev = comdat any

$_Z8shuffle88v8cint32ij = comdat any

$_ZN3aie6detail6vectorI6cint32Lj8EEC2E8v8cint32 = comdat any

$_Z5ext_v8v8cint32i = comdat any

$_ZN3aie6detail6vectorIiLj4EEC2E7v4int32 = comdat any

$_Z10as_v4int328v2cint32 = comdat any

$_ZNK3aie6detail6vectorI6cint32Lj8EE9to_nativeEv = comdat any

$_ZN3aie6detail6vectorI6cint32Lj8EEC2Ev = comdat any

$_ZN3aie6detail14vector_storageI6cint32Lj8EE5undefEv = comdat any

$_Z14undef_v8cint32v = comdat any

$_Z11as_v8cint328v16int32 = comdat any

$_ZN8v8cint32C2E17chessllvmInternal7v64int8 = comdat any

$_ZN3aie6detail14vector_storageIiLj4EE5undefEv = comdat any

$_Z13undef_v4int32v = comdat any

$_ZN3aie6detail6vectorIiLj16EE3setEij = comdat any

$_Z8upd_elem8v16int32ji = comdat any

$_ZN3aie6detail6vectorIiLj16EE8elem_refEj = comdat any

$_ZN3aie6detail15vector_elem_refIiLj16EEC2ERNS0_6vectorIiLj16EEEj = comdat any

$_ZN3aie6detail5zerosIiLj16EEENS0_6vectorIT_XT0_EEEv = comdat any

$_ZN3aie6detail6vectorIiLj8EEC2E7v8int32 = comdat any

$_ZN3aie6detail13concat_vectorIJRKNS0_6vectorIiLj8EEES5_EEEDaDpOT_ = comdat any

$_ZN3aie6detail11vector_castIiiLj16EEEDaRKNS0_6vectorIT0_XT1_EEE = comdat any

$_ZNK3aie6detail6vectorIiLj16EE7cast_toIiEEDav = comdat any

$_ZN3aie6detail6vectorIiLj16EEC2Ev = comdat any

$_Z11as_v16int328v16int32 = comdat any

$_ZN3aie6detail14vector_storageIiLj16EE5undefEv = comdat any

$_Z14undef_v16int32v = comdat any

$_ZNSt3__27forwardIRKN3aie6detail6vectorIiLj8EEEEEOT_RNS_16remove_referenceIS7_E4typeE = comdat any

$_ZN3aie6detail20concat_vector_helperIiLj8EE3runIJRKNS0_6vectorIiLj8EEES7_EEEDaDpOT_ = comdat any

$_ZN3aie6detail6vectorIiLj16EE7upd_allIJRKNS1_IiLj8EEES6_EEERS2_DpOT_ = comdat any

$_Z6concat7v8int32S_ = comdat any

$_ZN3aie6detail3adf17stream_out_helperILj8EiL23aie_stream_resource_out0EE9writeincrEP13output_streamIiENS0_6vectorIiLj8EEE = comdat any

$_ZNK3aie6detail6vectorIiLj8EE7extractILj4EEENS1_IiXT_EEEj = comdat any

$_Z5ext_v7v8int32i = comdat any

$_ZNK3aie6detail6vectorIiLj8EE7cast_toI6cint32EEDav = comdat any

$_ZNK3aie6detail6vectorI6cint32Lj4EE4growILj8EEENS1_IS2_XT_EEEj = comdat any

$_Z6xset_wi8v4cint32 = comdat any

$_ZN3aie6detail6vectorI6cint32Lj4EEC2Ev = comdat any

$_Z11as_v4cint327v8int32 = comdat any

$_ZN8v4cint32C2E17chessllvmInternal7v32int8 = comdat any

$_ZN3aie6detail14vector_storageI6cint32Lj4EE5undefEv = comdat any

$_Z14undef_v4cint32v = comdat any

$_ZN3aie6detail6vectorIiLj8EE3setEij = comdat any

$_Z8upd_elem7v8int32ji = comdat any

$_ZN3aie6detail6vectorIiLj8EE8elem_refEj = comdat any

$_ZN3aie6detail15vector_elem_refIiLj8EEC2ERNS0_6vectorIiLj8EEEj = comdat any

$_ZN5Point4getXEv = comdat any

$_ZN5Point4getYEv = comdat any

$_ZN3aie10reduce_minINS_6detail6vectorIiLj8EEEEENT_10value_typeERKS4_ = comdat any

$_ZNK3aie6detail15vector_elem_refIiLj8EEeqIiEEbT_ = comdat any

$_ZNK3aie6detail15vector_elem_refIiLj8EEcviEv = comdat any

$_ZNK3aie6detail15vector_elem_refIiLj8EE3getEv = comdat any

$_ZNK3aie6detail6vectorIiLj8EE3getEj = comdat any

$_Z8ext_elem7v8int32j = comdat any

$_ZN3aie6detail19max_min_reduce_bitsILj32EiLj8ELNS0_15MaxMinOperationE1EE3runERKNS0_6vectorIiLj8EEE = comdat any

$_ZN3aie6detail24max_min_bits_reduce_implILj32EiLj8ELNS0_15MaxMinOperationE1EE3runERKNS0_6vectorIiLj8EEE = comdat any

$_ZNK3aie6detail6vectorIiLj8EE4growILj16EEENS1_IiXT_EEEj = comdat any

$_ZZN3aie6detail24max_min_bits_reduce_implILj32EiLj8ELNS0_15MaxMinOperationE1EE6get_opEvENKUlDpOT_E_clIJNS0_6vectorIiLj16EEEiiiiiiEEEDaS6_ = comdat any

$_ZN3aie6detail6vectorIiLj16EEC2E8v16int32 = comdat any

$_ZZN3aie6detail24max_min_bits_reduce_implILj32EiLj8ELNS0_15MaxMinOperationE1EE6get_opEvENKUlDpOT_E_clIJRNS0_6vectorIiLj16EEEiiiiiiEEEDaS6_ = comdat any

$_ZNK3aie6detail15vector_elem_refIiLj16EEcviEv = comdat any

$_ZNK3aie6detail15vector_elem_refIiLj16EE3getEv = comdat any

$_ZNK3aie6detail6vectorIiLj16EE3getEj = comdat any

$_Z8ext_elem8v16int32j = comdat any

$_ZNK3aie6detail6vectorIiLj16EEcv8v16int32Ev = comdat any

$_Z5min168v16int32ijjijj = comdat any

$_ZNK3aie6detail6vectorIiLj16EE9to_nativeEv = comdat any

$_Z6xset_wi7v8int32 = comdat any

$_ZN3aie5zerosI5acc64Lj8EEENS_6detail5accumIXsr6detailE21accum_class_for_tag_vIT_EEXsr6detailE20accum_bits_for_tag_vIS4_EEXT0_EEEv = comdat any

$_ZN3aie3subINS_6detail6vectorIiLj8EEEiEEN22aie_dm_resource_removeIT_E4typeERKS5_T0_ = comdat any

$_ZN3aie3mulINS_6detail6vectorIiLj8EEES3_EEDaRKT_RKT0_ = comdat any

$_ZNK3aie6detail5accumILNS0_10AccumClassE0ELj64ELj8EE9to_vectorIiEENS0_6vectorIT_Lj8EEEi = comdat any

$_ZN3aie3addINS_6detail6vectorIiLj8EEES3_EEN22aie_dm_resource_removeIT_E4typeERKS5_RKT0_ = comdat any

$_ZN3aie6detail12add_sub_bitsILj32EiLj8ELNS0_15AddSubOperationE0EE3runERKNS0_6vectorIiLj8EEES7_ = comdat any

$_ZN3aie6detail17add_sub_bits_implILj32EiLj8ELNS0_15AddSubOperationE0EE3runERKNS0_6vectorIiLj8EEES7_ = comdat any

$_ZN3aie6detail5utils14is_same_objectINS0_6vectorIiLj8EEES4_EEbRKT_RKT0_ = comdat any

$_ZZN3aie6detail17add_sub_bits_implILj32EiLj8ELNS0_15AddSubOperationE0EE6get_opEvENKUlDpOT_E_clIJNS0_6vectorIiLj16EEEiijiijEEEDaS6_ = comdat any

$_ZZN3aie6detail17add_sub_bits_implILj32EiLj8ELNS0_15AddSubOperationE0EE6get_opEvENKUlDpOT_E_clIJNS0_6vectorIiLj16EEESA_EEEDaS6_ = comdat any

$_ZNK3aie6detail6vectorIiLj16EE7extractILj8EEENS1_IiXT_EEEj = comdat any

$_ZN3aie6detail6vectorIiLj8EEC2Ev = comdat any

$_Z5ext_w8v16int32i = comdat any

$_Z5ext_w8v8cint32i = comdat any

$_Z10as_v8int328v4cint32 = comdat any

$_ZN7v8int32C2E17chessllvmInternal7v32int8 = comdat any

$_ZN3aie6detail14vector_storageIiLj8EE5undefEv = comdat any

$_Z13undef_v8int32v = comdat any

$_Z5add168v16int32S_ = comdat any

$_Z6concat8v16int32S_ = comdat any

$_Z5add168v32int32ijjijj = comdat any

$_Z5add168v16int32ijjijj = comdat any

$_ZZN3aie6detail5accumILNS0_10AccumClassE0ELj64ELj8EE7get_srsIiEEDavENKUlRKT_iE_clI7v8acc80EEDaS7_i = comdat any

$_Z3srs7v8acc80i = comdat any

$_ZN12me_primitive8shft_nrmEi = comdat any

$_Z12get_sat_implv = comdat any

$_Z16get_sym_sat_implv = comdat any

$_Z12get_rnd_implv = comdat any

$_ZN12me_primitive5dssrsI7uint1_tEEN13chessEnableIfIXsr17chessIsCompatibleIN15chessRemoveQualIT_E4typeES1_EE5valueE7v8int32E4typeE7v8acc80hS1_S1_S1_7uint3_tRS4_ = comdat any

$_Z16set_srs_sat_impl7uint1_t = comdat any

$_Z20chess_dont_warn_deadI7uint1_tERKT_S3_ = comdat any

$_ZN3aie3mulI5acc64NS_6detail6vectorIiLj8EEES4_EENS2_5accumIXsr6detailE21accum_class_for_tag_vIT_EEXsr6detailE20accum_bits_for_tag_vIS6_EEXclsrT0_4sizeEEEERKS7_RKT1_ = comdat any

$_ZN3aie7op_noneINS_6detail6vectorIiLj8EEEEENS_8unary_opIT_LNS_9OperationE0EEERKS5_ = comdat any

$_ZN3aie3mulI5acc64NS_8unary_opINS_6detail6vectorIiLj8EEELNS_9OperationE0EEES5_EENS3_5accumIXsr6detailE21accum_class_for_tag_vIT_EEXsr6detailE20accum_bits_for_tag_vIS9_EEXclsrT0_4sizeEEEERKSA_RKT1_ = comdat any

$_ZN3aie3mulI5acc64NS_8unary_opINS_6detail6vectorIiLj8EEELNS_9OperationE0EEES7_EENS3_5accumIXsr6detailE21accum_class_for_tag_vIT_EEXsr6detailE20accum_bits_for_tag_vIS9_EEXclsrT0_4sizeEEEERKSA_RKT1_ = comdat any

$_ZNK3aie15unary_op_commonINS_6detail6vectorIiLj8EEELNS_9OperationE0EE7parent1Ev = comdat any

$_ZN3aie6detail12get_mul_signINS_8unary_opINS0_6vectorIiLj8EEELNS_9OperationE0EEEEEbT_ = comdat any

$_ZN3aie6detail8mul_bitsILNS0_10MulMacroOpE0ELj80ELj32EiLj32EiE3runILj8EJEEEDaRKNS0_6vectorIiXT_EEEbS8_bDpRKT0_ = comdat any

$_ZN3aie6detail5accumILNS0_10AccumClassE0ELj64ELj8EEC2ILj80EEERKNS1_ILS2_0EXT_ELj8EEE = comdat any

$_ZN3aie6detail13mul_bits_implILNS0_10MulMacroOpE0ELj80ELj32EiLj32EiE3runILj8EJEEENS0_5accumILNS0_10AccumClassE0ELj80EXT_EEERKNS0_6vectorIiXT_EEEbSB_bDpRKT0_ = comdat any

$_ZN3aie6detail5accumILNS0_10AccumClassE0ELj80ELj8EEC2Ev = comdat any

$_ZN3aie6detail5utils12unroll_timesILj1EZNS0_13mul_bits_implILNS0_10MulMacroOpE0ELj80ELj32EiLj32EiE3runILj8EJEEENS0_5accumILNS0_10AccumClassE0ELj80EXT_EEERKNS0_6vectorIiXT_EEEbSD_bDpRKT0_EUlT_E_EEvOT0_ = comdat any

$_ZNSt3__27forwardIZN3aie6detail13mul_bits_implILNS2_10MulMacroOpE0ELj80ELj32EiLj32EiE3runILj8EJEEENS2_5accumILNS2_10AccumClassE0ELj80EXT_EEERKNS2_6vectorIiXT_EEEbSD_bDpRKT0_EUlT_E_EEOSI_RNS_16remove_referenceISI_E4typeE = comdat any

$_ZN3aie6detail5utils10unroll_forIjLj0ELj1ELj1EZNS0_13mul_bits_implILNS0_10MulMacroOpE0ELj80ELj32EiLj32EiE3runILj8EJEEENS0_5accumILNS0_10AccumClassE0ELj80EXT_EEERKNS0_6vectorIiXT_EEEbSD_bDpRKT0_EUlT_E_EEvOT3_ = comdat any

$_ZN3aie6detail5utils17unroll_for_helperIjLj0ELj1ELj0ELj1EE7executeIZNS0_13mul_bits_implILNS0_10MulMacroOpE0ELj80ELj32EiLj32EiE3runILj8EJEEENS0_5accumILNS0_10AccumClassE0ELj80EXT_EEERKNS0_6vectorIiXT_EEEbSF_bDpRKT0_EUlT_E_EEvOSK_ = comdat any

$_ZZN3aie6detail13mul_bits_implILNS0_10MulMacroOpE0ELj80ELj32EiLj32EiE3runILj8EJEEENS0_5accumILNS0_10AccumClassE0ELj80EXT_EEERKNS0_6vectorIiXT_EEEbSB_bDpRKT0_ENKUlT_E_clINS0_5utils14unroll_contextIjLj0ELj1ELj0EEEEEDaSG_ = comdat any

$_ZN3aie6detail5utils17unroll_for_helperIjLj0ELj1ELj1ELj1EE7executeIZNS0_13mul_bits_implILNS0_10MulMacroOpE0ELj80ELj32EiLj32EiE3runILj8EJEEENS0_5accumILNS0_10AccumClassE0ELj80EXT_EEERKNS0_6vectorIiXT_EEEbSF_bDpRKT0_EUlT_E_EEvOSK_ = comdat any

$_ZNK3aie6detail5utils14unroll_contextIjLj0ELj1ELj0EEcvjEv = comdat any

$_ZNK3aie6detail6vectorIiLj8EE12grow_extractILj16EEENS1_IiXT_EEEj = comdat any

$_ZN3aie6detail5accumILNS0_10AccumClassE0ELj80ELj8EEC2E7v8acc80 = comdat any

$_ZNK3aie6detail5accumILNS0_10AccumClassE0ELj80ELj8EE7extractILj8EEENS1_ILS2_0ELj80EXT_EEEj = comdat any

$_ZN3aie6detail5accumILNS0_10AccumClassE0ELj80ELj8EE6insertILj8ELj80EEERS3_jRKNS1_ILS2_0EXT0_EXT_EEE = comdat any

$_ZNK3aie6detail6vectorIiLj8EE12grow_extractILj8EEENS1_IiXT_EEEj = comdat any

$_ZNK3aie6detail6vectorIiLj8EEcv7v8int32Ev = comdat any

$_Z5lmul88v16int32ij7v8int32jj = comdat any

$_ZNK3aie6detail6vectorIiLj8EE9to_nativeEv = comdat any

$_ZNK3aie6detail6vectorIiLj8EE7extractILj8EEENS1_IiXT_EEEj = comdat any

$_Z5lmul88v16int32ijij = comdat any

$_ZNK3aie6detail5utils14unroll_contextIjLj0ELj1ELj0EE7currentEv = comdat any

$_ZN3aie6detail13accum_storageILNS0_10AccumClassE0ELj80ELj8EE5undefEv = comdat any

$_Z13undef_v8acc80v = comdat any

$_ZN3aie8unary_opINS_6detail6vectorIiLj8EEELNS_9OperationE0EECI2NS_15unary_op_commonIS3_LS4_0EEEES3_ = comdat any

$_ZN3aie15unary_op_commonINS_6detail6vectorIiLj8EEELNS_9OperationE0EEC2ES3_ = comdat any

$_ZN3aie6detail12add_sub_bitsILj32EiLj8ELNS0_15AddSubOperationE1EE3runERKNS0_6vectorIiLj8EEERKi = comdat any

$_ZN3aie6detail17add_sub_bits_implILj32EiLj8ELNS0_15AddSubOperationE1EE3runERKNS0_6vectorIiLj8EEERKi = comdat any

$_ZN3aie6detail6vectorIiLj16EEC2IJEEEiDpOT_ = comdat any

$_ZNK3aie6detail6vectorIiLj16EE14elem_const_refEj = comdat any

$_ZN3aie6detail17add_sub_bits_implILj32EiLj8ELNS0_15AddSubOperationE1EE3runILj16EEENS0_6vectorIiLj8EEERKS6_NS0_21vector_elem_const_refIiXT_EEE = comdat any

$_ZN3aie6detail5utils14is_same_objectINS0_6vectorIiLj16EEENS3_IiLj8EEEEEbRKT_RKT0_ = comdat any

$_ZZN3aie6detail17add_sub_bits_implILj32EiLj8ELNS0_15AddSubOperationE1EE6get_opEvENKUlDpOT_E_clIJNS0_6vectorIiLj16EEEiijRjiiEEEDaS6_ = comdat any

$_ZNK3aie6detail6vectorIiLj16EE4growILj16EEENS1_IiXT_EEEj = comdat any

$_ZZN3aie6detail17add_sub_bits_implILj32EiLj8ELNS0_15AddSubOperationE1EE6get_opEvENKUlDpOT_E_clIJNS0_6vectorIiLj16EEEiijSA_RjiiEEEDaS6_ = comdat any

$_Z5sub168v16int32ijjS_ijj = comdat any

$_Z5sub168v16int32ijjijj = comdat any

$_ZN3aie6detail21vector_elem_const_refIiLj16EEC2ERKNS0_6vectorIiLj16EEEj = comdat any

$_ZN3aie6detail6vectorIiLj16EE23init_from_values_simpleI8v16int32JEiEEvRT_RKiDpOT0_ = comdat any

$_Z9shft_elem8v16int32i = comdat any

$_ZN3aie6detail5zerosILNS0_10AccumClassE0ELj64ELj8EEENS0_5accumIXT_EXT0_EXT1_EEEv = comdat any

$_ZN3aie6detail5accumILNS0_10AccumClassE0ELj64ELj8EEC2Ev = comdat any

$_ZN3aie6detail5zerosIiLj8EEENS0_6vectorIT_XT0_EEEv = comdat any

$_ZN3aie6detail5accumILNS0_10AccumClassE0ELj64ELj8EE11from_vectorIiEEvRKNS0_6vectorIT_Lj8EEEi = comdat any

$_ZN3aie6detail5utils10unroll_forIjLj0ELj1ELj1EZNS0_5zerosILNS0_10AccumClassE0ELj64ELj8EEENS0_5accumIXT_EXT0_EXT1_EEEvEUlT_E_EEvOT3_ = comdat any

$_ZNSt3__27forwardIZN3aie6detail5zerosILNS2_10AccumClassE0ELj64ELj8EEENS2_5accumIXT_EXT0_EXT1_EEEvEUlT_E_EEOS7_RNS_16remove_referenceIS7_E4typeE = comdat any

$_ZN3aie6detail5utils17unroll_for_helperIjLj0ELj1ELj0ELj1EE7executeIZNS0_5zerosILNS0_10AccumClassE0ELj64ELj8EEENS0_5accumIXT_EXT0_EXT1_EEEvEUlT_E_EEvOS9_ = comdat any

$_ZZN3aie6detail5zerosILNS0_10AccumClassE0ELj64ELj8EEENS0_5accumIXT_EXT0_EXT1_EEEvENKUlT_E_clINS0_5utils14unroll_contextIjLj0ELj1ELj0EEEEEDaS5_ = comdat any

$_ZN3aie6detail5utils17unroll_for_helperIjLj0ELj1ELj1ELj1EE7executeIZNS0_5zerosILNS0_10AccumClassE0ELj64ELj8EEENS0_5accumIXT_EXT0_EXT1_EEEvEUlT_E_EEvOS9_ = comdat any

$_ZN3aie6detail5accumILNS0_10AccumClassE0ELj64ELj8EE6insertILj8ELj64EEERS3_jRKNS1_ILS2_0EXT0_EXT_EEE = comdat any

$_ZZN3aie6detail5accumILNS0_10AccumClassE0ELj64ELj8EE7get_upsIiLj8EEEDavENKUlRKT_iE_clINS0_6vectorIiLj8EEEEEDaS7_i = comdat any

$_Z4lups7v8int32i = comdat any

$_ZN12me_primitive10ups_w2b_swI7uint1_tEEN13chessEnableIfIXsr17chessIsCompatibleIN15chessRemoveQualIT_E4typeES1_EE5valueE7v8acc80E4typeE7v8int32hS1_7uint2_tS1_RS4_ = comdat any

$_Z16set_ups_sat_impl7uint1_t = comdat any

$_ZN3aie6detail11vector_castIiiLj8EEEDaRKNS0_6vectorIT0_XT1_EEE = comdat any

$_ZNK3aie6detail6vectorIiLj8EE7cast_toIiEEDav = comdat any

$_Z10as_v8int327v8int32 = comdat any

$_ZNK3aie6detail15vector_elem_refIiLj4EE3getEv = comdat any

$_ZNK3aie6detail6vectorIiLj4EE3getEj = comdat any

$_Z8ext_elem7v4int32j = comdat any

$_ZN3aie6detail6vectorIiLj4EE8elem_refEj = comdat any

$_ZN3aie6detail15vector_elem_refIiLj4EEC2ERNS0_6vectorIiLj4EEEj = comdat any

$_ZN3aie6detail3adf16stream_in_helperILj4EiL22aie_stream_resource_in0EE8readincrEP12input_streamIiE = comdat any

$_ZN3aie6detail6vectorIsLj8EEC2E7v8int16 = comdat any

$_ZN3aie11vector_castIiNS_6detail6vectorIsLj8EEEEEDaRKT0_ = comdat any

$_ZN3aie6detail6vectorIiLj4EE6insertILj4EEERS2_jRKNS1_IiXT_EEE = comdat any

$_ZN3aie6detail11vector_castIisLj8EEEDaRKNS0_6vectorIT0_XT1_EEE = comdat any

$_ZNK3aie6detail6vectorIsLj8EE7cast_toIiEEDav = comdat any

$_Z7get_wssi = comdat any

$_Z8getl_wssi = comdat any

$_ZN12me_primitive14stream_read128IiEEN13chessEnableIfIXsr17chessIsCompatibleIN15chessRemoveQualIT_E4typeEiEE5valueE7v4int32E4typeEPU4AS19U16__protect_accessi7uint1_tRS3_ = comdat any

$_ZN12me_primitive14stream_read128IiEEN13chessEnableIfIXsr17chessIsCompatibleIN15chessRemoveQualIT_E4typeEiEE5valueE7v4int32E4typeEPU4AS20U16__protect_accessi7uint1_tRS3_ = comdat any

$_ZN12me_primitive14stream_read128IiEEN13chessEnableIfIXsr17chessIsCompatibleIN15chessRemoveQualIT_E4typeEiEE5valueE7v4int32E4typeEPU4AS11U16__protect_accessi7uint1_tRS3_ = comdat any

$_ZN3aie6detail5zerosIiLj4EEENS0_6vectorIT_XT0_EEEv = comdat any

$_ZN3aie6detail11vector_castIiiLj4EEEDaRKNS0_6vectorIT0_XT1_EEE = comdat any

$_ZNK3aie6detail6vectorIiLj4EE7cast_toIiEEDav = comdat any

$_Z10as_v4int327v4int32 = comdat any

@_ZL11sync_buffer = internal global [8 x i32] [i32 0, i32 -1, i32 0, i32 0, i32 0, i32 0, i32 0, i32 0], align 4, !dbg !0
@__chess_separator_idummy = external dso_local global i32, align 4
@_ZN12me_primitive3ms0E = external dso_local addrspace(23) global i32, align 1 #0
@_ZN12me_primitive3ms1E = external dso_local addrspace(24) global i32, align 1 #1
@ZERO = external dso_local constant [8 x i32], align 32
@__const._ZN3aie6detail24max_min_bits_reduce_implILj32EiLj8ELNS0_15MaxMinOperationE1EE3runERKNS0_6vectorIiLj8EEE.op = private unnamed_addr constant %class.anon undef, align 1
@__const._ZN3aie6detail17add_sub_bits_implILj32EiLj8ELNS0_15AddSubOperationE0EE3runERKNS0_6vectorIiLj8EEES7_.op = private unnamed_addr constant %class.anon undef, align 1
@__const._ZNK3aie6detail5accumILNS0_10AccumClassE0ELj64ELj8EE9to_vectorIiEENS0_6vectorIT_Lj8EEEi.fn = private unnamed_addr constant %class.anon undef, align 1
@__const._ZN3aie6detail13mul_bits_implILNS0_10MulMacroOpE0ELj80ELj32EiLj32EiE3runILj8EJEEENS0_5accumILNS0_10AccumClassE0ELj80EXT_EEERKNS0_6vectorIiXT_EEEbSB_bDpRKT0_.mul_op = private unnamed_addr constant %class.anon undef, align 1
@__const._ZN3aie6detail5utils17unroll_for_helperIjLj0ELj1ELj0ELj1EE7executeIZNS0_13mul_bits_implILNS0_10MulMacroOpE0ELj80ELj32EiLj32EiE3runILj8EJEEENS0_5accumILNS0_10AccumClassE0ELj80EXT_EEERKNS0_6vectorIiXT_EEEbSF_bDpRKT0_EUlT_E_EEvOSK_.ctx = private unnamed_addr constant %"struct.aie::detail::utils::unroll_context" undef, align 1
@__const._ZN3aie6detail17add_sub_bits_implILj32EiLj8ELNS0_15AddSubOperationE1EE3runILj16EEENS0_6vectorIiLj8EEERKS6_NS0_21vector_elem_const_refIiXT_EEE.op = private unnamed_addr constant %class.anon undef, align 1
@__const._ZN3aie6detail5utils17unroll_for_helperIjLj0ELj1ELj0ELj1EE7executeIZNS0_5zerosILNS0_10AccumClassE0ELj64ELj8EEENS0_5accumIXT_EXT0_EXT1_EEEvEUlT_E_EEvOS9_.ctx = private unnamed_addr constant %"struct.aie::detail::utils::unroll_context" undef, align 1
@__const._ZN3aie6detail5accumILNS0_10AccumClassE0ELj64ELj8EE11from_vectorIiEEvRKNS0_6vectorIT_Lj8EEEi.fn = private unnamed_addr constant %class.anon undef, align 1
@_ZN12me_primitive3ss0E = external dso_local addrspace(19) global i32, align 1 #0
@_ZN12me_primitive5wsst0E = external dso_local addrspace(14) global i32, align 1 #0
@_ZN12me_primitive3ss1E = external dso_local addrspace(20) global i32, align 1 #1
@_ZN12me_primitive5wsst1E = external dso_local addrspace(14) global i32, align 1 #1

; Function Attrs: norecurse nounwind
define dso_local i32 @main() addrspace(1) #2 !dbg !1320 {
entry:
  %retval = alloca i32, align 4
  %stream_0 = alloca %struct.input_stream.0, align 4
  %stream_1 = alloca %struct.output_stream.2, align 4
  %index = alloca i32, align 4
  %proc_24_0_bounds = alloca i32, align 4
  %cleanup.dest.slot = alloca i32, align 4
  store i32 0, i32* %retval, align 4, !noalias !1329
  store volatile i32 0, i32* getelementptr inbounds ([8 x i32], [8 x i32]* @_ZL11sync_buffer, i32 0, i32 0), align 4, !dbg !1333, !tbaa !1334, !noalias !1329
  store %struct.input_stream.0 undef, %struct.input_stream.0* %stream_0, align 4, !dbg !1338, !noalias !1329
  %0 = bitcast %struct.input_stream.0* %stream_0 to i8*, !dbg !1338
  call addrspace(1) void @llvm.lifetime.start.p0i8(i64 4, i8* %0) #27, !dbg !1338, !noalias !1329
  call addrspace(1) void @llvm.dbg.declare(metadata %struct.input_stream.0* %stream_0, metadata !1322, metadata !DIExpression()), !dbg !1339
  %1 = call addrspace(1) i8* @llvm.noalias.decl.p0i8.p0s_struct.input_stream.0s.i32(%struct.input_stream.0* %stream_0, i32 0, metadata !1340), !dbg !1338, !noalias !1329
  call addrspace(1) void @_ZN12input_streamIiEC2Ej(%struct.input_stream.0* nonnull dereferenceable(4) %stream_0, i32 0) #28, !dbg !1341, !noalias !1329
  store %struct.output_stream.2 undef, %struct.output_stream.2* %stream_1, align 4, !dbg !1342, !noalias !1329
  %2 = bitcast %struct.output_stream.2* %stream_1 to i8*, !dbg !1342
  call addrspace(1) void @llvm.lifetime.start.p0i8(i64 4, i8* %2) #27, !dbg !1342, !noalias !1329
  call addrspace(1) void @llvm.dbg.declare(metadata %struct.output_stream.2* %stream_1, metadata !1323, metadata !DIExpression()), !dbg !1343
  %3 = call addrspace(1) i8* @llvm.noalias.decl.p0i8.p0s_struct.output_stream.2s.i32(%struct.output_stream.2* %stream_1, i32 0, metadata !1344), !dbg !1342, !noalias !1329
  call addrspace(1) void @_ZN13output_streamIiEC2Ej(%struct.output_stream.2* nonnull dereferenceable(4) %stream_1, i32 0) #28, !dbg !1345, !noalias !1329
  store i32 undef, i32* %index, align 4, !dbg !1346, !noalias !1329
  %4 = bitcast i32* %index to i8*, !dbg !1346
  call addrspace(1) void @llvm.lifetime.start.p0i8(i64 4, i8* %4) #27, !dbg !1346, !noalias !1329
  call addrspace(1) void @llvm.dbg.declare(metadata i32* %index, metadata !1324, metadata !DIExpression()), !dbg !1347
  store i32 1, i32* %index, align 4, !dbg !1347, !tbaa !1334, !noalias !1329
  br label %while.cond, !dbg !1348

while.cond:                                       ; preds = %cleanup.cont, %entry
  br label %while.body, !dbg !1348

while.body:                                       ; preds = %while.cond
  store i32 undef, i32* %proc_24_0_bounds, align 4, !dbg !1349, !noalias !1329
  %5 = bitcast i32* %proc_24_0_bounds to i8*, !dbg !1349
  call addrspace(1) void @llvm.lifetime.start.p0i8(i64 4, i8* %5) #27, !dbg !1349, !noalias !1329
  call addrspace(1) void @llvm.dbg.declare(metadata i32* %proc_24_0_bounds, metadata !1327, metadata !DIExpression()), !dbg !1350
  %6 = load volatile i32, i32* getelementptr inbounds ([8 x i32], [8 x i32]* @_ZL11sync_buffer, i32 0, i32 1), align 4, !dbg !1351, !tbaa !1334, !noalias !1329
  store i32 %6, i32* %proc_24_0_bounds, align 4, !dbg !1350, !tbaa !1334, !noalias !1329
  br label %while.cond1, !dbg !1352

while.cond1:                                      ; preds = %if.end, %while.body
  %7 = load i32, i32* %proc_24_0_bounds, align 4, !dbg !1353, !tbaa !1334, !noalias !1329
  %tobool = icmp ne i32 %7, 0, !dbg !1353
  br i1 %tobool, label %while.body2, label %while.end, !dbg !1352

while.body2:                                      ; preds = %while.cond1
  call addrspace(1) void @_Z15kmeans_functionP12input_streamIiEP13output_streamIiE(%struct.input_stream.0* %stream_0, %struct.output_stream.2* %stream_1) #28, !dbg !1354, !noalias !1329
  %8 = load i32, i32* %index, align 4, !dbg !1356, !tbaa !1334, !noalias !1329
  %sub = sub nsw i32 1, %8, !dbg !1357
  store i32 %sub, i32* %index, align 4, !dbg !1358, !tbaa !1334, !noalias !1329
  call addrspace(1) void @llvm.chess_memory_fence(), !dbg !1359, !noalias !1329
  %9 = load i32, i32* %proc_24_0_bounds, align 4, !dbg !1360, !tbaa !1334, !noalias !1329
  %cmp = icmp sgt i32 %9, 0, !dbg !1362
  br i1 %cmp, label %if.then, label %if.end, !dbg !1363

if.then:                                          ; preds = %while.body2
  %10 = load i32, i32* %proc_24_0_bounds, align 4, !dbg !1364, !tbaa !1334, !noalias !1329
  %dec = add nsw i32 %10, -1, !dbg !1364
  store i32 %dec, i32* %proc_24_0_bounds, align 4, !dbg !1364, !tbaa !1334, !noalias !1329
  br label %if.end, !dbg !1364

if.end:                                           ; preds = %if.then, %while.body2
  br label %while.cond1, !dbg !1352, !llvm.loop !1365

while.end:                                        ; preds = %while.cond1
  call addrspace(1) void @_Z4donev() #29, !dbg !1368, !noalias !1329
  %11 = load volatile i32, i32* getelementptr inbounds ([8 x i32], [8 x i32]* @_ZL11sync_buffer, i32 0, i32 0), align 4, !dbg !1369, !tbaa !1334, !noalias !1329
  %cmp3 = icmp sgt i32 %11, 0, !dbg !1371
  br i1 %cmp3, label %if.then4, label %if.end5, !dbg !1372

if.then4:                                         ; preds = %while.end
  store i32 3, i32* %cleanup.dest.slot, align 4
  br label %cleanup, !dbg !1373

if.end5:                                          ; preds = %while.end
  store i32 0, i32* %cleanup.dest.slot, align 4, !dbg !1374, !noalias !1329
  br label %cleanup, !dbg !1374

cleanup:                                          ; preds = %if.end5, %if.then4
  %12 = bitcast i32* %proc_24_0_bounds to i8*, !dbg !1374
  call addrspace(1) void @llvm.lifetime.end.p0i8(i64 4, i8* %12) #27, !dbg !1374, !noalias !1329
  %cleanup.dest = load i32, i32* %cleanup.dest.slot, align 4
  switch i32 %cleanup.dest, label %unreachable [
    i32 0, label %cleanup.cont
    i32 3, label %while.end6
  ]

cleanup.cont:                                     ; preds = %cleanup
  br label %while.cond, !dbg !1348, !llvm.loop !1375

while.end6:                                       ; preds = %cleanup
  store i32 0, i32* %retval, align 4, !dbg !1376, !noalias !1329
  store i32 1, i32* %cleanup.dest.slot, align 4
  %13 = bitcast i32* %index to i8*, !dbg !1377
  call addrspace(1) void @llvm.lifetime.end.p0i8(i64 4, i8* %13) #27, !dbg !1377
  %14 = bitcast %struct.output_stream.2* %stream_1 to i8*, !dbg !1377
  call addrspace(1) void @llvm.lifetime.end.p0i8(i64 4, i8* %14) #27, !dbg !1377
  %15 = bitcast %struct.input_stream.0* %stream_0 to i8*, !dbg !1377
  call addrspace(1) void @llvm.lifetime.end.p0i8(i64 4, i8* %15) #27, !dbg !1377
  %16 = load i32, i32* %retval, align 4, !dbg !1377
  ret i32 %16, !dbg !1377

unreachable:                                      ; preds = %cleanup
  unreachable
}

; Function Attrs: argmemonly nofree nosync nounwind willreturn
declare void @llvm.lifetime.start.p0i8(i64 immarg, i8* nocapture) addrspace(1) #3

; Function Attrs: nofree nosync nounwind readnone speculatable willreturn
declare void @llvm.dbg.declare(metadata, metadata, metadata) addrspace(1) #4

; Function Attrs: inaccessiblememonly nounwind willreturn
declare i8* @llvm.noalias.decl.p0i8.p0s_struct.input_stream.0s.i32(%struct.input_stream.0*, i32, metadata) addrspace(1) #5

; Function Attrs: nounwind
define linkonce_odr dso_local void @_ZN12input_streamIiEC2Ej(%struct.input_stream.0* nonnull dereferenceable(4) %this, i32 %ch) unnamed_addr addrspace(1) #6 comdat align 2 !dbg !1378 {
entry:
  %this.addr = alloca %struct.input_stream.0*, align 4
  %ch.addr = alloca i32, align 4
  store %struct.input_stream.0* %this, %struct.input_stream.0** %this.addr, align 4, !tbaa !1383
  call addrspace(1) void @llvm.dbg.declare(metadata %struct.input_stream.0** %this.addr, metadata !1380, metadata !DIExpression()), !dbg !1385
  store i32 %ch, i32* %ch.addr, align 4, !tbaa !1334
  call addrspace(1) void @llvm.dbg.declare(metadata i32* %ch.addr, metadata !1382, metadata !DIExpression()), !dbg !1386
  %this1 = load %struct.input_stream.0*, %struct.input_stream.0** %this.addr, align 4
  %0 = getelementptr inbounds %struct.input_stream.0, %struct.input_stream.0* %this1, i32 0, i32 0, !dbg !1386
  %channel = bitcast %union.anon.1* %0 to i32*, !dbg !1386
  %1 = load i32, i32* %ch.addr, align 4, !dbg !1386, !tbaa !1334
  store i32 %1, i32* %channel, align 4, !dbg !1386, !tbaa !1387
  ret void, !dbg !1386
}

; Function Attrs: inaccessiblememonly nounwind willreturn
declare i8* @llvm.noalias.decl.p0i8.p0s_struct.output_stream.2s.i32(%struct.output_stream.2*, i32, metadata) addrspace(1) #5

; Function Attrs: nounwind
define linkonce_odr dso_local void @_ZN13output_streamIiEC2Ej(%struct.output_stream.2* nonnull dereferenceable(4) %this, i32 %ch) unnamed_addr addrspace(1) #6 comdat align 2 !dbg !1388 {
entry:
  %this.addr = alloca %struct.output_stream.2*, align 4
  %ch.addr = alloca i32, align 4
  store %struct.output_stream.2* %this, %struct.output_stream.2** %this.addr, align 4, !tbaa !1383
  call addrspace(1) void @llvm.dbg.declare(metadata %struct.output_stream.2** %this.addr, metadata !1390, metadata !DIExpression()), !dbg !1393
  store i32 %ch, i32* %ch.addr, align 4, !tbaa !1334
  call addrspace(1) void @llvm.dbg.declare(metadata i32* %ch.addr, metadata !1392, metadata !DIExpression()), !dbg !1394
  %this1 = load %struct.output_stream.2*, %struct.output_stream.2** %this.addr, align 4
  %0 = getelementptr inbounds %struct.output_stream.2, %struct.output_stream.2* %this1, i32 0, i32 0, !dbg !1394
  %channel = bitcast %union.anon.3* %0 to i32*, !dbg !1394
  %1 = load i32, i32* %ch.addr, align 4, !dbg !1394, !tbaa !1334
  store i32 %1, i32* %channel, align 4, !dbg !1394, !tbaa !1387
  ret void, !dbg !1394
}

; Function Attrs: nounwind willreturn
declare void @llvm.chess_memory_fence() addrspace(1) #7

; Function Attrs: alwaysinline nounwind mustprogress
define linkonce_odr dso_local void @_Z4donev() addrspace(1) #8 comdat {
entry:
  %agg.tmp = alloca %struct.ipd.custom_type.uint2_t.uint2_t.4, align 4
  %custom_type.tmp = alloca %struct.ipd.custom_type.uint2_t.uint2_t.4, align 4
  call addrspace(1) void @llvm.chess_memory_fence()
  call addrspace(1) void @_ZL25chess_separator_scheduleri(i32 8) #28
  call addrspace(1) void @_ZN7uint2_tC2Ei(%struct.ipd.custom_type.uint2_t.uint2_t.4* nonnull dereferenceable(1) %custom_type.tmp, i32 2) #28
  %0 = load %struct.ipd.custom_type.uint2_t.uint2_t.4, %struct.ipd.custom_type.uint2_t.uint2_t.4* %custom_type.tmp, align 4, !tbaa !1395
  store %struct.ipd.custom_type.uint2_t.uint2_t.4 %0, %struct.ipd.custom_type.uint2_t.uint2_t.4* %agg.tmp, align 4, !tbaa !1395
  %1 = load %struct.ipd.custom_type.uint2_t.uint2_t.4, %struct.ipd.custom_type.uint2_t.uint2_t.4* %agg.tmp, align 4, !tbaa !1395
  call addrspace(1) void @_ZN12me_primitive5eventE7uint2_t(%struct.ipd.custom_type.uint2_t.uint2_t.4 %1) #30
  call addrspace(1) void @_ZL25chess_separator_scheduleri(i32 5) #28
  call addrspace(1) void @llvm.chess_memory_fence()
  ret void
}

; Function Attrs: argmemonly nofree nosync nounwind willreturn
declare void @llvm.lifetime.end.p0i8(i64 immarg, i8* nocapture) addrspace(1) #3

; Function Attrs: alwaysinline nounwind mustprogress
define internal void @_ZL25chess_separator_scheduleri(i32 %i) addrspace(1) #9 {
entry:
  %i.addr = alloca i32, align 4
  store i32 %i, i32* %i.addr, align 4, !tbaa !1334
  %0 = load i32, i32* %i.addr, align 4, !tbaa !1334
  store volatile i32 %0, i32* @__chess_separator_idummy, align 4, !tbaa !1397
  ret void
}

; Function Attrs: alwaysinline nounwind mustprogress
define linkonce_odr dso_local void @_ZN12me_primitive5eventE7uint2_t(%struct.ipd.custom_type.uint2_t.uint2_t.4 %a0.coerce) addrspace(1) #10 comdat {
entry:
  %a0 = alloca %struct.ipd.custom_type.uint2_t.uint2_t.4, align 4
  store %struct.ipd.custom_type.uint2_t.uint2_t.4 %a0.coerce, %struct.ipd.custom_type.uint2_t.uint2_t.4* %a0, align 4
  %0 = load %struct.ipd.custom_type.uint2_t.uint2_t.4, %struct.ipd.custom_type.uint2_t.uint2_t.4* %a0, align 4, !tbaa !1395
  call x86_regcallcc addrspace(1) void @__regcall3__chessintr_void_event_uint2_t(%struct.ipd.custom_type.uint2_t.uint2_t.4 %0) #31
  ret void
}

; Function Attrs: alwaysinline nounwind
define linkonce_odr dso_local void @_ZN7uint2_tC2Ei(%struct.ipd.custom_type.uint2_t.uint2_t.4* nonnull dereferenceable(1) %this, i32 %a) unnamed_addr addrspace(1) #11 comdat align 2 {
entry:
  %this.addr = alloca %struct.ipd.custom_type.uint2_t.uint2_t.4*, align 4
  %a.addr = alloca i32, align 4
  store %struct.ipd.custom_type.uint2_t.uint2_t.4* %this, %struct.ipd.custom_type.uint2_t.uint2_t.4** %this.addr, align 4, !tbaa !1383
  store i32 %a, i32* %a.addr, align 4, !tbaa !1334
  %this1 = load %struct.ipd.custom_type.uint2_t.uint2_t.4*, %struct.ipd.custom_type.uint2_t.uint2_t.4** %this.addr, align 4
  %0 = bitcast %struct.ipd.custom_type.uint2_t.uint2_t.4* %this1 to i8*
  %bf.load = load i8, i8* %0, align 4
  %bf.clear = and i8 %bf.load, -4
  store i8 %bf.clear, i8* %0, align 4
  %1 = load i32, i32* %a.addr, align 4, !tbaa !1334
  %2 = call addrspace(1) %struct.ipd.custom_type.uint2_t.uint2_t.4 @llvm.chess.init.customint.s_struct.ipd.custom_type.uint2_t.uint2_t.4s.i32.p1f_s_struct.ipd.custom_type.uint2_t.uint2_t.4si32f(%struct.ipd.custom_type.uint2_t.uint2_t.4 undef, i32 %1, i32 2, i32 32, i1 true, i32 0, %struct.ipd.custom_type.uint2_t.uint2_t.4 (i32) addrspace(1)* @__regcall3__chessintr_uint2_t_uint2_t___sint)
  store %struct.ipd.custom_type.uint2_t.uint2_t.4 %2, %struct.ipd.custom_type.uint2_t.uint2_t.4* %this1, align 4
  ret void
}

; Function Attrs: inaccessiblememonly nounwind
declare dso_local x86_regcallcc void @__regcall3__chessintr_void_event_uint2_t(%struct.ipd.custom_type.uint2_t.uint2_t.4) addrspace(1) #12

; Function Attrs: nounwind readnone willreturn
declare dso_local x86_regcallcc %struct.ipd.custom_type.uint2_t.uint2_t.4 @__regcall3__chessintr_uint2_t_uint2_t___sint(i32 signext) addrspace(1) #13

; Function Attrs: nounwind readnone willreturn
declare %struct.ipd.custom_type.uint2_t.uint2_t.4 @llvm.chess.init.customint.s_struct.ipd.custom_type.uint2_t.uint2_t.4s.i32.p1f_s_struct.ipd.custom_type.uint2_t.uint2_t.4si32f(%struct.ipd.custom_type.uint2_t.uint2_t.4, i32, i32, i32, i1, i32, %struct.ipd.custom_type.uint2_t.uint2_t.4 (i32) addrspace(1)*) addrspace(1) #14

; Function Attrs: nounwind mustprogress
define dso_local void @_Z15kmeans_functionP12input_streamIiEP13output_streamIiE(%struct.input_stream.0* chesscopy noalias %input, %struct.output_stream.2* chesscopy noalias %output) addrspace(1) #15 !dbg !1400 {
entry:
  %input.addr = alloca %struct.input_stream.0*, align 4
  %output.addr = alloca %struct.output_stream.2*, align 4
  %loops = alloca i32, align 4
  %num_clusters = alloca i32, align 4
  %num_points = alloca i32, align 4
  %val_in = alloca %"class.aie::detail::vector", align 16
  %tmp = alloca %"class.aie::detail::vector", align 16
  %ref.tmp = alloca %"class.aie::detail::vector_elem_ref", align 4
  %ref.tmp4 = alloca %"class.aie::detail::vector_elem_ref", align 4
  %ref.tmp7 = alloca %"class.aie::detail::vector_elem_ref", align 4
  %clusters = alloca [8 x %class.Cluster], align 4
  %points = alloca [200 x %class.Point], align 4
  %i = alloca i32, align 4
  %j = alloca i32, align 4
  %k = alloca i32, align 4
  %tmp17 = alloca %"class.aie::detail::vector", align 16
  %ref.tmp20 = alloca %class.Point, align 4
  %ref.tmp21 = alloca %"class.aie::detail::vector_elem_ref", align 4
  %ref.tmp24 = alloca %"class.aie::detail::vector_elem_ref", align 4
  %ref.tmp27 = alloca %class.Point, align 4
  %ref.tmp28 = alloca %"class.aie::detail::vector_elem_ref", align 4
  %ref.tmp31 = alloca %"class.aie::detail::vector_elem_ref", align 4
  %ref.tmp36 = alloca %class.Cluster, align 4
  %ref.tmp37 = alloca %"class.aie::detail::vector_elem_ref", align 4
  %ref.tmp40 = alloca %"class.aie::detail::vector_elem_ref", align 4
  %ref.tmp44 = alloca %class.Cluster, align 4
  %ref.tmp45 = alloca %"class.aie::detail::vector_elem_ref", align 4
  %ref.tmp48 = alloca %"class.aie::detail::vector_elem_ref", align 4
  %distances = alloca %"class.aie::detail::vector.1", align 32
  %cluster_index = alloca i32, align 4
  %tmp58 = alloca %"class.aie::detail::vector.1", align 32
  %agg.tmp = alloca %class.Point, align 4
  %agg.tmp61 = alloca %class.Point, align 4
  %agg.tmp67 = alloca %class.Point, align 4
  %result_4c = alloca %"class.aie::detail::vector.1", align 32
  %ref.tmp79 = alloca i32, align 4
  %ref.tmp82 = alloca %"class.aie::detail::vector_elem_ref.2", align 4
  %ref.tmp85 = alloca i32, align 4
  %ref.tmp88 = alloca %"class.aie::detail::vector_elem_ref.2", align 4
  %result_8c = alloca %"class.aie::detail::vector.3", align 32
  %ref.tmp103 = alloca i32, align 4
  %ref.tmp106 = alloca %"class.aie::detail::vector_elem_ref.4", align 4
  %ref.tmp110 = alloca i32, align 4
  %ref.tmp113 = alloca %"class.aie::detail::vector_elem_ref.4", align 4
  %result = alloca %"class.aie::detail::vector", align 16
  %ref.tmp126 = alloca i32, align 4
  %ref.tmp129 = alloca %"class.aie::detail::vector_elem_ref", align 4
  %ref.tmp133 = alloca i32, align 4
  %ref.tmp136 = alloca %"class.aie::detail::vector_elem_ref", align 4
  %0 = call addrspace(1) i8* @llvm.noalias.decl.p0i8.p0p0s_struct.input_stream.0s.i32(%struct.input_stream.0** %input.addr, i32 0, metadata !1478), !noalias !1481
  store %struct.input_stream.0* %input, %struct.input_stream.0** %input.addr, align 4, !tbaa !1383, !noalias !1481
  call addrspace(1) void @llvm.dbg.declare(metadata %struct.input_stream.0** %input.addr, metadata !1406, metadata !DIExpression()), !dbg !1483
  %1 = call addrspace(1) i8* @llvm.noalias.decl.p0i8.p0p0s_struct.output_stream.2s.i32(%struct.output_stream.2** %output.addr, i32 0, metadata !1484), !noalias !1481
  store %struct.output_stream.2* %output, %struct.output_stream.2** %output.addr, align 4, !tbaa !1383, !noalias !1481
  call addrspace(1) void @llvm.dbg.declare(metadata %struct.output_stream.2** %output.addr, metadata !1407, metadata !DIExpression()), !dbg !1485
  store i32 undef, i32* %loops, align 4, !dbg !1486, !noalias !1481
  %2 = bitcast i32* %loops to i8*, !dbg !1486
  call addrspace(1) void @llvm.lifetime.start.p0i8(i64 4, i8* %2) #27, !dbg !1486, !noalias !1481
  call addrspace(1) void @llvm.dbg.declare(metadata i32* %loops, metadata !1408, metadata !DIExpression()), !dbg !1487
  store i32 0, i32* %loops, align 4, !dbg !1487, !tbaa !1334, !noalias !1481
  store i32 undef, i32* %num_clusters, align 4, !dbg !1486, !noalias !1481
  %3 = bitcast i32* %num_clusters to i8*, !dbg !1486
  call addrspace(1) void @llvm.lifetime.start.p0i8(i64 4, i8* %3) #27, !dbg !1486, !noalias !1481
  call addrspace(1) void @llvm.dbg.declare(metadata i32* %num_clusters, metadata !1409, metadata !DIExpression()), !dbg !1488
  store i32 0, i32* %num_clusters, align 4, !dbg !1488, !tbaa !1334, !noalias !1481
  store i32 undef, i32* %num_points, align 4, !dbg !1486, !noalias !1481
  %4 = bitcast i32* %num_points to i8*, !dbg !1486
  call addrspace(1) void @llvm.lifetime.start.p0i8(i64 4, i8* %4) #27, !dbg !1486, !noalias !1481
  call addrspace(1) void @llvm.dbg.declare(metadata i32* %num_points, metadata !1410, metadata !DIExpression()), !dbg !1489
  store i32 0, i32* %num_points, align 4, !dbg !1489, !tbaa !1334, !noalias !1481
  store %"class.aie::detail::vector" undef, %"class.aie::detail::vector"* %val_in, align 16, !dbg !1490, !noalias !1481
  %5 = bitcast %"class.aie::detail::vector"* %val_in to i8*, !dbg !1490
  call addrspace(1) void @llvm.lifetime.start.p0i8(i64 16, i8* %5) #27, !dbg !1490, !noalias !1481
  call addrspace(1) void @llvm.dbg.declare(metadata %"class.aie::detail::vector"* %val_in, metadata !1411, metadata !DIExpression()), !dbg !1491
  %call = call addrspace(1) %"class.aie::detail::vector" @_ZN3aie5zerosIiLj4EEENS_6detail6vectorIT_XT0_EEEv() #28, !dbg !1492, !noalias !1481
  %6 = getelementptr inbounds %"class.aie::detail::vector", %"class.aie::detail::vector"* %val_in, i32 0, i32 0, !dbg !1492
  %7 = extractvalue %"class.aie::detail::vector" %call, 0, !dbg !1492
  store %struct.v4int32 %7, %struct.v4int32* %6, align 16, !dbg !1492, !noalias !1481
  %8 = bitcast %"class.aie::detail::vector"* %tmp to i8*, !dbg !1493
  call addrspace(1) void @llvm.lifetime.start.p0i8(i64 16, i8* %8) #27, !dbg !1493, !noalias !1481
  %9 = load %struct.input_stream.0*, %struct.input_stream.0** %input.addr, align 4, !dbg !1494, !tbaa !1383, !noalias !1481
  %10 = call addrspace(1) %struct.input_stream.0* @llvm.noalias.p0s_struct.input_stream.0s.p0i8.p0p0s_struct.input_stream.0s.i32(%struct.input_stream.0* %9, i8* %0, %struct.input_stream.0** %input.addr, i32 0, metadata !1478), !dbg !1494, !tbaa !1383, !noalias !1481
  %call1 = call addrspace(1) %"class.aie::detail::vector" @_Z10readincr_vILj4EL22aie_stream_resource_in0EiEN3aie6detail6vectorIT1_XT_EEEP12input_streamIS4_E(%struct.input_stream.0* %10) #28, !dbg !1493, !noalias !1481
  %11 = getelementptr inbounds %"class.aie::detail::vector", %"class.aie::detail::vector"* %tmp, i32 0, i32 0, !dbg !1493
  %12 = extractvalue %"class.aie::detail::vector" %call1, 0, !dbg !1493
  store %struct.v4int32 %12, %struct.v4int32* %11, align 16, !dbg !1493, !noalias !1481
  %13 = load %"class.aie::detail::vector", %"class.aie::detail::vector"* %tmp, align 16, !dbg !1493, !tbaa !1495, !noalias !1481
  store %"class.aie::detail::vector" %13, %"class.aie::detail::vector"* %val_in, align 16, !dbg !1493, !tbaa !1495, !noalias !1481
  %14 = bitcast %"class.aie::detail::vector"* %tmp to i8*, !dbg !1493
  call addrspace(1) void @llvm.lifetime.end.p0i8(i64 16, i8* %14) #27, !dbg !1493, !noalias !1481
  %15 = bitcast %"class.aie::detail::vector_elem_ref"* %ref.tmp to i8*, !dbg !1498
  call addrspace(1) void @llvm.lifetime.start.p0i8(i64 8, i8* %15) #27, !dbg !1498, !noalias !1481
  %call2 = call addrspace(1) %"class.aie::detail::vector_elem_ref" @_ZN3aie6detail6vectorIiLj4EEixEj(%"class.aie::detail::vector"* nonnull dereferenceable(16) %val_in, i32 0) #28, !dbg !1498, !noalias !1481
  %16 = getelementptr inbounds %"class.aie::detail::vector_elem_ref", %"class.aie::detail::vector_elem_ref"* %ref.tmp, i32 0, i32 0, !dbg !1498
  %17 = extractvalue %"class.aie::detail::vector_elem_ref" %call2, 0, !dbg !1498
  store %"class.aie::detail::vector"* %17, %"class.aie::detail::vector"** %16, align 4, !dbg !1498, !noalias !1481
  %18 = getelementptr inbounds %"class.aie::detail::vector_elem_ref", %"class.aie::detail::vector_elem_ref"* %ref.tmp, i32 0, i32 1, !dbg !1498
  %19 = extractvalue %"class.aie::detail::vector_elem_ref" %call2, 1, !dbg !1498
  store i32 %19, i32* %18, align 4, !dbg !1498, !noalias !1481
  %call3 = call addrspace(1) i32 @_ZNK3aie6detail15vector_elem_refIiLj4EEcviEv(%"class.aie::detail::vector_elem_ref"* nonnull dereferenceable(8) %ref.tmp) #28, !dbg !1498, !noalias !1481
  store i32 %call3, i32* %loops, align 4, !dbg !1499, !tbaa !1334, !noalias !1481
  %20 = bitcast %"class.aie::detail::vector_elem_ref"* %ref.tmp to i8*, !dbg !1500
  call addrspace(1) void @llvm.lifetime.end.p0i8(i64 8, i8* %20) #27, !dbg !1500, !noalias !1481
  %21 = bitcast %"class.aie::detail::vector_elem_ref"* %ref.tmp4 to i8*, !dbg !1501
  call addrspace(1) void @llvm.lifetime.start.p0i8(i64 8, i8* %21) #27, !dbg !1501, !noalias !1481
  %call5 = call addrspace(1) %"class.aie::detail::vector_elem_ref" @_ZN3aie6detail6vectorIiLj4EEixEj(%"class.aie::detail::vector"* nonnull dereferenceable(16) %val_in, i32 1) #28, !dbg !1501, !noalias !1481
  %22 = getelementptr inbounds %"class.aie::detail::vector_elem_ref", %"class.aie::detail::vector_elem_ref"* %ref.tmp4, i32 0, i32 0, !dbg !1501
  %23 = extractvalue %"class.aie::detail::vector_elem_ref" %call5, 0, !dbg !1501
  store %"class.aie::detail::vector"* %23, %"class.aie::detail::vector"** %22, align 4, !dbg !1501, !noalias !1481
  %24 = getelementptr inbounds %"class.aie::detail::vector_elem_ref", %"class.aie::detail::vector_elem_ref"* %ref.tmp4, i32 0, i32 1, !dbg !1501
  %25 = extractvalue %"class.aie::detail::vector_elem_ref" %call5, 1, !dbg !1501
  store i32 %25, i32* %24, align 4, !dbg !1501, !noalias !1481
  %call6 = call addrspace(1) i32 @_ZNK3aie6detail15vector_elem_refIiLj4EEcviEv(%"class.aie::detail::vector_elem_ref"* nonnull dereferenceable(8) %ref.tmp4) #28, !dbg !1501, !noalias !1481
  store i32 %call6, i32* %num_clusters, align 4, !dbg !1502, !tbaa !1334, !noalias !1481
  %26 = bitcast %"class.aie::detail::vector_elem_ref"* %ref.tmp4 to i8*, !dbg !1503
  call addrspace(1) void @llvm.lifetime.end.p0i8(i64 8, i8* %26) #27, !dbg !1503, !noalias !1481
  %27 = bitcast %"class.aie::detail::vector_elem_ref"* %ref.tmp7 to i8*, !dbg !1504
  call addrspace(1) void @llvm.lifetime.start.p0i8(i64 8, i8* %27) #27, !dbg !1504, !noalias !1481
  %call8 = call addrspace(1) %"class.aie::detail::vector_elem_ref" @_ZN3aie6detail6vectorIiLj4EEixEj(%"class.aie::detail::vector"* nonnull dereferenceable(16) %val_in, i32 2) #28, !dbg !1504, !noalias !1481
  %28 = getelementptr inbounds %"class.aie::detail::vector_elem_ref", %"class.aie::detail::vector_elem_ref"* %ref.tmp7, i32 0, i32 0, !dbg !1504
  %29 = extractvalue %"class.aie::detail::vector_elem_ref" %call8, 0, !dbg !1504
  store %"class.aie::detail::vector"* %29, %"class.aie::detail::vector"** %28, align 4, !dbg !1504, !noalias !1481
  %30 = getelementptr inbounds %"class.aie::detail::vector_elem_ref", %"class.aie::detail::vector_elem_ref"* %ref.tmp7, i32 0, i32 1, !dbg !1504
  %31 = extractvalue %"class.aie::detail::vector_elem_ref" %call8, 1, !dbg !1504
  store i32 %31, i32* %30, align 4, !dbg !1504, !noalias !1481
  %call9 = call addrspace(1) i32 @_ZNK3aie6detail15vector_elem_refIiLj4EEcviEv(%"class.aie::detail::vector_elem_ref"* nonnull dereferenceable(8) %ref.tmp7) #28, !dbg !1504, !noalias !1481
  store i32 %call9, i32* %num_points, align 4, !dbg !1505, !tbaa !1334, !noalias !1481
  %32 = bitcast %"class.aie::detail::vector_elem_ref"* %ref.tmp7 to i8*, !dbg !1506
  call addrspace(1) void @llvm.lifetime.end.p0i8(i64 8, i8* %32) #27, !dbg !1506, !noalias !1481
  store [8 x %class.Cluster] undef, [8 x %class.Cluster]* %clusters, align 4, !dbg !1507, !noalias !1481
  %33 = bitcast [8 x %class.Cluster]* %clusters to i8*, !dbg !1507
  call addrspace(1) void @llvm.lifetime.start.p0i8(i64 160, i8* %33) #27, !dbg !1507, !noalias !1481
  call addrspace(1) void @llvm.dbg.declare(metadata [8 x %class.Cluster]* %clusters, metadata !1413, metadata !DIExpression()), !dbg !1508
  %array.begin = getelementptr inbounds [8 x %class.Cluster], [8 x %class.Cluster]* %clusters, i32 0, i32 0, !dbg !1508
  %arrayctor.end = getelementptr inbounds %class.Cluster, %class.Cluster* %array.begin, i32 8, !dbg !1508
  br label %arrayctor.loop, !dbg !1508

arrayctor.loop:                                   ; preds = %arrayctor.loop, %entry
  %arrayctor.cur = phi %class.Cluster* [ %array.begin, %entry ], [ %arrayctor.next, %arrayctor.loop ], !dbg !1508
  call addrspace(1) void @_ZN7ClusterC2Ev(%class.Cluster* nonnull dereferenceable(20) %arrayctor.cur) #28, !dbg !1508, !noalias !1481
  %arrayctor.next = getelementptr inbounds %class.Cluster, %class.Cluster* %arrayctor.cur, i32 1, !dbg !1508
  %arrayctor.done = icmp eq %class.Cluster* %arrayctor.next, %arrayctor.end, !dbg !1508
  br i1 %arrayctor.done, label %arrayctor.cont, label %arrayctor.loop, !dbg !1508

arrayctor.cont:                                   ; preds = %arrayctor.loop
  store [200 x %class.Point] undef, [200 x %class.Point]* %points, align 4, !dbg !1509, !noalias !1481
  %34 = bitcast [200 x %class.Point]* %points to i8*, !dbg !1509
  call addrspace(1) void @llvm.lifetime.start.p0i8(i64 2400, i8* %34) #27, !dbg !1509, !noalias !1481
  call addrspace(1) void @llvm.dbg.declare(metadata [200 x %class.Point]* %points, metadata !1459, metadata !DIExpression()), !dbg !1510
  %array.begin10 = getelementptr inbounds [200 x %class.Point], [200 x %class.Point]* %points, i32 0, i32 0, !dbg !1510
  %arrayctor.end11 = getelementptr inbounds %class.Point, %class.Point* %array.begin10, i32 200, !dbg !1510
  br label %arrayctor.loop12, !dbg !1510

arrayctor.loop12:                                 ; preds = %arrayctor.loop12, %arrayctor.cont
  %arrayctor.cur13 = phi %class.Point* [ %array.begin10, %arrayctor.cont ], [ %arrayctor.next14, %arrayctor.loop12 ], !dbg !1510
  call addrspace(1) void @_ZN5PointC2Ev(%class.Point* nonnull dereferenceable(12) %arrayctor.cur13) #28, !dbg !1510, !noalias !1481
  %arrayctor.next14 = getelementptr inbounds %class.Point, %class.Point* %arrayctor.cur13, i32 1, !dbg !1510
  %arrayctor.done15 = icmp eq %class.Point* %arrayctor.next14, %arrayctor.end11, !dbg !1510
  br i1 %arrayctor.done15, label %arrayctor.cont16, label %arrayctor.loop12, !dbg !1510

arrayctor.cont16:                                 ; preds = %arrayctor.loop12
  store i32 undef, i32* %i, align 4, !dbg !1511, !noalias !1481
  %35 = bitcast i32* %i to i8*, !dbg !1511
  call addrspace(1) void @llvm.lifetime.start.p0i8(i64 4, i8* %35) #27, !dbg !1511, !noalias !1481
  call addrspace(1) void @llvm.dbg.declare(metadata i32* %i, metadata !1463, metadata !DIExpression()), !dbg !1512
  store i32 0, i32* %i, align 4, !dbg !1512, !tbaa !1334, !noalias !1481
  store i32 undef, i32* %j, align 4, !dbg !1511, !noalias !1481
  %36 = bitcast i32* %j to i8*, !dbg !1511
  call addrspace(1) void @llvm.lifetime.start.p0i8(i64 4, i8* %36) #27, !dbg !1511, !noalias !1481
  call addrspace(1) void @llvm.dbg.declare(metadata i32* %j, metadata !1464, metadata !DIExpression()), !dbg !1513
  store i32 0, i32* %j, align 4, !dbg !1513, !tbaa !1334, !noalias !1481
  store i32 undef, i32* %k, align 4, !dbg !1511, !noalias !1481
  %37 = bitcast i32* %k to i8*, !dbg !1511
  call addrspace(1) void @llvm.lifetime.start.p0i8(i64 4, i8* %37) #27, !dbg !1511, !noalias !1481
  call addrspace(1) void @llvm.dbg.declare(metadata i32* %k, metadata !1465, metadata !DIExpression()), !dbg !1514
  store i32 0, i32* %k, align 4, !dbg !1514, !tbaa !1334, !noalias !1481
  store i32 0, i32* %i, align 4, !dbg !1515, !tbaa !1334, !noalias !1481
  br label %for.cond, !dbg !1517

for.cond:                                         ; preds = %for.inc, %arrayctor.cont16
  %38 = load i32, i32* %i, align 4, !dbg !1518, !tbaa !1334, !noalias !1481
  %39 = load i32, i32* %loops, align 4, !dbg !1520, !tbaa !1334, !noalias !1481
  %cmp = icmp slt i32 %38, %39, !dbg !1521
  br i1 %cmp, label %for.body, label %for.end, !dbg !1522

for.body:                                         ; preds = %for.cond
  %40 = bitcast %"class.aie::detail::vector"* %tmp17 to i8*, !dbg !1523
  call addrspace(1) void @llvm.lifetime.start.p0i8(i64 16, i8* %40) #27, !dbg !1523, !noalias !1481
  %41 = load %struct.input_stream.0*, %struct.input_stream.0** %input.addr, align 4, !dbg !1525, !tbaa !1383, !noalias !1481
  %42 = call addrspace(1) %struct.input_stream.0* @llvm.noalias.p0s_struct.input_stream.0s.p0i8.p0p0s_struct.input_stream.0s.i32(%struct.input_stream.0* %41, i8* %0, %struct.input_stream.0** %input.addr, i32 0, metadata !1478), !dbg !1525, !tbaa !1383, !noalias !1481
  %call18 = call addrspace(1) %"class.aie::detail::vector" @_Z10readincr_vILj4EL22aie_stream_resource_in0EiEN3aie6detail6vectorIT1_XT_EEEP12input_streamIS4_E(%struct.input_stream.0* %42) #28, !dbg !1523, !noalias !1481
  %43 = getelementptr inbounds %"class.aie::detail::vector", %"class.aie::detail::vector"* %tmp17, i32 0, i32 0, !dbg !1523
  %44 = extractvalue %"class.aie::detail::vector" %call18, 0, !dbg !1523
  store %struct.v4int32 %44, %struct.v4int32* %43, align 16, !dbg !1523, !noalias !1481
  %45 = load %"class.aie::detail::vector", %"class.aie::detail::vector"* %tmp17, align 16, !dbg !1523, !tbaa !1495, !noalias !1481
  store %"class.aie::detail::vector" %45, %"class.aie::detail::vector"* %val_in, align 16, !dbg !1523, !tbaa !1495, !noalias !1481
  %46 = bitcast %"class.aie::detail::vector"* %tmp17 to i8*, !dbg !1523
  call addrspace(1) void @llvm.lifetime.end.p0i8(i64 16, i8* %46) #27, !dbg !1523, !noalias !1481
  %47 = load i32, i32* %i, align 4, !dbg !1526, !tbaa !1334, !noalias !1481
  %48 = load i32, i32* %num_points, align 4, !dbg !1528, !tbaa !1334, !noalias !1481
  %div = sdiv i32 %48, 2, !dbg !1529
  %cmp19 = icmp slt i32 %47, %div, !dbg !1530
  br i1 %cmp19, label %if.then, label %if.else, !dbg !1531

if.then:                                          ; preds = %for.body
  %49 = bitcast %class.Point* %ref.tmp20 to i8*, !dbg !1532
  call addrspace(1) void @llvm.lifetime.start.p0i8(i64 12, i8* %49) #27, !dbg !1532, !noalias !1481
  %50 = bitcast %"class.aie::detail::vector_elem_ref"* %ref.tmp21 to i8*, !dbg !1534
  call addrspace(1) void @llvm.lifetime.start.p0i8(i64 8, i8* %50) #27, !dbg !1534, !noalias !1481
  %call22 = call addrspace(1) %"class.aie::detail::vector_elem_ref" @_ZN3aie6detail6vectorIiLj4EEixEj(%"class.aie::detail::vector"* nonnull dereferenceable(16) %val_in, i32 0) #28, !dbg !1534, !noalias !1481
  %51 = getelementptr inbounds %"class.aie::detail::vector_elem_ref", %"class.aie::detail::vector_elem_ref"* %ref.tmp21, i32 0, i32 0, !dbg !1534
  %52 = extractvalue %"class.aie::detail::vector_elem_ref" %call22, 0, !dbg !1534
  store %"class.aie::detail::vector"* %52, %"class.aie::detail::vector"** %51, align 4, !dbg !1534, !noalias !1481
  %53 = getelementptr inbounds %"class.aie::detail::vector_elem_ref", %"class.aie::detail::vector_elem_ref"* %ref.tmp21, i32 0, i32 1, !dbg !1534
  %54 = extractvalue %"class.aie::detail::vector_elem_ref" %call22, 1, !dbg !1534
  store i32 %54, i32* %53, align 4, !dbg !1534, !noalias !1481
  %call23 = call addrspace(1) i32 @_ZNK3aie6detail15vector_elem_refIiLj4EEcviEv(%"class.aie::detail::vector_elem_ref"* nonnull dereferenceable(8) %ref.tmp21) #28, !dbg !1534, !noalias !1481
  %55 = bitcast %"class.aie::detail::vector_elem_ref"* %ref.tmp24 to i8*, !dbg !1535
  call addrspace(1) void @llvm.lifetime.start.p0i8(i64 8, i8* %55) #27, !dbg !1535, !noalias !1481
  %call25 = call addrspace(1) %"class.aie::detail::vector_elem_ref" @_ZN3aie6detail6vectorIiLj4EEixEj(%"class.aie::detail::vector"* nonnull dereferenceable(16) %val_in, i32 1) #28, !dbg !1535, !noalias !1481
  %56 = getelementptr inbounds %"class.aie::detail::vector_elem_ref", %"class.aie::detail::vector_elem_ref"* %ref.tmp24, i32 0, i32 0, !dbg !1535
  %57 = extractvalue %"class.aie::detail::vector_elem_ref" %call25, 0, !dbg !1535
  store %"class.aie::detail::vector"* %57, %"class.aie::detail::vector"** %56, align 4, !dbg !1535, !noalias !1481
  %58 = getelementptr inbounds %"class.aie::detail::vector_elem_ref", %"class.aie::detail::vector_elem_ref"* %ref.tmp24, i32 0, i32 1, !dbg !1535
  %59 = extractvalue %"class.aie::detail::vector_elem_ref" %call25, 1, !dbg !1535
  store i32 %59, i32* %58, align 4, !dbg !1535, !noalias !1481
  %call26 = call addrspace(1) i32 @_ZNK3aie6detail15vector_elem_refIiLj4EEcviEv(%"class.aie::detail::vector_elem_ref"* nonnull dereferenceable(8) %ref.tmp24) #28, !dbg !1535, !noalias !1481
  call addrspace(1) void @_ZN5PointC2Eii(%class.Point* nonnull dereferenceable(12) %ref.tmp20, i32 %call23, i32 %call26) #28, !dbg !1532, !noalias !1481
  %60 = load i32, i32* %j, align 4, !dbg !1536, !tbaa !1334, !noalias !1481
  %arrayidx = getelementptr inbounds [200 x %class.Point], [200 x %class.Point]* %points, i32 0, i32 %60, !dbg !1537
  %61 = load %class.Point, %class.Point* %ref.tmp20, align 4, !dbg !1538, !tbaa !1539, !noalias !1481
  store %class.Point %61, %class.Point* %arrayidx, align 4, !dbg !1538, !tbaa !1539, !noalias !1481
  %62 = bitcast %"class.aie::detail::vector_elem_ref"* %ref.tmp24 to i8*, !dbg !1537
  call addrspace(1) void @llvm.lifetime.end.p0i8(i64 8, i8* %62) #27, !dbg !1537, !noalias !1481
  %63 = bitcast %"class.aie::detail::vector_elem_ref"* %ref.tmp21 to i8*, !dbg !1537
  call addrspace(1) void @llvm.lifetime.end.p0i8(i64 8, i8* %63) #27, !dbg !1537, !noalias !1481
  %64 = bitcast %class.Point* %ref.tmp20 to i8*, !dbg !1537
  call addrspace(1) void @llvm.lifetime.end.p0i8(i64 12, i8* %64) #27, !dbg !1537, !noalias !1481
  %65 = bitcast %class.Point* %ref.tmp27 to i8*, !dbg !1541
  call addrspace(1) void @llvm.lifetime.start.p0i8(i64 12, i8* %65) #27, !dbg !1541, !noalias !1481
  %66 = bitcast %"class.aie::detail::vector_elem_ref"* %ref.tmp28 to i8*, !dbg !1542
  call addrspace(1) void @llvm.lifetime.start.p0i8(i64 8, i8* %66) #27, !dbg !1542, !noalias !1481
  %call29 = call addrspace(1) %"class.aie::detail::vector_elem_ref" @_ZN3aie6detail6vectorIiLj4EEixEj(%"class.aie::detail::vector"* nonnull dereferenceable(16) %val_in, i32 2) #28, !dbg !1542, !noalias !1481
  %67 = getelementptr inbounds %"class.aie::detail::vector_elem_ref", %"class.aie::detail::vector_elem_ref"* %ref.tmp28, i32 0, i32 0, !dbg !1542
  %68 = extractvalue %"class.aie::detail::vector_elem_ref" %call29, 0, !dbg !1542
  store %"class.aie::detail::vector"* %68, %"class.aie::detail::vector"** %67, align 4, !dbg !1542, !noalias !1481
  %69 = getelementptr inbounds %"class.aie::detail::vector_elem_ref", %"class.aie::detail::vector_elem_ref"* %ref.tmp28, i32 0, i32 1, !dbg !1542
  %70 = extractvalue %"class.aie::detail::vector_elem_ref" %call29, 1, !dbg !1542
  store i32 %70, i32* %69, align 4, !dbg !1542, !noalias !1481
  %call30 = call addrspace(1) i32 @_ZNK3aie6detail15vector_elem_refIiLj4EEcviEv(%"class.aie::detail::vector_elem_ref"* nonnull dereferenceable(8) %ref.tmp28) #28, !dbg !1542, !noalias !1481
  %71 = bitcast %"class.aie::detail::vector_elem_ref"* %ref.tmp31 to i8*, !dbg !1543
  call addrspace(1) void @llvm.lifetime.start.p0i8(i64 8, i8* %71) #27, !dbg !1543, !noalias !1481
  %call32 = call addrspace(1) %"class.aie::detail::vector_elem_ref" @_ZN3aie6detail6vectorIiLj4EEixEj(%"class.aie::detail::vector"* nonnull dereferenceable(16) %val_in, i32 3) #28, !dbg !1543, !noalias !1481
  %72 = getelementptr inbounds %"class.aie::detail::vector_elem_ref", %"class.aie::detail::vector_elem_ref"* %ref.tmp31, i32 0, i32 0, !dbg !1543
  %73 = extractvalue %"class.aie::detail::vector_elem_ref" %call32, 0, !dbg !1543
  store %"class.aie::detail::vector"* %73, %"class.aie::detail::vector"** %72, align 4, !dbg !1543, !noalias !1481
  %74 = getelementptr inbounds %"class.aie::detail::vector_elem_ref", %"class.aie::detail::vector_elem_ref"* %ref.tmp31, i32 0, i32 1, !dbg !1543
  %75 = extractvalue %"class.aie::detail::vector_elem_ref" %call32, 1, !dbg !1543
  store i32 %75, i32* %74, align 4, !dbg !1543, !noalias !1481
  %call33 = call addrspace(1) i32 @_ZNK3aie6detail15vector_elem_refIiLj4EEcviEv(%"class.aie::detail::vector_elem_ref"* nonnull dereferenceable(8) %ref.tmp31) #28, !dbg !1543, !noalias !1481
  call addrspace(1) void @_ZN5PointC2Eii(%class.Point* nonnull dereferenceable(12) %ref.tmp27, i32 %call30, i32 %call33) #28, !dbg !1541, !noalias !1481
  %76 = load i32, i32* %j, align 4, !dbg !1544, !tbaa !1334, !noalias !1481
  %add = add nsw i32 %76, 1, !dbg !1545
  %arrayidx34 = getelementptr inbounds [200 x %class.Point], [200 x %class.Point]* %points, i32 0, i32 %add, !dbg !1546
  %77 = load %class.Point, %class.Point* %ref.tmp27, align 4, !dbg !1547, !tbaa !1539, !noalias !1481
  store %class.Point %77, %class.Point* %arrayidx34, align 4, !dbg !1547, !tbaa !1539, !noalias !1481
  %78 = bitcast %"class.aie::detail::vector_elem_ref"* %ref.tmp31 to i8*, !dbg !1546
  call addrspace(1) void @llvm.lifetime.end.p0i8(i64 8, i8* %78) #27, !dbg !1546, !noalias !1481
  %79 = bitcast %"class.aie::detail::vector_elem_ref"* %ref.tmp28 to i8*, !dbg !1546
  call addrspace(1) void @llvm.lifetime.end.p0i8(i64 8, i8* %79) #27, !dbg !1546, !noalias !1481
  %80 = bitcast %class.Point* %ref.tmp27 to i8*, !dbg !1546
  call addrspace(1) void @llvm.lifetime.end.p0i8(i64 12, i8* %80) #27, !dbg !1546, !noalias !1481
  %81 = load i32, i32* %j, align 4, !dbg !1548, !tbaa !1334, !noalias !1481
  %add35 = add nsw i32 %81, 2, !dbg !1548
  store i32 %add35, i32* %j, align 4, !dbg !1548, !tbaa !1334, !noalias !1481
  br label %if.end, !dbg !1549

if.else:                                          ; preds = %for.body
  %82 = bitcast %class.Cluster* %ref.tmp36 to i8*, !dbg !1550
  call addrspace(1) void @llvm.lifetime.start.p0i8(i64 20, i8* %82) #27, !dbg !1550, !noalias !1481
  %83 = bitcast %"class.aie::detail::vector_elem_ref"* %ref.tmp37 to i8*, !dbg !1552
  call addrspace(1) void @llvm.lifetime.start.p0i8(i64 8, i8* %83) #27, !dbg !1552, !noalias !1481
  %call38 = call addrspace(1) %"class.aie::detail::vector_elem_ref" @_ZN3aie6detail6vectorIiLj4EEixEj(%"class.aie::detail::vector"* nonnull dereferenceable(16) %val_in, i32 0) #28, !dbg !1552, !noalias !1481
  %84 = getelementptr inbounds %"class.aie::detail::vector_elem_ref", %"class.aie::detail::vector_elem_ref"* %ref.tmp37, i32 0, i32 0, !dbg !1552
  %85 = extractvalue %"class.aie::detail::vector_elem_ref" %call38, 0, !dbg !1552
  store %"class.aie::detail::vector"* %85, %"class.aie::detail::vector"** %84, align 4, !dbg !1552, !noalias !1481
  %86 = getelementptr inbounds %"class.aie::detail::vector_elem_ref", %"class.aie::detail::vector_elem_ref"* %ref.tmp37, i32 0, i32 1, !dbg !1552
  %87 = extractvalue %"class.aie::detail::vector_elem_ref" %call38, 1, !dbg !1552
  store i32 %87, i32* %86, align 4, !dbg !1552, !noalias !1481
  %call39 = call addrspace(1) i32 @_ZNK3aie6detail15vector_elem_refIiLj4EEcviEv(%"class.aie::detail::vector_elem_ref"* nonnull dereferenceable(8) %ref.tmp37) #28, !dbg !1552, !noalias !1481
  %88 = bitcast %"class.aie::detail::vector_elem_ref"* %ref.tmp40 to i8*, !dbg !1553
  call addrspace(1) void @llvm.lifetime.start.p0i8(i64 8, i8* %88) #27, !dbg !1553, !noalias !1481
  %call41 = call addrspace(1) %"class.aie::detail::vector_elem_ref" @_ZN3aie6detail6vectorIiLj4EEixEj(%"class.aie::detail::vector"* nonnull dereferenceable(16) %val_in, i32 1) #28, !dbg !1553, !noalias !1481
  %89 = getelementptr inbounds %"class.aie::detail::vector_elem_ref", %"class.aie::detail::vector_elem_ref"* %ref.tmp40, i32 0, i32 0, !dbg !1553
  %90 = extractvalue %"class.aie::detail::vector_elem_ref" %call41, 0, !dbg !1553
  store %"class.aie::detail::vector"* %90, %"class.aie::detail::vector"** %89, align 4, !dbg !1553, !noalias !1481
  %91 = getelementptr inbounds %"class.aie::detail::vector_elem_ref", %"class.aie::detail::vector_elem_ref"* %ref.tmp40, i32 0, i32 1, !dbg !1553
  %92 = extractvalue %"class.aie::detail::vector_elem_ref" %call41, 1, !dbg !1553
  store i32 %92, i32* %91, align 4, !dbg !1553, !noalias !1481
  %call42 = call addrspace(1) i32 @_ZNK3aie6detail15vector_elem_refIiLj4EEcviEv(%"class.aie::detail::vector_elem_ref"* nonnull dereferenceable(8) %ref.tmp40) #28, !dbg !1553, !noalias !1481
  call addrspace(1) void @_ZN7ClusterC2Eii(%class.Cluster* nonnull dereferenceable(20) %ref.tmp36, i32 %call39, i32 %call42) #28, !dbg !1550, !noalias !1481
  %93 = load i32, i32* %k, align 4, !dbg !1554, !tbaa !1334, !noalias !1481
  %arrayidx43 = getelementptr inbounds [8 x %class.Cluster], [8 x %class.Cluster]* %clusters, i32 0, i32 %93, !dbg !1555
  %94 = load %class.Cluster, %class.Cluster* %ref.tmp36, align 4, !dbg !1556, !tbaa !1557, !noalias !1481
  store %class.Cluster %94, %class.Cluster* %arrayidx43, align 4, !dbg !1556, !tbaa !1557, !noalias !1481
  %95 = bitcast %"class.aie::detail::vector_elem_ref"* %ref.tmp40 to i8*, !dbg !1555
  call addrspace(1) void @llvm.lifetime.end.p0i8(i64 8, i8* %95) #27, !dbg !1555, !noalias !1481
  %96 = bitcast %"class.aie::detail::vector_elem_ref"* %ref.tmp37 to i8*, !dbg !1555
  call addrspace(1) void @llvm.lifetime.end.p0i8(i64 8, i8* %96) #27, !dbg !1555, !noalias !1481
  %97 = bitcast %class.Cluster* %ref.tmp36 to i8*, !dbg !1555
  call addrspace(1) void @llvm.lifetime.end.p0i8(i64 20, i8* %97) #27, !dbg !1555, !noalias !1481
  %98 = bitcast %class.Cluster* %ref.tmp44 to i8*, !dbg !1559
  call addrspace(1) void @llvm.lifetime.start.p0i8(i64 20, i8* %98) #27, !dbg !1559, !noalias !1481
  %99 = bitcast %"class.aie::detail::vector_elem_ref"* %ref.tmp45 to i8*, !dbg !1560
  call addrspace(1) void @llvm.lifetime.start.p0i8(i64 8, i8* %99) #27, !dbg !1560, !noalias !1481
  %call46 = call addrspace(1) %"class.aie::detail::vector_elem_ref" @_ZN3aie6detail6vectorIiLj4EEixEj(%"class.aie::detail::vector"* nonnull dereferenceable(16) %val_in, i32 2) #28, !dbg !1560, !noalias !1481
  %100 = getelementptr inbounds %"class.aie::detail::vector_elem_ref", %"class.aie::detail::vector_elem_ref"* %ref.tmp45, i32 0, i32 0, !dbg !1560
  %101 = extractvalue %"class.aie::detail::vector_elem_ref" %call46, 0, !dbg !1560
  store %"class.aie::detail::vector"* %101, %"class.aie::detail::vector"** %100, align 4, !dbg !1560, !noalias !1481
  %102 = getelementptr inbounds %"class.aie::detail::vector_elem_ref", %"class.aie::detail::vector_elem_ref"* %ref.tmp45, i32 0, i32 1, !dbg !1560
  %103 = extractvalue %"class.aie::detail::vector_elem_ref" %call46, 1, !dbg !1560
  store i32 %103, i32* %102, align 4, !dbg !1560, !noalias !1481
  %call47 = call addrspace(1) i32 @_ZNK3aie6detail15vector_elem_refIiLj4EEcviEv(%"class.aie::detail::vector_elem_ref"* nonnull dereferenceable(8) %ref.tmp45) #28, !dbg !1560, !noalias !1481
  %104 = bitcast %"class.aie::detail::vector_elem_ref"* %ref.tmp48 to i8*, !dbg !1561
  call addrspace(1) void @llvm.lifetime.start.p0i8(i64 8, i8* %104) #27, !dbg !1561, !noalias !1481
  %call49 = call addrspace(1) %"class.aie::detail::vector_elem_ref" @_ZN3aie6detail6vectorIiLj4EEixEj(%"class.aie::detail::vector"* nonnull dereferenceable(16) %val_in, i32 3) #28, !dbg !1561, !noalias !1481
  %105 = getelementptr inbounds %"class.aie::detail::vector_elem_ref", %"class.aie::detail::vector_elem_ref"* %ref.tmp48, i32 0, i32 0, !dbg !1561
  %106 = extractvalue %"class.aie::detail::vector_elem_ref" %call49, 0, !dbg !1561
  store %"class.aie::detail::vector"* %106, %"class.aie::detail::vector"** %105, align 4, !dbg !1561, !noalias !1481
  %107 = getelementptr inbounds %"class.aie::detail::vector_elem_ref", %"class.aie::detail::vector_elem_ref"* %ref.tmp48, i32 0, i32 1, !dbg !1561
  %108 = extractvalue %"class.aie::detail::vector_elem_ref" %call49, 1, !dbg !1561
  store i32 %108, i32* %107, align 4, !dbg !1561, !noalias !1481
  %call50 = call addrspace(1) i32 @_ZNK3aie6detail15vector_elem_refIiLj4EEcviEv(%"class.aie::detail::vector_elem_ref"* nonnull dereferenceable(8) %ref.tmp48) #28, !dbg !1561, !noalias !1481
  call addrspace(1) void @_ZN7ClusterC2Eii(%class.Cluster* nonnull dereferenceable(20) %ref.tmp44, i32 %call47, i32 %call50) #28, !dbg !1559, !noalias !1481
  %109 = load i32, i32* %k, align 4, !dbg !1562, !tbaa !1334, !noalias !1481
  %add51 = add nsw i32 %109, 1, !dbg !1563
  %arrayidx52 = getelementptr inbounds [8 x %class.Cluster], [8 x %class.Cluster]* %clusters, i32 0, i32 %add51, !dbg !1564
  %110 = load %class.Cluster, %class.Cluster* %ref.tmp44, align 4, !dbg !1565, !tbaa !1557, !noalias !1481
  store %class.Cluster %110, %class.Cluster* %arrayidx52, align 4, !dbg !1565, !tbaa !1557, !noalias !1481
  %111 = bitcast %"class.aie::detail::vector_elem_ref"* %ref.tmp48 to i8*, !dbg !1564
  call addrspace(1) void @llvm.lifetime.end.p0i8(i64 8, i8* %111) #27, !dbg !1564, !noalias !1481
  %112 = bitcast %"class.aie::detail::vector_elem_ref"* %ref.tmp45 to i8*, !dbg !1564
  call addrspace(1) void @llvm.lifetime.end.p0i8(i64 8, i8* %112) #27, !dbg !1564, !noalias !1481
  %113 = bitcast %class.Cluster* %ref.tmp44 to i8*, !dbg !1564
  call addrspace(1) void @llvm.lifetime.end.p0i8(i64 20, i8* %113) #27, !dbg !1564, !noalias !1481
  %114 = load i32, i32* %k, align 4, !dbg !1566, !tbaa !1334, !noalias !1481
  %add53 = add nsw i32 %114, 2, !dbg !1566
  store i32 %add53, i32* %k, align 4, !dbg !1566, !tbaa !1334, !noalias !1481
  br label %if.end

if.end:                                           ; preds = %if.else, %if.then
  br label %for.inc, !dbg !1567

for.inc:                                          ; preds = %if.end
  %115 = load i32, i32* %i, align 4, !dbg !1568, !tbaa !1334, !noalias !1481
  %inc = add nsw i32 %115, 1, !dbg !1568
  store i32 %inc, i32* %i, align 4, !dbg !1568, !tbaa !1334, !noalias !1481
  br label %for.cond, !dbg !1569, !llvm.loop !1570

for.end:                                          ; preds = %for.cond
  store %"class.aie::detail::vector.1" undef, %"class.aie::detail::vector.1"* %distances, align 32, !dbg !1572, !noalias !1481
  %116 = bitcast %"class.aie::detail::vector.1"* %distances to i8*, !dbg !1572
  call addrspace(1) void @llvm.lifetime.start.p0i8(i64 32, i8* %116) #27, !dbg !1572, !noalias !1481
  call addrspace(1) void @llvm.dbg.declare(metadata %"class.aie::detail::vector.1"* %distances, metadata !1466, metadata !DIExpression()), !dbg !1573
  %call54 = call addrspace(1) %"class.aie::detail::vector.1" @_ZN3aie5zerosIiLj8EEENS_6detail6vectorIT_XT0_EEEv() #28, !dbg !1574, !noalias !1481
  %117 = getelementptr inbounds %"class.aie::detail::vector.1", %"class.aie::detail::vector.1"* %distances, i32 0, i32 0, !dbg !1574
  %118 = extractvalue %"class.aie::detail::vector.1" %call54, 0, !dbg !1574
  store %struct.v8int32 %118, %struct.v8int32* %117, align 32, !dbg !1574, !noalias !1481
  store i32 undef, i32* %cluster_index, align 4, !dbg !1575, !noalias !1481
  %119 = bitcast i32* %cluster_index to i8*, !dbg !1575
  call addrspace(1) void @llvm.lifetime.start.p0i8(i64 4, i8* %119) #27, !dbg !1575, !noalias !1481
  call addrspace(1) void @llvm.dbg.declare(metadata i32* %cluster_index, metadata !1468, metadata !DIExpression()), !dbg !1576
  store i32 -1, i32* %cluster_index, align 4, !dbg !1576, !tbaa !1334, !noalias !1481
  store i32 0, i32* %i, align 4, !dbg !1577, !tbaa !1334, !noalias !1481
  br label %for.cond55, !dbg !1579

for.cond55:                                       ; preds = %for.inc70, %for.end
  %120 = load i32, i32* %i, align 4, !dbg !1580, !tbaa !1334, !noalias !1481
  %121 = load i32, i32* %num_points, align 4, !dbg !1582, !tbaa !1334, !noalias !1481
  %cmp56 = icmp slt i32 %120, %121, !dbg !1583
  br i1 %cmp56, label %for.body57, label %for.end72, !dbg !1584

for.body57:                                       ; preds = %for.cond55
  %122 = bitcast %"class.aie::detail::vector.1"* %tmp58 to i8*, !dbg !1585
  call addrspace(1) void @llvm.lifetime.start.p0i8(i64 32, i8* %122) #27, !dbg !1585, !noalias !1481
  %arraydecay = getelementptr inbounds [8 x %class.Cluster], [8 x %class.Cluster]* %clusters, i32 0, i32 0, !dbg !1587
  %123 = load i32, i32* %num_clusters, align 4, !dbg !1588, !tbaa !1334, !noalias !1481
  %124 = load i32, i32* %i, align 4, !dbg !1589, !tbaa !1334, !noalias !1481
  %arrayidx59 = getelementptr inbounds [200 x %class.Point], [200 x %class.Point]* %points, i32 0, i32 %124, !dbg !1590
  %125 = load %class.Point, %class.Point* %arrayidx59, align 4, !dbg !1590, !tbaa !1539, !noalias !1481
  store %class.Point %125, %class.Point* %agg.tmp, align 4, !dbg !1590, !tbaa !1539, !noalias !1481
  %126 = load %class.Point, %class.Point* %agg.tmp, align 4, !dbg !1585, !tbaa !1539, !noalias !1481
  %call60 = call addrspace(1) %"class.aie::detail::vector.1" @_Z18euclidean_distanceP7Clusteri5Point(%class.Cluster* %arraydecay, i32 %123, %class.Point %126) #28, !dbg !1585, !noalias !1481
  %127 = getelementptr inbounds %"class.aie::detail::vector.1", %"class.aie::detail::vector.1"* %tmp58, i32 0, i32 0, !dbg !1585
  %128 = extractvalue %"class.aie::detail::vector.1" %call60, 0, !dbg !1585
  store %struct.v8int32 %128, %struct.v8int32* %127, align 32, !dbg !1585, !noalias !1481
  %129 = load %"class.aie::detail::vector.1", %"class.aie::detail::vector.1"* %tmp58, align 32, !dbg !1585, !tbaa !1591, !noalias !1481
  store %"class.aie::detail::vector.1" %129, %"class.aie::detail::vector.1"* %distances, align 32, !dbg !1585, !tbaa !1591, !noalias !1481
  %130 = bitcast %"class.aie::detail::vector.1"* %tmp58 to i8*, !dbg !1585
  call addrspace(1) void @llvm.lifetime.end.p0i8(i64 32, i8* %130) #27, !dbg !1585, !noalias !1481
  %131 = load i32, i32* %i, align 4, !dbg !1594, !tbaa !1334, !noalias !1481
  %arrayidx62 = getelementptr inbounds [200 x %class.Point], [200 x %class.Point]* %points, i32 0, i32 %131, !dbg !1595
  %132 = load %class.Point, %class.Point* %arrayidx62, align 4, !dbg !1595, !tbaa !1539, !noalias !1481
  store %class.Point %132, %class.Point* %agg.tmp61, align 4, !dbg !1595, !tbaa !1539, !noalias !1481
  %arraydecay63 = getelementptr inbounds [8 x %class.Cluster], [8 x %class.Cluster]* %clusters, i32 0, i32 0, !dbg !1596
  %133 = load i32, i32* %num_clusters, align 4, !dbg !1597, !tbaa !1334, !noalias !1481
  %134 = load %"class.aie::detail::vector.1", %"class.aie::detail::vector.1"* %distances, align 32, !dbg !1598, !tbaa !1591, !noalias !1481
  %135 = load %class.Point, %class.Point* %agg.tmp61, align 4, !dbg !1598, !tbaa !1539, !noalias !1481
  %call64 = call addrspace(1) i32 @_Z19assignment_functionN3aie6detail6vectorIiLj8EEE5PointP7Clusteri(%"class.aie::detail::vector.1" %134, %class.Point %135, %class.Cluster* %arraydecay63, i32 %133) #28, !dbg !1598, !noalias !1481
  store i32 %call64, i32* %cluster_index, align 4, !dbg !1599, !tbaa !1334, !noalias !1481
  %136 = load i32, i32* %i, align 4, !dbg !1600, !tbaa !1334, !noalias !1481
  %arrayidx65 = getelementptr inbounds [200 x %class.Point], [200 x %class.Point]* %points, i32 0, i32 %136, !dbg !1601
  %137 = load i32, i32* %cluster_index, align 4, !dbg !1602, !tbaa !1334, !noalias !1481
  call addrspace(1) void @_ZN5Point10setClusterEi(%class.Point* nonnull dereferenceable(12) %arrayidx65, i32 %137) #28, !dbg !1603, !noalias !1481
  %138 = load i32, i32* %cluster_index, align 4, !dbg !1604, !tbaa !1334, !noalias !1481
  %arrayidx66 = getelementptr inbounds [8 x %class.Cluster], [8 x %class.Cluster]* %clusters, i32 0, i32 %138, !dbg !1605
  %139 = load i32, i32* %i, align 4, !dbg !1606, !tbaa !1334, !noalias !1481
  %arrayidx68 = getelementptr inbounds [200 x %class.Point], [200 x %class.Point]* %points, i32 0, i32 %139, !dbg !1607
  %140 = load %class.Point, %class.Point* %arrayidx68, align 4, !dbg !1607, !tbaa !1539, !noalias !1481
  store %class.Point %140, %class.Point* %agg.tmp67, align 4, !dbg !1607, !tbaa !1539, !noalias !1481
  %141 = load %class.Point, %class.Point* %agg.tmp67, align 4, !dbg !1608, !tbaa !1539, !noalias !1481
  call addrspace(1) void @_ZN7Cluster8addPointE5Point(%class.Cluster* nonnull dereferenceable(20) %arrayidx66, %class.Point %141) #28, !dbg !1608, !noalias !1481
  %142 = load i32, i32* %cluster_index, align 4, !dbg !1609, !tbaa !1334, !noalias !1481
  %arrayidx69 = getelementptr inbounds [8 x %class.Cluster], [8 x %class.Cluster]* %clusters, i32 0, i32 %142, !dbg !1610
  call addrspace(1) void @_ZN7Cluster17updateCoordinatesEv(%class.Cluster* nonnull dereferenceable(20) %arrayidx69) #28, !dbg !1611, !noalias !1481
  br label %for.inc70, !dbg !1612

for.inc70:                                        ; preds = %for.body57
  %143 = load i32, i32* %i, align 4, !dbg !1613, !tbaa !1334, !noalias !1481
  %inc71 = add nsw i32 %143, 1, !dbg !1613
  store i32 %inc71, i32* %i, align 4, !dbg !1613, !tbaa !1334, !noalias !1481
  br label %for.cond55, !dbg !1614, !llvm.loop !1615

for.end72:                                        ; preds = %for.cond55
  %144 = load i32, i32* %num_clusters, align 4, !dbg !1617, !tbaa !1334, !noalias !1481
  %cmp73 = icmp eq i32 %144, 4, !dbg !1618
  br i1 %cmp73, label %if.then74, label %if.else96, !dbg !1619

if.then74:                                        ; preds = %for.end72
  store %"class.aie::detail::vector.1" undef, %"class.aie::detail::vector.1"* %result_4c, align 32, !dbg !1620, !noalias !1481
  %145 = bitcast %"class.aie::detail::vector.1"* %result_4c to i8*, !dbg !1620
  call addrspace(1) void @llvm.lifetime.start.p0i8(i64 32, i8* %145) #27, !dbg !1620, !noalias !1481
  call addrspace(1) void @llvm.dbg.declare(metadata %"class.aie::detail::vector.1"* %result_4c, metadata !1469, metadata !DIExpression()), !dbg !1621
  %call75 = call addrspace(1) %"class.aie::detail::vector.1" @_ZN3aie5zerosIiLj8EEENS_6detail6vectorIT_XT0_EEEv() #28, !dbg !1622, !noalias !1481
  %146 = getelementptr inbounds %"class.aie::detail::vector.1", %"class.aie::detail::vector.1"* %result_4c, i32 0, i32 0, !dbg !1622
  %147 = extractvalue %"class.aie::detail::vector.1" %call75, 0, !dbg !1622
  store %struct.v8int32 %147, %struct.v8int32* %146, align 32, !dbg !1622, !noalias !1481
  store i32 0, i32* %i, align 4, !dbg !1623, !tbaa !1334, !noalias !1481
  br label %for.cond76, !dbg !1625

for.cond76:                                       ; preds = %for.inc93, %if.then74
  %148 = load i32, i32* %i, align 4, !dbg !1626, !tbaa !1334, !noalias !1481
  %149 = load i32, i32* %num_clusters, align 4, !dbg !1628, !tbaa !1334, !noalias !1481
  %cmp77 = icmp slt i32 %148, %149, !dbg !1629
  br i1 %cmp77, label %for.body78, label %for.end95, !dbg !1630

for.body78:                                       ; preds = %for.cond76
  %150 = bitcast i32* %ref.tmp79 to i8*, !dbg !1631
  call addrspace(1) void @llvm.lifetime.start.p0i8(i64 4, i8* %150) #27, !dbg !1631, !noalias !1481
  %151 = load i32, i32* %i, align 4, !dbg !1633, !tbaa !1334, !noalias !1481
  %arrayidx80 = getelementptr inbounds [8 x %class.Cluster], [8 x %class.Cluster]* %clusters, i32 0, i32 %151, !dbg !1631
  %call81 = call addrspace(1) i32 @_ZN7Cluster4getXEv(%class.Cluster* nonnull dereferenceable(20) %arrayidx80) #28, !dbg !1634, !noalias !1481
  store i32 %call81, i32* %ref.tmp79, align 4, !dbg !1631, !tbaa !1334, !noalias !1481
  %152 = bitcast %"class.aie::detail::vector_elem_ref.2"* %ref.tmp82 to i8*, !dbg !1635
  call addrspace(1) void @llvm.lifetime.start.p0i8(i64 8, i8* %152) #27, !dbg !1635, !noalias !1481
  %153 = load i32, i32* %i, align 4, !dbg !1636, !tbaa !1334, !noalias !1481
  %mul = mul nsw i32 %153, 2, !dbg !1637
  %call83 = call addrspace(1) %"class.aie::detail::vector_elem_ref.2" @_ZN3aie6detail6vectorIiLj8EEixEj(%"class.aie::detail::vector.1"* nonnull dereferenceable(32) %result_4c, i32 %mul) #28, !dbg !1635, !noalias !1481
  %154 = getelementptr inbounds %"class.aie::detail::vector_elem_ref.2", %"class.aie::detail::vector_elem_ref.2"* %ref.tmp82, i32 0, i32 0, !dbg !1635
  %155 = extractvalue %"class.aie::detail::vector_elem_ref.2" %call83, 0, !dbg !1635
  store %"class.aie::detail::vector.1"* %155, %"class.aie::detail::vector.1"** %154, align 4, !dbg !1635, !noalias !1481
  %156 = getelementptr inbounds %"class.aie::detail::vector_elem_ref.2", %"class.aie::detail::vector_elem_ref.2"* %ref.tmp82, i32 0, i32 1, !dbg !1635
  %157 = extractvalue %"class.aie::detail::vector_elem_ref.2" %call83, 1, !dbg !1635
  store i32 %157, i32* %156, align 4, !dbg !1635, !noalias !1481
  %call84 = call nonnull align 4 dereferenceable(8) addrspace(1) %"class.aie::detail::vector_elem_ref.2"* @_ZN3aie6detail15vector_elem_refIiLj8EEaSERKi(%"class.aie::detail::vector_elem_ref.2"* nonnull dereferenceable(8) %ref.tmp82, i32* nonnull align 4 dereferenceable(4) %ref.tmp79) #28, !dbg !1638, !noalias !1481
  %158 = bitcast %"class.aie::detail::vector_elem_ref.2"* %ref.tmp82 to i8*, !dbg !1635
  call addrspace(1) void @llvm.lifetime.end.p0i8(i64 8, i8* %158) #27, !dbg !1635, !noalias !1481
  %159 = bitcast i32* %ref.tmp79 to i8*, !dbg !1635
  call addrspace(1) void @llvm.lifetime.end.p0i8(i64 4, i8* %159) #27, !dbg !1635, !noalias !1481
  %160 = bitcast i32* %ref.tmp85 to i8*, !dbg !1639
  call addrspace(1) void @llvm.lifetime.start.p0i8(i64 4, i8* %160) #27, !dbg !1639, !noalias !1481
  %161 = load i32, i32* %i, align 4, !dbg !1640, !tbaa !1334, !noalias !1481
  %arrayidx86 = getelementptr inbounds [8 x %class.Cluster], [8 x %class.Cluster]* %clusters, i32 0, i32 %161, !dbg !1639
  %call87 = call addrspace(1) i32 @_ZN7Cluster4getYEv(%class.Cluster* nonnull dereferenceable(20) %arrayidx86) #28, !dbg !1641, !noalias !1481
  store i32 %call87, i32* %ref.tmp85, align 4, !dbg !1639, !tbaa !1334, !noalias !1481
  %162 = bitcast %"class.aie::detail::vector_elem_ref.2"* %ref.tmp88 to i8*, !dbg !1642
  call addrspace(1) void @llvm.lifetime.start.p0i8(i64 8, i8* %162) #27, !dbg !1642, !noalias !1481
  %163 = load i32, i32* %i, align 4, !dbg !1643, !tbaa !1334, !noalias !1481
  %mul89 = mul nsw i32 %163, 2, !dbg !1644
  %add90 = add nsw i32 %mul89, 1, !dbg !1645
  %call91 = call addrspace(1) %"class.aie::detail::vector_elem_ref.2" @_ZN3aie6detail6vectorIiLj8EEixEj(%"class.aie::detail::vector.1"* nonnull dereferenceable(32) %result_4c, i32 %add90) #28, !dbg !1642, !noalias !1481
  %164 = getelementptr inbounds %"class.aie::detail::vector_elem_ref.2", %"class.aie::detail::vector_elem_ref.2"* %ref.tmp88, i32 0, i32 0, !dbg !1642
  %165 = extractvalue %"class.aie::detail::vector_elem_ref.2" %call91, 0, !dbg !1642
  store %"class.aie::detail::vector.1"* %165, %"class.aie::detail::vector.1"** %164, align 4, !dbg !1642, !noalias !1481
  %166 = getelementptr inbounds %"class.aie::detail::vector_elem_ref.2", %"class.aie::detail::vector_elem_ref.2"* %ref.tmp88, i32 0, i32 1, !dbg !1642
  %167 = extractvalue %"class.aie::detail::vector_elem_ref.2" %call91, 1, !dbg !1642
  store i32 %167, i32* %166, align 4, !dbg !1642, !noalias !1481
  %call92 = call nonnull align 4 dereferenceable(8) addrspace(1) %"class.aie::detail::vector_elem_ref.2"* @_ZN3aie6detail15vector_elem_refIiLj8EEaSERKi(%"class.aie::detail::vector_elem_ref.2"* nonnull dereferenceable(8) %ref.tmp88, i32* nonnull align 4 dereferenceable(4) %ref.tmp85) #28, !dbg !1646, !noalias !1481
  %168 = bitcast %"class.aie::detail::vector_elem_ref.2"* %ref.tmp88 to i8*, !dbg !1642
  call addrspace(1) void @llvm.lifetime.end.p0i8(i64 8, i8* %168) #27, !dbg !1642, !noalias !1481
  %169 = bitcast i32* %ref.tmp85 to i8*, !dbg !1642
  call addrspace(1) void @llvm.lifetime.end.p0i8(i64 4, i8* %169) #27, !dbg !1642, !noalias !1481
  br label %for.inc93, !dbg !1647

for.inc93:                                        ; preds = %for.body78
  %170 = load i32, i32* %i, align 4, !dbg !1648, !tbaa !1334, !noalias !1481
  %inc94 = add nsw i32 %170, 1, !dbg !1648
  store i32 %inc94, i32* %i, align 4, !dbg !1648, !tbaa !1334, !noalias !1481
  br label %for.cond76, !dbg !1649, !llvm.loop !1650

for.end95:                                        ; preds = %for.cond76
  %171 = load %struct.output_stream.2*, %struct.output_stream.2** %output.addr, align 4, !dbg !1652, !tbaa !1383, !noalias !1481
  %172 = call addrspace(1) %struct.output_stream.2* @llvm.noalias.p0s_struct.output_stream.2s.p0i8.p0p0s_struct.output_stream.2s.i32(%struct.output_stream.2* %171, i8* %1, %struct.output_stream.2** %output.addr, i32 0, metadata !1484), !dbg !1652, !tbaa !1383, !noalias !1481
  call addrspace(1) void @_Z9writeincrIL23aie_stream_resource_out0EiLj8EEvP13output_streamIT0_ERKN3aie6detail6vectorIS2_XT1_EEE(%struct.output_stream.2* %172, %"class.aie::detail::vector.1"* nonnull align 32 dereferenceable(32) %result_4c) #28, !dbg !1653, !noalias !1481
  %173 = bitcast %"class.aie::detail::vector.1"* %result_4c to i8*, !dbg !1654
  call addrspace(1) void @llvm.lifetime.end.p0i8(i64 32, i8* %173) #27, !dbg !1654, !noalias !1481
  br label %if.end145, !dbg !1655

if.else96:                                        ; preds = %for.end72
  %174 = load i32, i32* %num_clusters, align 4, !dbg !1656, !tbaa !1334, !noalias !1481
  %cmp97 = icmp eq i32 %174, 8, !dbg !1657
  br i1 %cmp97, label %if.then98, label %if.else121, !dbg !1658

if.then98:                                        ; preds = %if.else96
  store %"class.aie::detail::vector.3" undef, %"class.aie::detail::vector.3"* %result_8c, align 32, !dbg !1659, !noalias !1481
  %175 = bitcast %"class.aie::detail::vector.3"* %result_8c to i8*, !dbg !1659
  call addrspace(1) void @llvm.lifetime.start.p0i8(i64 64, i8* %175) #27, !dbg !1659, !noalias !1481
  call addrspace(1) void @llvm.dbg.declare(metadata %"class.aie::detail::vector.3"* %result_8c, metadata !1472, metadata !DIExpression()), !dbg !1660
  %call99 = call addrspace(1) %"class.aie::detail::vector.3" @_ZN3aie5zerosIiLj16EEENS_6detail6vectorIT_XT0_EEEv() #28, !dbg !1661, !noalias !1481
  %176 = getelementptr inbounds %"class.aie::detail::vector.3", %"class.aie::detail::vector.3"* %result_8c, i32 0, i32 0, !dbg !1661
  %177 = extractvalue %"class.aie::detail::vector.3" %call99, 0, !dbg !1661
  store %struct.v16int32 %177, %struct.v16int32* %176, align 32, !dbg !1661, !noalias !1481
  store i32 0, i32* %i, align 4, !dbg !1662, !tbaa !1334, !noalias !1481
  br label %for.cond100, !dbg !1664

for.cond100:                                      ; preds = %for.inc118, %if.then98
  %178 = load i32, i32* %i, align 4, !dbg !1665, !tbaa !1334, !noalias !1481
  %179 = load i32, i32* %num_clusters, align 4, !dbg !1667, !tbaa !1334, !noalias !1481
  %cmp101 = icmp slt i32 %178, %179, !dbg !1668
  br i1 %cmp101, label %for.body102, label %for.end120, !dbg !1669

for.body102:                                      ; preds = %for.cond100
  %180 = bitcast i32* %ref.tmp103 to i8*, !dbg !1670
  call addrspace(1) void @llvm.lifetime.start.p0i8(i64 4, i8* %180) #27, !dbg !1670, !noalias !1481
  %181 = load i32, i32* %i, align 4, !dbg !1672, !tbaa !1334, !noalias !1481
  %arrayidx104 = getelementptr inbounds [8 x %class.Cluster], [8 x %class.Cluster]* %clusters, i32 0, i32 %181, !dbg !1670
  %call105 = call addrspace(1) i32 @_ZN7Cluster4getXEv(%class.Cluster* nonnull dereferenceable(20) %arrayidx104) #28, !dbg !1673, !noalias !1481
  store i32 %call105, i32* %ref.tmp103, align 4, !dbg !1670, !tbaa !1334, !noalias !1481
  %182 = bitcast %"class.aie::detail::vector_elem_ref.4"* %ref.tmp106 to i8*, !dbg !1674
  call addrspace(1) void @llvm.lifetime.start.p0i8(i64 8, i8* %182) #27, !dbg !1674, !noalias !1481
  %183 = load i32, i32* %i, align 4, !dbg !1675, !tbaa !1334, !noalias !1481
  %mul107 = mul nsw i32 %183, 2, !dbg !1676
  %call108 = call addrspace(1) %"class.aie::detail::vector_elem_ref.4" @_ZN3aie6detail6vectorIiLj16EEixEj(%"class.aie::detail::vector.3"* nonnull dereferenceable(64) %result_8c, i32 %mul107) #28, !dbg !1674, !noalias !1481
  %184 = getelementptr inbounds %"class.aie::detail::vector_elem_ref.4", %"class.aie::detail::vector_elem_ref.4"* %ref.tmp106, i32 0, i32 0, !dbg !1674
  %185 = extractvalue %"class.aie::detail::vector_elem_ref.4" %call108, 0, !dbg !1674
  store %"class.aie::detail::vector.3"* %185, %"class.aie::detail::vector.3"** %184, align 4, !dbg !1674, !noalias !1481
  %186 = getelementptr inbounds %"class.aie::detail::vector_elem_ref.4", %"class.aie::detail::vector_elem_ref.4"* %ref.tmp106, i32 0, i32 1, !dbg !1674
  %187 = extractvalue %"class.aie::detail::vector_elem_ref.4" %call108, 1, !dbg !1674
  store i32 %187, i32* %186, align 4, !dbg !1674, !noalias !1481
  %call109 = call nonnull align 4 dereferenceable(8) addrspace(1) %"class.aie::detail::vector_elem_ref.4"* @_ZN3aie6detail15vector_elem_refIiLj16EEaSERKi(%"class.aie::detail::vector_elem_ref.4"* nonnull dereferenceable(8) %ref.tmp106, i32* nonnull align 4 dereferenceable(4) %ref.tmp103) #28, !dbg !1677, !noalias !1481
  %188 = bitcast %"class.aie::detail::vector_elem_ref.4"* %ref.tmp106 to i8*, !dbg !1674
  call addrspace(1) void @llvm.lifetime.end.p0i8(i64 8, i8* %188) #27, !dbg !1674, !noalias !1481
  %189 = bitcast i32* %ref.tmp103 to i8*, !dbg !1674
  call addrspace(1) void @llvm.lifetime.end.p0i8(i64 4, i8* %189) #27, !dbg !1674, !noalias !1481
  %190 = bitcast i32* %ref.tmp110 to i8*, !dbg !1678
  call addrspace(1) void @llvm.lifetime.start.p0i8(i64 4, i8* %190) #27, !dbg !1678, !noalias !1481
  %191 = load i32, i32* %i, align 4, !dbg !1679, !tbaa !1334, !noalias !1481
  %arrayidx111 = getelementptr inbounds [8 x %class.Cluster], [8 x %class.Cluster]* %clusters, i32 0, i32 %191, !dbg !1678
  %call112 = call addrspace(1) i32 @_ZN7Cluster4getYEv(%class.Cluster* nonnull dereferenceable(20) %arrayidx111) #28, !dbg !1680, !noalias !1481
  store i32 %call112, i32* %ref.tmp110, align 4, !dbg !1678, !tbaa !1334, !noalias !1481
  %192 = bitcast %"class.aie::detail::vector_elem_ref.4"* %ref.tmp113 to i8*, !dbg !1681
  call addrspace(1) void @llvm.lifetime.start.p0i8(i64 8, i8* %192) #27, !dbg !1681, !noalias !1481
  %193 = load i32, i32* %i, align 4, !dbg !1682, !tbaa !1334, !noalias !1481
  %mul114 = mul nsw i32 %193, 2, !dbg !1683
  %add115 = add nsw i32 %mul114, 1, !dbg !1684
  %call116 = call addrspace(1) %"class.aie::detail::vector_elem_ref.4" @_ZN3aie6detail6vectorIiLj16EEixEj(%"class.aie::detail::vector.3"* nonnull dereferenceable(64) %result_8c, i32 %add115) #28, !dbg !1681, !noalias !1481
  %194 = getelementptr inbounds %"class.aie::detail::vector_elem_ref.4", %"class.aie::detail::vector_elem_ref.4"* %ref.tmp113, i32 0, i32 0, !dbg !1681
  %195 = extractvalue %"class.aie::detail::vector_elem_ref.4" %call116, 0, !dbg !1681
  store %"class.aie::detail::vector.3"* %195, %"class.aie::detail::vector.3"** %194, align 4, !dbg !1681, !noalias !1481
  %196 = getelementptr inbounds %"class.aie::detail::vector_elem_ref.4", %"class.aie::detail::vector_elem_ref.4"* %ref.tmp113, i32 0, i32 1, !dbg !1681
  %197 = extractvalue %"class.aie::detail::vector_elem_ref.4" %call116, 1, !dbg !1681
  store i32 %197, i32* %196, align 4, !dbg !1681, !noalias !1481
  %call117 = call nonnull align 4 dereferenceable(8) addrspace(1) %"class.aie::detail::vector_elem_ref.4"* @_ZN3aie6detail15vector_elem_refIiLj16EEaSERKi(%"class.aie::detail::vector_elem_ref.4"* nonnull dereferenceable(8) %ref.tmp113, i32* nonnull align 4 dereferenceable(4) %ref.tmp110) #28, !dbg !1685, !noalias !1481
  %198 = bitcast %"class.aie::detail::vector_elem_ref.4"* %ref.tmp113 to i8*, !dbg !1681
  call addrspace(1) void @llvm.lifetime.end.p0i8(i64 8, i8* %198) #27, !dbg !1681, !noalias !1481
  %199 = bitcast i32* %ref.tmp110 to i8*, !dbg !1681
  call addrspace(1) void @llvm.lifetime.end.p0i8(i64 4, i8* %199) #27, !dbg !1681, !noalias !1481
  br label %for.inc118, !dbg !1686

for.inc118:                                       ; preds = %for.body102
  %200 = load i32, i32* %i, align 4, !dbg !1687, !tbaa !1334, !noalias !1481
  %inc119 = add nsw i32 %200, 1, !dbg !1687
  store i32 %inc119, i32* %i, align 4, !dbg !1687, !tbaa !1334, !noalias !1481
  br label %for.cond100, !dbg !1688, !llvm.loop !1689

for.end120:                                       ; preds = %for.cond100
  %201 = load %struct.output_stream.2*, %struct.output_stream.2** %output.addr, align 4, !dbg !1691, !tbaa !1383, !noalias !1481
  %202 = call addrspace(1) %struct.output_stream.2* @llvm.noalias.p0s_struct.output_stream.2s.p0i8.p0p0s_struct.output_stream.2s.i32(%struct.output_stream.2* %201, i8* %1, %struct.output_stream.2** %output.addr, i32 0, metadata !1484), !dbg !1691, !tbaa !1383, !noalias !1481
  call addrspace(1) void @_Z9writeincrIL23aie_stream_resource_out0EiLj16EEvP13output_streamIT0_ERKN3aie6detail6vectorIS2_XT1_EEE(%struct.output_stream.2* %202, %"class.aie::detail::vector.3"* nonnull align 32 dereferenceable(64) %result_8c) #28, !dbg !1692, !noalias !1481
  %203 = bitcast %"class.aie::detail::vector.3"* %result_8c to i8*, !dbg !1693
  call addrspace(1) void @llvm.lifetime.end.p0i8(i64 64, i8* %203) #27, !dbg !1693, !noalias !1481
  br label %if.end144, !dbg !1694

if.else121:                                       ; preds = %if.else96
  store %"class.aie::detail::vector" undef, %"class.aie::detail::vector"* %result, align 16, !dbg !1695, !noalias !1481
  %204 = bitcast %"class.aie::detail::vector"* %result to i8*, !dbg !1695
  call addrspace(1) void @llvm.lifetime.start.p0i8(i64 16, i8* %204) #27, !dbg !1695, !noalias !1481
  call addrspace(1) void @llvm.dbg.declare(metadata %"class.aie::detail::vector"* %result, metadata !1476, metadata !DIExpression()), !dbg !1696
  %call122 = call addrspace(1) %"class.aie::detail::vector" @_ZN3aie5zerosIiLj4EEENS_6detail6vectorIT_XT0_EEEv() #28, !dbg !1697, !noalias !1481
  %205 = getelementptr inbounds %"class.aie::detail::vector", %"class.aie::detail::vector"* %result, i32 0, i32 0, !dbg !1697
  %206 = extractvalue %"class.aie::detail::vector" %call122, 0, !dbg !1697
  store %struct.v4int32 %206, %struct.v4int32* %205, align 16, !dbg !1697, !noalias !1481
  store i32 0, i32* %i, align 4, !dbg !1698, !tbaa !1334, !noalias !1481
  br label %for.cond123, !dbg !1700

for.cond123:                                      ; preds = %for.inc141, %if.else121
  %207 = load i32, i32* %i, align 4, !dbg !1701, !tbaa !1334, !noalias !1481
  %208 = load i32, i32* %num_clusters, align 4, !dbg !1703, !tbaa !1334, !noalias !1481
  %cmp124 = icmp slt i32 %207, %208, !dbg !1704
  br i1 %cmp124, label %for.body125, label %for.end143, !dbg !1705

for.body125:                                      ; preds = %for.cond123
  %209 = bitcast i32* %ref.tmp126 to i8*, !dbg !1706
  call addrspace(1) void @llvm.lifetime.start.p0i8(i64 4, i8* %209) #27, !dbg !1706, !noalias !1481
  %210 = load i32, i32* %i, align 4, !dbg !1708, !tbaa !1334, !noalias !1481
  %arrayidx127 = getelementptr inbounds [8 x %class.Cluster], [8 x %class.Cluster]* %clusters, i32 0, i32 %210, !dbg !1706
  %call128 = call addrspace(1) i32 @_ZN7Cluster4getXEv(%class.Cluster* nonnull dereferenceable(20) %arrayidx127) #28, !dbg !1709, !noalias !1481
  store i32 %call128, i32* %ref.tmp126, align 4, !dbg !1706, !tbaa !1334, !noalias !1481
  %211 = bitcast %"class.aie::detail::vector_elem_ref"* %ref.tmp129 to i8*, !dbg !1710
  call addrspace(1) void @llvm.lifetime.start.p0i8(i64 8, i8* %211) #27, !dbg !1710, !noalias !1481
  %212 = load i32, i32* %i, align 4, !dbg !1711, !tbaa !1334, !noalias !1481
  %mul130 = mul nsw i32 %212, 2, !dbg !1712
  %call131 = call addrspace(1) %"class.aie::detail::vector_elem_ref" @_ZN3aie6detail6vectorIiLj4EEixEj(%"class.aie::detail::vector"* nonnull dereferenceable(16) %result, i32 %mul130) #28, !dbg !1710, !noalias !1481
  %213 = getelementptr inbounds %"class.aie::detail::vector_elem_ref", %"class.aie::detail::vector_elem_ref"* %ref.tmp129, i32 0, i32 0, !dbg !1710
  %214 = extractvalue %"class.aie::detail::vector_elem_ref" %call131, 0, !dbg !1710
  store %"class.aie::detail::vector"* %214, %"class.aie::detail::vector"** %213, align 4, !dbg !1710, !noalias !1481
  %215 = getelementptr inbounds %"class.aie::detail::vector_elem_ref", %"class.aie::detail::vector_elem_ref"* %ref.tmp129, i32 0, i32 1, !dbg !1710
  %216 = extractvalue %"class.aie::detail::vector_elem_ref" %call131, 1, !dbg !1710
  store i32 %216, i32* %215, align 4, !dbg !1710, !noalias !1481
  %call132 = call nonnull align 4 dereferenceable(8) addrspace(1) %"class.aie::detail::vector_elem_ref"* @_ZN3aie6detail15vector_elem_refIiLj4EEaSERKi(%"class.aie::detail::vector_elem_ref"* nonnull dereferenceable(8) %ref.tmp129, i32* nonnull align 4 dereferenceable(4) %ref.tmp126) #28, !dbg !1713, !noalias !1481
  %217 = bitcast %"class.aie::detail::vector_elem_ref"* %ref.tmp129 to i8*, !dbg !1710
  call addrspace(1) void @llvm.lifetime.end.p0i8(i64 8, i8* %217) #27, !dbg !1710, !noalias !1481
  %218 = bitcast i32* %ref.tmp126 to i8*, !dbg !1710
  call addrspace(1) void @llvm.lifetime.end.p0i8(i64 4, i8* %218) #27, !dbg !1710, !noalias !1481
  %219 = bitcast i32* %ref.tmp133 to i8*, !dbg !1714
  call addrspace(1) void @llvm.lifetime.start.p0i8(i64 4, i8* %219) #27, !dbg !1714, !noalias !1481
  %220 = load i32, i32* %i, align 4, !dbg !1715, !tbaa !1334, !noalias !1481
  %arrayidx134 = getelementptr inbounds [8 x %class.Cluster], [8 x %class.Cluster]* %clusters, i32 0, i32 %220, !dbg !1714
  %call135 = call addrspace(1) i32 @_ZN7Cluster4getYEv(%class.Cluster* nonnull dereferenceable(20) %arrayidx134) #28, !dbg !1716, !noalias !1481
  store i32 %call135, i32* %ref.tmp133, align 4, !dbg !1714, !tbaa !1334, !noalias !1481
  %221 = bitcast %"class.aie::detail::vector_elem_ref"* %ref.tmp136 to i8*, !dbg !1717
  call addrspace(1) void @llvm.lifetime.start.p0i8(i64 8, i8* %221) #27, !dbg !1717, !noalias !1481
  %222 = load i32, i32* %i, align 4, !dbg !1718, !tbaa !1334, !noalias !1481
  %mul137 = mul nsw i32 %222, 2, !dbg !1719
  %add138 = add nsw i32 %mul137, 1, !dbg !1720
  %call139 = call addrspace(1) %"class.aie::detail::vector_elem_ref" @_ZN3aie6detail6vectorIiLj4EEixEj(%"class.aie::detail::vector"* nonnull dereferenceable(16) %result, i32 %add138) #28, !dbg !1717, !noalias !1481
  %223 = getelementptr inbounds %"class.aie::detail::vector_elem_ref", %"class.aie::detail::vector_elem_ref"* %ref.tmp136, i32 0, i32 0, !dbg !1717
  %224 = extractvalue %"class.aie::detail::vector_elem_ref" %call139, 0, !dbg !1717
  store %"class.aie::detail::vector"* %224, %"class.aie::detail::vector"** %223, align 4, !dbg !1717, !noalias !1481
  %225 = getelementptr inbounds %"class.aie::detail::vector_elem_ref", %"class.aie::detail::vector_elem_ref"* %ref.tmp136, i32 0, i32 1, !dbg !1717
  %226 = extractvalue %"class.aie::detail::vector_elem_ref" %call139, 1, !dbg !1717
  store i32 %226, i32* %225, align 4, !dbg !1717, !noalias !1481
  %call140 = call nonnull align 4 dereferenceable(8) addrspace(1) %"class.aie::detail::vector_elem_ref"* @_ZN3aie6detail15vector_elem_refIiLj4EEaSERKi(%"class.aie::detail::vector_elem_ref"* nonnull dereferenceable(8) %ref.tmp136, i32* nonnull align 4 dereferenceable(4) %ref.tmp133) #28, !dbg !1721, !noalias !1481
  %227 = bitcast %"class.aie::detail::vector_elem_ref"* %ref.tmp136 to i8*, !dbg !1717
  call addrspace(1) void @llvm.lifetime.end.p0i8(i64 8, i8* %227) #27, !dbg !1717, !noalias !1481
  %228 = bitcast i32* %ref.tmp133 to i8*, !dbg !1717
  call addrspace(1) void @llvm.lifetime.end.p0i8(i64 4, i8* %228) #27, !dbg !1717, !noalias !1481
  br label %for.inc141, !dbg !1722

for.inc141:                                       ; preds = %for.body125
  %229 = load i32, i32* %i, align 4, !dbg !1723, !tbaa !1334, !noalias !1481
  %inc142 = add nsw i32 %229, 1, !dbg !1723
  store i32 %inc142, i32* %i, align 4, !dbg !1723, !tbaa !1334, !noalias !1481
  br label %for.cond123, !dbg !1724, !llvm.loop !1725

for.end143:                                       ; preds = %for.cond123
  %230 = load %struct.output_stream.2*, %struct.output_stream.2** %output.addr, align 4, !dbg !1727, !tbaa !1383, !noalias !1481
  %231 = call addrspace(1) %struct.output_stream.2* @llvm.noalias.p0s_struct.output_stream.2s.p0i8.p0p0s_struct.output_stream.2s.i32(%struct.output_stream.2* %230, i8* %1, %struct.output_stream.2** %output.addr, i32 0, metadata !1484), !dbg !1727, !tbaa !1383, !noalias !1481
  call addrspace(1) void @_Z9writeincrIL23aie_stream_resource_out0EiLj4EEvP13output_streamIT0_ERKN3aie6detail6vectorIS2_XT1_EEE(%struct.output_stream.2* %231, %"class.aie::detail::vector"* nonnull align 16 dereferenceable(16) %result) #28, !dbg !1728, !noalias !1481
  %232 = bitcast %"class.aie::detail::vector"* %result to i8*, !dbg !1729
  call addrspace(1) void @llvm.lifetime.end.p0i8(i64 16, i8* %232) #27, !dbg !1729, !noalias !1481
  br label %if.end144

if.end144:                                        ; preds = %for.end143, %for.end120
  br label %if.end145

if.end145:                                        ; preds = %if.end144, %for.end95
  %233 = bitcast i32* %cluster_index to i8*, !dbg !1730
  call addrspace(1) void @llvm.lifetime.end.p0i8(i64 4, i8* %233) #27, !dbg !1730
  %234 = bitcast %"class.aie::detail::vector.1"* %distances to i8*, !dbg !1730
  call addrspace(1) void @llvm.lifetime.end.p0i8(i64 32, i8* %234) #27, !dbg !1730
  %235 = bitcast i32* %k to i8*, !dbg !1730
  call addrspace(1) void @llvm.lifetime.end.p0i8(i64 4, i8* %235) #27, !dbg !1730
  %236 = bitcast i32* %j to i8*, !dbg !1730
  call addrspace(1) void @llvm.lifetime.end.p0i8(i64 4, i8* %236) #27, !dbg !1730
  %237 = bitcast i32* %i to i8*, !dbg !1730
  call addrspace(1) void @llvm.lifetime.end.p0i8(i64 4, i8* %237) #27, !dbg !1730
  %238 = bitcast [200 x %class.Point]* %points to i8*, !dbg !1730
  call addrspace(1) void @llvm.lifetime.end.p0i8(i64 2400, i8* %238) #27, !dbg !1730
  %239 = bitcast [8 x %class.Cluster]* %clusters to i8*, !dbg !1730
  call addrspace(1) void @llvm.lifetime.end.p0i8(i64 160, i8* %239) #27, !dbg !1730
  %240 = bitcast %"class.aie::detail::vector"* %val_in to i8*, !dbg !1730
  call addrspace(1) void @llvm.lifetime.end.p0i8(i64 16, i8* %240) #27, !dbg !1730
  %241 = bitcast i32* %num_points to i8*, !dbg !1730
  call addrspace(1) void @llvm.lifetime.end.p0i8(i64 4, i8* %241) #27, !dbg !1730
  %242 = bitcast i32* %num_clusters to i8*, !dbg !1730
  call addrspace(1) void @llvm.lifetime.end.p0i8(i64 4, i8* %242) #27, !dbg !1730
  %243 = bitcast i32* %loops to i8*, !dbg !1730
  call addrspace(1) void @llvm.lifetime.end.p0i8(i64 4, i8* %243) #27, !dbg !1730
  ret void, !dbg !1730
}

; Function Attrs: inaccessiblememonly nounwind willreturn
declare i8* @llvm.noalias.decl.p0i8.p0p0s_struct.input_streams.i32(%struct.input_stream.0**, i32, metadata) addrspace(1) #5

; Function Attrs: inaccessiblememonly nounwind willreturn
declare i8* @llvm.noalias.decl.p0i8.p0p0s_struct.input_stream.0s.i32(%struct.input_stream.0**, i32, metadata) addrspace(1) #5

; Function Attrs: inaccessiblememonly nounwind willreturn
declare i8* @llvm.noalias.decl.p0i8.p0p0s_struct.output_streams.i32(%struct.output_stream.2**, i32, metadata) addrspace(1) #5

; Function Attrs: inaccessiblememonly nounwind willreturn
declare i8* @llvm.noalias.decl.p0i8.p0p0s_struct.output_stream.2s.i32(%struct.output_stream.2**, i32, metadata) addrspace(1) #5

; Function Attrs: alwaysinline nounwind mustprogress
define linkonce_odr dso_local %"class.aie::detail::vector" @_ZN3aie5zerosIiLj4EEENS_6detail6vectorIT_XT0_EEEv() addrspace(1) #9 comdat !dbg !1731 {
entry:
  %retval = alloca %"class.aie::detail::vector", align 16
  %call = call addrspace(1) %"class.aie::detail::vector" @_ZN3aie6detail5zerosIiLj4EEENS0_6vectorIT_XT0_EEEv() #28, !dbg !1734
  %0 = getelementptr inbounds %"class.aie::detail::vector", %"class.aie::detail::vector"* %retval, i32 0, i32 0, !dbg !1734
  %1 = extractvalue %"class.aie::detail::vector" %call, 0, !dbg !1734
  store %struct.v4int32 %1, %struct.v4int32* %0, align 16, !dbg !1734
  %2 = load %"class.aie::detail::vector", %"class.aie::detail::vector"* %retval, align 16, !dbg !1735
  ret %"class.aie::detail::vector" %2, !dbg !1735
}

; Function Attrs: argmemonly nounwind speculatable willreturn
declare %struct.input_stream.0* @llvm.noalias.p0s_struct.input_streams.p0i8.p0p0s_struct.input_streams.i32(%struct.input_stream.0*, i8*, %struct.input_stream.0**, i32, metadata) addrspace(1) #16

; Function Attrs: argmemonly nounwind speculatable willreturn
declare %struct.input_stream.0* @llvm.noalias.p0s_struct.input_stream.0s.p0i8.p0p0s_struct.input_stream.0s.i32(%struct.input_stream.0*, i8*, %struct.input_stream.0**, i32, metadata) addrspace(1) #16

; Function Attrs: nounwind mustprogress
define linkonce_odr dso_local %"class.aie::detail::vector" @_Z10readincr_vILj4EL22aie_stream_resource_in0EiEN3aie6detail6vectorIT1_XT_EEEP12input_streamIS4_E(%struct.input_stream.0* %w) addrspace(1) #15 comdat !dbg !1736 {
entry:
  %retval = alloca %"class.aie::detail::vector", align 16
  %w.addr = alloca %struct.input_stream.0*, align 4
  store %struct.input_stream.0* %w, %struct.input_stream.0** %w.addr, align 4, !tbaa !1383
  call addrspace(1) void @llvm.dbg.declare(metadata %struct.input_stream.0** %w.addr, metadata !1740, metadata !DIExpression()), !dbg !1742
  %0 = load %struct.input_stream.0*, %struct.input_stream.0** %w.addr, align 4, !dbg !1743, !tbaa !1383
  %call = call addrspace(1) %"class.aie::detail::vector" @_ZN3aie6detail3adf16stream_in_helperILj4EiL22aie_stream_resource_in0EE8readincrEP12input_streamIiE(%struct.input_stream.0* %0) #28, !dbg !1744
  %1 = getelementptr inbounds %"class.aie::detail::vector", %"class.aie::detail::vector"* %retval, i32 0, i32 0, !dbg !1744
  %2 = extractvalue %"class.aie::detail::vector" %call, 0, !dbg !1744
  store %struct.v4int32 %2, %struct.v4int32* %1, align 16, !dbg !1744
  %3 = load %"class.aie::detail::vector", %"class.aie::detail::vector"* %retval, align 16, !dbg !1745
  ret %"class.aie::detail::vector" %3, !dbg !1745
}

; Function Attrs: alwaysinline nounwind mustprogress
define linkonce_odr dso_local %"class.aie::detail::vector_elem_ref" @_ZN3aie6detail6vectorIiLj4EEixEj(%"class.aie::detail::vector"* nonnull dereferenceable(16) %this, i32 %idx) addrspace(1) #9 comdat align 2 !dbg !1746 {
entry:
  %retval = alloca %"class.aie::detail::vector_elem_ref", align 4
  %this.addr = alloca %"class.aie::detail::vector"*, align 4
  %idx.addr = alloca i32, align 4
  store %"class.aie::detail::vector"* %this, %"class.aie::detail::vector"** %this.addr, align 4, !tbaa !1383
  call addrspace(1) void @llvm.dbg.declare(metadata %"class.aie::detail::vector"** %this.addr, metadata !1748, metadata !DIExpression()), !dbg !1751
  store i32 %idx, i32* %idx.addr, align 4, !tbaa !1334
  call addrspace(1) void @llvm.dbg.declare(metadata i32* %idx.addr, metadata !1750, metadata !DIExpression()), !dbg !1752
  %this1 = load %"class.aie::detail::vector"*, %"class.aie::detail::vector"** %this.addr, align 4
  %0 = load i32, i32* %idx.addr, align 4, !dbg !1753, !tbaa !1334
  %cmp = icmp ult i32 %0, 4, !dbg !1753
  %1 = call addrspace(1) i1 @llvm.is.constant.i1(i1 %cmp), !dbg !1753
  br i1 %1, label %if.then, label %if.end4, !dbg !1755

if.then:                                          ; preds = %entry
  br label %do.body, !dbg !1756

do.body:                                          ; preds = %if.then
  %2 = load i32, i32* %idx.addr, align 4, !dbg !1758, !tbaa !1334
  %cmp2 = icmp ult i32 %2, 4, !dbg !1758
  %3 = call addrspace(1) i1 @llvm.chess_manifest(i1 %cmp2), !dbg !1758
  br i1 %3, label %if.end, label %if.then3, !dbg !1761

if.then3:                                         ; preds = %do.body
  call addrspace(1) void @llvm.chess_error(metadata !1762), !dbg !1758
  br label %if.end, !dbg !1758

if.end:                                           ; preds = %if.then3, %do.body
  br label %do.end, !dbg !1761

do.end:                                           ; preds = %if.end
  br label %if.end4, !dbg !1756

if.end4:                                          ; preds = %do.end, %entry
  %4 = load i32, i32* %idx.addr, align 4, !dbg !1755, !tbaa !1334
  %cmp5 = icmp ult i32 %4, 4, !dbg !1755
  call addrspace(1) void @llvm.assume(i1 %cmp5), !dbg !1755
  %5 = load i32, i32* %idx.addr, align 4, !dbg !1763, !tbaa !1334
  %call = call addrspace(1) %"class.aie::detail::vector_elem_ref" @_ZN3aie6detail6vectorIiLj4EE8elem_refEj(%"class.aie::detail::vector"* nonnull dereferenceable(16) %this1, i32 %5) #28, !dbg !1764
  %6 = getelementptr inbounds %"class.aie::detail::vector_elem_ref", %"class.aie::detail::vector_elem_ref"* %retval, i32 0, i32 0, !dbg !1764
  %7 = extractvalue %"class.aie::detail::vector_elem_ref" %call, 0, !dbg !1764
  store %"class.aie::detail::vector"* %7, %"class.aie::detail::vector"** %6, align 4, !dbg !1764
  %8 = getelementptr inbounds %"class.aie::detail::vector_elem_ref", %"class.aie::detail::vector_elem_ref"* %retval, i32 0, i32 1, !dbg !1764
  %9 = extractvalue %"class.aie::detail::vector_elem_ref" %call, 1, !dbg !1764
  store i32 %9, i32* %8, align 4, !dbg !1764
  %10 = load %"class.aie::detail::vector_elem_ref", %"class.aie::detail::vector_elem_ref"* %retval, align 4, !dbg !1765
  ret %"class.aie::detail::vector_elem_ref" %10, !dbg !1765
}

; Function Attrs: nounwind mustprogress
define linkonce_odr dso_local i32 @_ZNK3aie6detail15vector_elem_refIiLj4EEcviEv(%"class.aie::detail::vector_elem_ref"* nonnull dereferenceable(8) %this) addrspace(1) #15 comdat align 2 !dbg !1766 {
entry:
  %this.addr = alloca %"class.aie::detail::vector_elem_ref"*, align 4
  store %"class.aie::detail::vector_elem_ref"* %this, %"class.aie::detail::vector_elem_ref"** %this.addr, align 4, !tbaa !1383
  call addrspace(1) void @llvm.dbg.declare(metadata %"class.aie::detail::vector_elem_ref"** %this.addr, metadata !1768, metadata !DIExpression()), !dbg !1770
  %this1 = load %"class.aie::detail::vector_elem_ref"*, %"class.aie::detail::vector_elem_ref"** %this.addr, align 4
  %call = call addrspace(1) i32 @_ZNK3aie6detail15vector_elem_refIiLj4EE3getEv(%"class.aie::detail::vector_elem_ref"* nonnull dereferenceable(8) %this1) #28, !dbg !1771
  ret i32 %call, !dbg !1772
}

; Function Attrs: nounwind
define linkonce_odr dso_local void @_ZN7ClusterC2Ev(%class.Cluster* nonnull dereferenceable(20) %this) unnamed_addr addrspace(1) #6 comdat align 2 !dbg !1773 {
entry:
  %this.addr = alloca %class.Cluster*, align 4
  store %class.Cluster* %this, %class.Cluster** %this.addr, align 4, !tbaa !1383
  call addrspace(1) void @llvm.dbg.declare(metadata %class.Cluster** %this.addr, metadata !1775, metadata !DIExpression()), !dbg !1777
  %this1 = load %class.Cluster*, %class.Cluster** %this.addr, align 4
  %x = getelementptr inbounds %class.Cluster, %class.Cluster* %this1, i32 0, i32 0, !dbg !1778
  store i32 0, i32* %x, align 4, !dbg !1780, !tbaa !1781
  %y = getelementptr inbounds %class.Cluster, %class.Cluster* %this1, i32 0, i32 1, !dbg !1782
  store i32 0, i32* %y, align 4, !dbg !1783, !tbaa !1784
  %numPoints = getelementptr inbounds %class.Cluster, %class.Cluster* %this1, i32 0, i32 2, !dbg !1785
  store i32 0, i32* %numPoints, align 4, !dbg !1786, !tbaa !1787
  %x_accum = getelementptr inbounds %class.Cluster, %class.Cluster* %this1, i32 0, i32 3, !dbg !1788
  store i32 0, i32* %x_accum, align 4, !dbg !1789, !tbaa !1790
  %y_accum = getelementptr inbounds %class.Cluster, %class.Cluster* %this1, i32 0, i32 4, !dbg !1791
  store i32 0, i32* %y_accum, align 4, !dbg !1792, !tbaa !1793
  ret void, !dbg !1794
}

; Function Attrs: nounwind
define linkonce_odr dso_local void @_ZN5PointC2Ev(%class.Point* nonnull dereferenceable(12) %this) unnamed_addr addrspace(1) #6 comdat align 2 !dbg !1795 {
entry:
  %this.addr = alloca %class.Point*, align 4
  store %class.Point* %this, %class.Point** %this.addr, align 4, !tbaa !1383
  call addrspace(1) void @llvm.dbg.declare(metadata %class.Point** %this.addr, metadata !1797, metadata !DIExpression()), !dbg !1799
  %this1 = load %class.Point*, %class.Point** %this.addr, align 4
  %x = getelementptr inbounds %class.Point, %class.Point* %this1, i32 0, i32 1, !dbg !1800
  store i32 0, i32* %x, align 4, !dbg !1802, !tbaa !1803
  %y = getelementptr inbounds %class.Point, %class.Point* %this1, i32 0, i32 2, !dbg !1804
  store i32 0, i32* %y, align 4, !dbg !1805, !tbaa !1806
  %clusterId = getelementptr inbounds %class.Point, %class.Point* %this1, i32 0, i32 0, !dbg !1807
  store i32 -1, i32* %clusterId, align 4, !dbg !1808, !tbaa !1809
  ret void, !dbg !1810
}

; Function Attrs: nounwind
define linkonce_odr dso_local void @_ZN5PointC2Eii(%class.Point* nonnull dereferenceable(12) %this, i32 %x, i32 %y) unnamed_addr addrspace(1) #6 comdat align 2 !dbg !1811 {
entry:
  %this.addr = alloca %class.Point*, align 4
  %x.addr = alloca i32, align 4
  %y.addr = alloca i32, align 4
  store %class.Point* %this, %class.Point** %this.addr, align 4, !tbaa !1383
  call addrspace(1) void @llvm.dbg.declare(metadata %class.Point** %this.addr, metadata !1813, metadata !DIExpression()), !dbg !1816
  store i32 %x, i32* %x.addr, align 4, !tbaa !1334
  call addrspace(1) void @llvm.dbg.declare(metadata i32* %x.addr, metadata !1814, metadata !DIExpression()), !dbg !1817
  store i32 %y, i32* %y.addr, align 4, !tbaa !1334
  call addrspace(1) void @llvm.dbg.declare(metadata i32* %y.addr, metadata !1815, metadata !DIExpression()), !dbg !1818
  %this1 = load %class.Point*, %class.Point** %this.addr, align 4
  %0 = load i32, i32* %x.addr, align 4, !dbg !1819, !tbaa !1334
  %x2 = getelementptr inbounds %class.Point, %class.Point* %this1, i32 0, i32 1, !dbg !1821
  store i32 %0, i32* %x2, align 4, !dbg !1822, !tbaa !1803
  %1 = load i32, i32* %y.addr, align 4, !dbg !1823, !tbaa !1334
  %y3 = getelementptr inbounds %class.Point, %class.Point* %this1, i32 0, i32 2, !dbg !1824
  store i32 %1, i32* %y3, align 4, !dbg !1825, !tbaa !1806
  %clusterId = getelementptr inbounds %class.Point, %class.Point* %this1, i32 0, i32 0, !dbg !1826
  store i32 -1, i32* %clusterId, align 4, !dbg !1827, !tbaa !1809
  ret void, !dbg !1828
}

; Function Attrs: nounwind
define linkonce_odr dso_local void @_ZN7ClusterC2Eii(%class.Cluster* nonnull dereferenceable(20) %this, i32 %x, i32 %y) unnamed_addr addrspace(1) #6 comdat align 2 !dbg !1829 {
entry:
  %this.addr = alloca %class.Cluster*, align 4
  %x.addr = alloca i32, align 4
  %y.addr = alloca i32, align 4
  store %class.Cluster* %this, %class.Cluster** %this.addr, align 4, !tbaa !1383
  call addrspace(1) void @llvm.dbg.declare(metadata %class.Cluster** %this.addr, metadata !1831, metadata !DIExpression()), !dbg !1834
  store i32 %x, i32* %x.addr, align 4, !tbaa !1334
  call addrspace(1) void @llvm.dbg.declare(metadata i32* %x.addr, metadata !1832, metadata !DIExpression()), !dbg !1835
  store i32 %y, i32* %y.addr, align 4, !tbaa !1334
  call addrspace(1) void @llvm.dbg.declare(metadata i32* %y.addr, metadata !1833, metadata !DIExpression()), !dbg !1836
  %this1 = load %class.Cluster*, %class.Cluster** %this.addr, align 4
  %0 = load i32, i32* %x.addr, align 4, !dbg !1837, !tbaa !1334
  %x2 = getelementptr inbounds %class.Cluster, %class.Cluster* %this1, i32 0, i32 0, !dbg !1839
  store i32 %0, i32* %x2, align 4, !dbg !1840, !tbaa !1781
  %1 = load i32, i32* %y.addr, align 4, !dbg !1841, !tbaa !1334
  %y3 = getelementptr inbounds %class.Cluster, %class.Cluster* %this1, i32 0, i32 1, !dbg !1842
  store i32 %1, i32* %y3, align 4, !dbg !1843, !tbaa !1784
  %numPoints = getelementptr inbounds %class.Cluster, %class.Cluster* %this1, i32 0, i32 2, !dbg !1844
  store i32 0, i32* %numPoints, align 4, !dbg !1845, !tbaa !1787
  %x_accum = getelementptr inbounds %class.Cluster, %class.Cluster* %this1, i32 0, i32 3, !dbg !1846
  store i32 0, i32* %x_accum, align 4, !dbg !1847, !tbaa !1790
  %y_accum = getelementptr inbounds %class.Cluster, %class.Cluster* %this1, i32 0, i32 4, !dbg !1848
  store i32 0, i32* %y_accum, align 4, !dbg !1849, !tbaa !1793
  ret void, !dbg !1850
}

; Function Attrs: alwaysinline nounwind mustprogress
define linkonce_odr dso_local %"class.aie::detail::vector.1" @_ZN3aie5zerosIiLj8EEENS_6detail6vectorIT_XT0_EEEv() addrspace(1) #9 comdat !dbg !1851 {
entry:
  %retval = alloca %"class.aie::detail::vector.1", align 32
  %call = call addrspace(1) %"class.aie::detail::vector.1" @_ZN3aie6detail5zerosIiLj8EEENS0_6vectorIT_XT0_EEEv() #28, !dbg !1854
  %0 = getelementptr inbounds %"class.aie::detail::vector.1", %"class.aie::detail::vector.1"* %retval, i32 0, i32 0, !dbg !1854
  %1 = extractvalue %"class.aie::detail::vector.1" %call, 0, !dbg !1854
  store %struct.v8int32 %1, %struct.v8int32* %0, align 32, !dbg !1854
  %2 = load %"class.aie::detail::vector.1", %"class.aie::detail::vector.1"* %retval, align 32, !dbg !1855
  ret %"class.aie::detail::vector.1" %2, !dbg !1855
}

; Function Attrs: nounwind mustprogress
define dso_local %"class.aie::detail::vector.1" @_Z18euclidean_distanceP7Clusteri5Point(%class.Cluster* %clusters, i32 %num_clusters, %class.Point %point.coerce) addrspace(1) #15 !dbg !1856 {
entry:
  %retval = alloca %"class.aie::detail::vector.1", align 32
  %point = alloca %class.Point, align 4
  %clusters.addr = alloca %class.Cluster*, align 4
  %num_clusters.addr = alloca i32, align 4
  %clusters_coords = alloca %"class.aie::detail::vector.1", align 32
  %diff = alloca %"class.aie::detail::vector.1", align 32
  %dist_x = alloca %"class.aie::detail::accum", align 32
  %dist_y = alloca %"class.aie::detail::accum", align 32
  %i = alloca i32, align 4
  %ref.tmp = alloca i32, align 4
  %ref.tmp5 = alloca %"class.aie::detail::vector_elem_ref.2", align 4
  %tmp = alloca %"class.aie::detail::vector.1", align 32
  %tmp10 = alloca %"class.aie::detail::accum", align 32
  %ref.tmp15 = alloca i32, align 4
  %ref.tmp18 = alloca %"class.aie::detail::vector_elem_ref.2", align 4
  %tmp24 = alloca %"class.aie::detail::vector.1", align 32
  %tmp27 = alloca %"class.aie::detail::accum", align 32
  %ref.tmp29 = alloca %"class.aie::detail::vector.1", align 32
  %ref.tmp31 = alloca %"class.aie::detail::vector.1", align 32
  store %class.Point %point.coerce, %class.Point* %point, align 4
  store %class.Cluster* %clusters, %class.Cluster** %clusters.addr, align 4, !tbaa !1383
  call addrspace(1) void @llvm.dbg.declare(metadata %class.Cluster** %clusters.addr, metadata !1860, metadata !DIExpression()), !dbg !2146
  store i32 %num_clusters, i32* %num_clusters.addr, align 4, !tbaa !1334
  call addrspace(1) void @llvm.dbg.declare(metadata i32* %num_clusters.addr, metadata !1861, metadata !DIExpression()), !dbg !2147
  call addrspace(1) void @llvm.dbg.declare(metadata %class.Point* %point, metadata !1862, metadata !DIExpression()), !dbg !2148
  store %"class.aie::detail::vector.1" undef, %"class.aie::detail::vector.1"* %clusters_coords, align 32, !dbg !2149
  %0 = bitcast %"class.aie::detail::vector.1"* %clusters_coords to i8*, !dbg !2149
  call addrspace(1) void @llvm.lifetime.start.p0i8(i64 32, i8* %0) #27, !dbg !2149
  call addrspace(1) void @llvm.dbg.declare(metadata %"class.aie::detail::vector.1"* %clusters_coords, metadata !1863, metadata !DIExpression()), !dbg !2150
  %call = call addrspace(1) %"class.aie::detail::vector.1" @_ZN3aie5zerosIiLj8EEENS_6detail6vectorIT_XT0_EEEv() #28, !dbg !2151
  %1 = getelementptr inbounds %"class.aie::detail::vector.1", %"class.aie::detail::vector.1"* %clusters_coords, i32 0, i32 0, !dbg !2151
  %2 = extractvalue %"class.aie::detail::vector.1" %call, 0, !dbg !2151
  store %struct.v8int32 %2, %struct.v8int32* %1, align 32, !dbg !2151
  store %"class.aie::detail::vector.1" undef, %"class.aie::detail::vector.1"* %diff, align 32, !dbg !2152
  %3 = bitcast %"class.aie::detail::vector.1"* %diff to i8*, !dbg !2152
  call addrspace(1) void @llvm.lifetime.start.p0i8(i64 32, i8* %3) #27, !dbg !2152
  call addrspace(1) void @llvm.dbg.declare(metadata %"class.aie::detail::vector.1"* %diff, metadata !1864, metadata !DIExpression()), !dbg !2153
  %call1 = call addrspace(1) %"class.aie::detail::vector.1" @_ZN3aie5zerosIiLj8EEENS_6detail6vectorIT_XT0_EEEv() #28, !dbg !2154
  %4 = getelementptr inbounds %"class.aie::detail::vector.1", %"class.aie::detail::vector.1"* %diff, i32 0, i32 0, !dbg !2154
  %5 = extractvalue %"class.aie::detail::vector.1" %call1, 0, !dbg !2154
  store %struct.v8int32 %5, %struct.v8int32* %4, align 32, !dbg !2154
  store %"class.aie::detail::accum" undef, %"class.aie::detail::accum"* %dist_x, align 32, !dbg !2155
  %6 = bitcast %"class.aie::detail::accum"* %dist_x to i8*, !dbg !2155
  call addrspace(1) void @llvm.lifetime.start.p0i8(i64 128, i8* %6) #27, !dbg !2155
  call addrspace(1) void @llvm.dbg.declare(metadata %"class.aie::detail::accum"* %dist_x, metadata !1865, metadata !DIExpression()), !dbg !2156
  %call2 = call addrspace(1) %"class.aie::detail::accum" @_ZN3aie5zerosI5acc64Lj8EEENS_6detail5accumIXsr6detailE21accum_class_for_tag_vIT_EEXsr6detailE20accum_bits_for_tag_vIS4_EEXT0_EEEv() #28, !dbg !2157
  %7 = getelementptr inbounds %"class.aie::detail::accum", %"class.aie::detail::accum"* %dist_x, i32 0, i32 0, !dbg !2157
  %8 = extractvalue %"class.aie::detail::accum" %call2, 0, !dbg !2157
  store %struct.v8acc80 %8, %struct.v8acc80* %7, align 32, !dbg !2157
  store %"class.aie::detail::accum" undef, %"class.aie::detail::accum"* %dist_y, align 32, !dbg !2158
  %9 = bitcast %"class.aie::detail::accum"* %dist_y to i8*, !dbg !2158
  call addrspace(1) void @llvm.lifetime.start.p0i8(i64 128, i8* %9) #27, !dbg !2158
  call addrspace(1) void @llvm.dbg.declare(metadata %"class.aie::detail::accum"* %dist_y, metadata !2143, metadata !DIExpression()), !dbg !2159
  %call3 = call addrspace(1) %"class.aie::detail::accum" @_ZN3aie5zerosI5acc64Lj8EEENS_6detail5accumIXsr6detailE21accum_class_for_tag_vIT_EEXsr6detailE20accum_bits_for_tag_vIS4_EEXT0_EEEv() #28, !dbg !2160
  %10 = getelementptr inbounds %"class.aie::detail::accum", %"class.aie::detail::accum"* %dist_y, i32 0, i32 0, !dbg !2160
  %11 = extractvalue %"class.aie::detail::accum" %call3, 0, !dbg !2160
  store %struct.v8acc80 %11, %struct.v8acc80* %10, align 32, !dbg !2160
  store i32 undef, i32* %i, align 4, !dbg !2161
  %12 = bitcast i32* %i to i8*, !dbg !2161
  call addrspace(1) void @llvm.lifetime.start.p0i8(i64 4, i8* %12) #27, !dbg !2161
  call addrspace(1) void @llvm.dbg.declare(metadata i32* %i, metadata !2144, metadata !DIExpression()), !dbg !2162
  store i32 0, i32* %i, align 4, !dbg !2162, !tbaa !1334
  store i32 0, i32* %i, align 4, !dbg !2163, !tbaa !1334
  br label %for.cond, !dbg !2165

for.cond:                                         ; preds = %for.inc, %entry
  %13 = load i32, i32* %i, align 4, !dbg !2166, !tbaa !1334
  %14 = load i32, i32* %num_clusters.addr, align 4, !dbg !2168, !tbaa !1334
  %cmp = icmp slt i32 %13, %14, !dbg !2169
  br i1 %cmp, label %for.body, label %for.end, !dbg !2170

for.body:                                         ; preds = %for.cond
  %15 = bitcast i32* %ref.tmp to i8*, !dbg !2171
  call addrspace(1) void @llvm.lifetime.start.p0i8(i64 4, i8* %15) #27, !dbg !2171
  %16 = load %class.Cluster*, %class.Cluster** %clusters.addr, align 4, !dbg !2171, !tbaa !1383
  %17 = load i32, i32* %i, align 4, !dbg !2173, !tbaa !1334
  %arrayidx = getelementptr inbounds %class.Cluster, %class.Cluster* %16, i32 %17, !dbg !2171
  %call4 = call addrspace(1) i32 @_ZN7Cluster4getXEv(%class.Cluster* nonnull dereferenceable(20) %arrayidx) #28, !dbg !2174
  store i32 %call4, i32* %ref.tmp, align 4, !dbg !2171, !tbaa !1334
  %18 = bitcast %"class.aie::detail::vector_elem_ref.2"* %ref.tmp5 to i8*, !dbg !2175
  call addrspace(1) void @llvm.lifetime.start.p0i8(i64 8, i8* %18) #27, !dbg !2175
  %19 = load i32, i32* %i, align 4, !dbg !2176, !tbaa !1334
  %call6 = call addrspace(1) %"class.aie::detail::vector_elem_ref.2" @_ZN3aie6detail6vectorIiLj8EEixEj(%"class.aie::detail::vector.1"* nonnull dereferenceable(32) %clusters_coords, i32 %19) #28, !dbg !2175
  %20 = getelementptr inbounds %"class.aie::detail::vector_elem_ref.2", %"class.aie::detail::vector_elem_ref.2"* %ref.tmp5, i32 0, i32 0, !dbg !2175
  %21 = extractvalue %"class.aie::detail::vector_elem_ref.2" %call6, 0, !dbg !2175
  store %"class.aie::detail::vector.1"* %21, %"class.aie::detail::vector.1"** %20, align 4, !dbg !2175
  %22 = getelementptr inbounds %"class.aie::detail::vector_elem_ref.2", %"class.aie::detail::vector_elem_ref.2"* %ref.tmp5, i32 0, i32 1, !dbg !2175
  %23 = extractvalue %"class.aie::detail::vector_elem_ref.2" %call6, 1, !dbg !2175
  store i32 %23, i32* %22, align 4, !dbg !2175
  %call7 = call nonnull align 4 dereferenceable(8) addrspace(1) %"class.aie::detail::vector_elem_ref.2"* @_ZN3aie6detail15vector_elem_refIiLj8EEaSERKi(%"class.aie::detail::vector_elem_ref.2"* nonnull dereferenceable(8) %ref.tmp5, i32* nonnull align 4 dereferenceable(4) %ref.tmp) #28, !dbg !2177
  %24 = bitcast %"class.aie::detail::vector_elem_ref.2"* %ref.tmp5 to i8*, !dbg !2175
  call addrspace(1) void @llvm.lifetime.end.p0i8(i64 8, i8* %24) #27, !dbg !2175
  %25 = bitcast i32* %ref.tmp to i8*, !dbg !2175
  call addrspace(1) void @llvm.lifetime.end.p0i8(i64 4, i8* %25) #27, !dbg !2175
  br label %for.inc, !dbg !2178

for.inc:                                          ; preds = %for.body
  %26 = load i32, i32* %i, align 4, !dbg !2179, !tbaa !1334
  %inc = add nsw i32 %26, 1, !dbg !2179
  store i32 %inc, i32* %i, align 4, !dbg !2179, !tbaa !1334
  br label %for.cond, !dbg !2180, !llvm.loop !2181

for.end:                                          ; preds = %for.cond
  %27 = bitcast %"class.aie::detail::vector.1"* %tmp to i8*, !dbg !2183
  call addrspace(1) void @llvm.lifetime.start.p0i8(i64 32, i8* %27) #27, !dbg !2183
  %call8 = call addrspace(1) i32 @_ZN5Point4getXEv(%class.Point* nonnull dereferenceable(12) %point) #28, !dbg !2184
  %call9 = call addrspace(1) %"class.aie::detail::vector.1" @_ZN3aie3subINS_6detail6vectorIiLj8EEEiEEN22aie_dm_resource_removeIT_E4typeERKS5_T0_(%"class.aie::detail::vector.1"* nonnull align 32 dereferenceable(32) %clusters_coords, i32 %call8) #28, !dbg !2183
  %28 = getelementptr inbounds %"class.aie::detail::vector.1", %"class.aie::detail::vector.1"* %tmp, i32 0, i32 0, !dbg !2183
  %29 = extractvalue %"class.aie::detail::vector.1" %call9, 0, !dbg !2183
  store %struct.v8int32 %29, %struct.v8int32* %28, align 32, !dbg !2183
  %30 = load %"class.aie::detail::vector.1", %"class.aie::detail::vector.1"* %tmp, align 32, !dbg !2183, !tbaa !1591
  store %"class.aie::detail::vector.1" %30, %"class.aie::detail::vector.1"* %diff, align 32, !dbg !2183, !tbaa !1591
  %31 = bitcast %"class.aie::detail::vector.1"* %tmp to i8*, !dbg !2183
  call addrspace(1) void @llvm.lifetime.end.p0i8(i64 32, i8* %31) #27, !dbg !2183
  %32 = bitcast %"class.aie::detail::accum"* %tmp10 to i8*, !dbg !2185
  call addrspace(1) void @llvm.lifetime.start.p0i8(i64 128, i8* %32) #27, !dbg !2185
  %call11 = call addrspace(1) %"class.aie::detail::accum" @_ZN3aie3mulINS_6detail6vectorIiLj8EEES3_EEDaRKT_RKT0_(%"class.aie::detail::vector.1"* nonnull align 32 dereferenceable(32) %diff, %"class.aie::detail::vector.1"* nonnull align 32 dereferenceable(32) %diff) #28, !dbg !2185
  %33 = getelementptr inbounds %"class.aie::detail::accum", %"class.aie::detail::accum"* %tmp10, i32 0, i32 0, !dbg !2185
  %34 = extractvalue %"class.aie::detail::accum" %call11, 0, !dbg !2185
  store %struct.v8acc80 %34, %struct.v8acc80* %33, align 32, !dbg !2185
  %35 = load %"class.aie::detail::accum", %"class.aie::detail::accum"* %tmp10, align 32, !dbg !2185, !tbaa !2186
  store %"class.aie::detail::accum" %35, %"class.aie::detail::accum"* %dist_x, align 32, !dbg !2185, !tbaa !2186
  %36 = bitcast %"class.aie::detail::accum"* %tmp10 to i8*, !dbg !2185
  call addrspace(1) void @llvm.lifetime.end.p0i8(i64 128, i8* %36) #27, !dbg !2185
  store i32 0, i32* %i, align 4, !dbg !2189, !tbaa !1334
  br label %for.cond12, !dbg !2191

for.cond12:                                       ; preds = %for.inc21, %for.end
  %37 = load i32, i32* %i, align 4, !dbg !2192, !tbaa !1334
  %38 = load i32, i32* %num_clusters.addr, align 4, !dbg !2194, !tbaa !1334
  %cmp13 = icmp slt i32 %37, %38, !dbg !2195
  br i1 %cmp13, label %for.body14, label %for.end23, !dbg !2196

for.body14:                                       ; preds = %for.cond12
  %39 = bitcast i32* %ref.tmp15 to i8*, !dbg !2197
  call addrspace(1) void @llvm.lifetime.start.p0i8(i64 4, i8* %39) #27, !dbg !2197
  %40 = load %class.Cluster*, %class.Cluster** %clusters.addr, align 4, !dbg !2197, !tbaa !1383
  %41 = load i32, i32* %i, align 4, !dbg !2199, !tbaa !1334
  %arrayidx16 = getelementptr inbounds %class.Cluster, %class.Cluster* %40, i32 %41, !dbg !2197
  %call17 = call addrspace(1) i32 @_ZN7Cluster4getYEv(%class.Cluster* nonnull dereferenceable(20) %arrayidx16) #28, !dbg !2200
  store i32 %call17, i32* %ref.tmp15, align 4, !dbg !2197, !tbaa !1334
  %42 = bitcast %"class.aie::detail::vector_elem_ref.2"* %ref.tmp18 to i8*, !dbg !2201
  call addrspace(1) void @llvm.lifetime.start.p0i8(i64 8, i8* %42) #27, !dbg !2201
  %43 = load i32, i32* %i, align 4, !dbg !2202, !tbaa !1334
  %call19 = call addrspace(1) %"class.aie::detail::vector_elem_ref.2" @_ZN3aie6detail6vectorIiLj8EEixEj(%"class.aie::detail::vector.1"* nonnull dereferenceable(32) %clusters_coords, i32 %43) #28, !dbg !2201
  %44 = getelementptr inbounds %"class.aie::detail::vector_elem_ref.2", %"class.aie::detail::vector_elem_ref.2"* %ref.tmp18, i32 0, i32 0, !dbg !2201
  %45 = extractvalue %"class.aie::detail::vector_elem_ref.2" %call19, 0, !dbg !2201
  store %"class.aie::detail::vector.1"* %45, %"class.aie::detail::vector.1"** %44, align 4, !dbg !2201
  %46 = getelementptr inbounds %"class.aie::detail::vector_elem_ref.2", %"class.aie::detail::vector_elem_ref.2"* %ref.tmp18, i32 0, i32 1, !dbg !2201
  %47 = extractvalue %"class.aie::detail::vector_elem_ref.2" %call19, 1, !dbg !2201
  store i32 %47, i32* %46, align 4, !dbg !2201
  %call20 = call nonnull align 4 dereferenceable(8) addrspace(1) %"class.aie::detail::vector_elem_ref.2"* @_ZN3aie6detail15vector_elem_refIiLj8EEaSERKi(%"class.aie::detail::vector_elem_ref.2"* nonnull dereferenceable(8) %ref.tmp18, i32* nonnull align 4 dereferenceable(4) %ref.tmp15) #28, !dbg !2203
  %48 = bitcast %"class.aie::detail::vector_elem_ref.2"* %ref.tmp18 to i8*, !dbg !2201
  call addrspace(1) void @llvm.lifetime.end.p0i8(i64 8, i8* %48) #27, !dbg !2201
  %49 = bitcast i32* %ref.tmp15 to i8*, !dbg !2201
  call addrspace(1) void @llvm.lifetime.end.p0i8(i64 4, i8* %49) #27, !dbg !2201
  br label %for.inc21, !dbg !2204

for.inc21:                                        ; preds = %for.body14
  %50 = load i32, i32* %i, align 4, !dbg !2205, !tbaa !1334
  %inc22 = add nsw i32 %50, 1, !dbg !2205
  store i32 %inc22, i32* %i, align 4, !dbg !2205, !tbaa !1334
  br label %for.cond12, !dbg !2206, !llvm.loop !2207

for.end23:                                        ; preds = %for.cond12
  %51 = bitcast %"class.aie::detail::vector.1"* %tmp24 to i8*, !dbg !2209
  call addrspace(1) void @llvm.lifetime.start.p0i8(i64 32, i8* %51) #27, !dbg !2209
  %call25 = call addrspace(1) i32 @_ZN5Point4getYEv(%class.Point* nonnull dereferenceable(12) %point) #28, !dbg !2210
  %call26 = call addrspace(1) %"class.aie::detail::vector.1" @_ZN3aie3subINS_6detail6vectorIiLj8EEEiEEN22aie_dm_resource_removeIT_E4typeERKS5_T0_(%"class.aie::detail::vector.1"* nonnull align 32 dereferenceable(32) %clusters_coords, i32 %call25) #28, !dbg !2209
  %52 = getelementptr inbounds %"class.aie::detail::vector.1", %"class.aie::detail::vector.1"* %tmp24, i32 0, i32 0, !dbg !2209
  %53 = extractvalue %"class.aie::detail::vector.1" %call26, 0, !dbg !2209
  store %struct.v8int32 %53, %struct.v8int32* %52, align 32, !dbg !2209
  %54 = load %"class.aie::detail::vector.1", %"class.aie::detail::vector.1"* %tmp24, align 32, !dbg !2209, !tbaa !1591
  store %"class.aie::detail::vector.1" %54, %"class.aie::detail::vector.1"* %diff, align 32, !dbg !2209, !tbaa !1591
  %55 = bitcast %"class.aie::detail::vector.1"* %tmp24 to i8*, !dbg !2209
  call addrspace(1) void @llvm.lifetime.end.p0i8(i64 32, i8* %55) #27, !dbg !2209
  %56 = bitcast %"class.aie::detail::accum"* %tmp27 to i8*, !dbg !2211
  call addrspace(1) void @llvm.lifetime.start.p0i8(i64 128, i8* %56) #27, !dbg !2211
  %call28 = call addrspace(1) %"class.aie::detail::accum" @_ZN3aie3mulINS_6detail6vectorIiLj8EEES3_EEDaRKT_RKT0_(%"class.aie::detail::vector.1"* nonnull align 32 dereferenceable(32) %diff, %"class.aie::detail::vector.1"* nonnull align 32 dereferenceable(32) %diff) #28, !dbg !2211
  %57 = getelementptr inbounds %"class.aie::detail::accum", %"class.aie::detail::accum"* %tmp27, i32 0, i32 0, !dbg !2211
  %58 = extractvalue %"class.aie::detail::accum" %call28, 0, !dbg !2211
  store %struct.v8acc80 %58, %struct.v8acc80* %57, align 32, !dbg !2211
  %59 = load %"class.aie::detail::accum", %"class.aie::detail::accum"* %tmp27, align 32, !dbg !2211, !tbaa !2186
  store %"class.aie::detail::accum" %59, %"class.aie::detail::accum"* %dist_y, align 32, !dbg !2211, !tbaa !2186
  %60 = bitcast %"class.aie::detail::accum"* %tmp27 to i8*, !dbg !2211
  call addrspace(1) void @llvm.lifetime.end.p0i8(i64 128, i8* %60) #27, !dbg !2211
  call addrspace(1) void @llvm.dbg.declare(metadata %"class.aie::detail::vector.1"* %retval, metadata !2145, metadata !DIExpression()), !dbg !2212
  %61 = bitcast %"class.aie::detail::vector.1"* %ref.tmp29 to i8*, !dbg !2213
  call addrspace(1) void @llvm.lifetime.start.p0i8(i64 32, i8* %61) #27, !dbg !2213
  %call30 = call addrspace(1) %"class.aie::detail::vector.1" @_ZNK3aie6detail5accumILNS0_10AccumClassE0ELj64ELj8EE9to_vectorIiEENS0_6vectorIT_Lj8EEEi(%"class.aie::detail::accum"* nonnull dereferenceable(128) %dist_x, i32 0) #28, !dbg !2214
  %62 = getelementptr inbounds %"class.aie::detail::vector.1", %"class.aie::detail::vector.1"* %ref.tmp29, i32 0, i32 0, !dbg !2214
  %63 = extractvalue %"class.aie::detail::vector.1" %call30, 0, !dbg !2214
  store %struct.v8int32 %63, %struct.v8int32* %62, align 32, !dbg !2214
  %64 = bitcast %"class.aie::detail::vector.1"* %ref.tmp31 to i8*, !dbg !2215
  call addrspace(1) void @llvm.lifetime.start.p0i8(i64 32, i8* %64) #27, !dbg !2215
  %call32 = call addrspace(1) %"class.aie::detail::vector.1" @_ZNK3aie6detail5accumILNS0_10AccumClassE0ELj64ELj8EE9to_vectorIiEENS0_6vectorIT_Lj8EEEi(%"class.aie::detail::accum"* nonnull dereferenceable(128) %dist_y, i32 0) #28, !dbg !2216
  %65 = getelementptr inbounds %"class.aie::detail::vector.1", %"class.aie::detail::vector.1"* %ref.tmp31, i32 0, i32 0, !dbg !2216
  %66 = extractvalue %"class.aie::detail::vector.1" %call32, 0, !dbg !2216
  store %struct.v8int32 %66, %struct.v8int32* %65, align 32, !dbg !2216
  %call33 = call addrspace(1) %"class.aie::detail::vector.1" @_ZN3aie3addINS_6detail6vectorIiLj8EEES3_EEN22aie_dm_resource_removeIT_E4typeERKS5_RKT0_(%"class.aie::detail::vector.1"* nonnull align 32 dereferenceable(32) %ref.tmp29, %"class.aie::detail::vector.1"* nonnull align 32 dereferenceable(32) %ref.tmp31) #28, !dbg !2217
  %67 = getelementptr inbounds %"class.aie::detail::vector.1", %"class.aie::detail::vector.1"* %retval, i32 0, i32 0, !dbg !2217
  %68 = extractvalue %"class.aie::detail::vector.1" %call33, 0, !dbg !2217
  store %struct.v8int32 %68, %struct.v8int32* %67, align 32, !dbg !2217
  %69 = bitcast %"class.aie::detail::vector.1"* %ref.tmp31 to i8*, !dbg !2217
  call addrspace(1) void @llvm.lifetime.end.p0i8(i64 32, i8* %69) #27, !dbg !2217
  %70 = bitcast %"class.aie::detail::vector.1"* %ref.tmp29 to i8*, !dbg !2217
  call addrspace(1) void @llvm.lifetime.end.p0i8(i64 32, i8* %70) #27, !dbg !2217
  %71 = bitcast i32* %i to i8*, !dbg !2218
  call addrspace(1) void @llvm.lifetime.end.p0i8(i64 4, i8* %71) #27, !dbg !2218
  %72 = bitcast %"class.aie::detail::accum"* %dist_y to i8*, !dbg !2218
  call addrspace(1) void @llvm.lifetime.end.p0i8(i64 128, i8* %72) #27, !dbg !2218
  %73 = bitcast %"class.aie::detail::accum"* %dist_x to i8*, !dbg !2218
  call addrspace(1) void @llvm.lifetime.end.p0i8(i64 128, i8* %73) #27, !dbg !2218
  %74 = bitcast %"class.aie::detail::vector.1"* %diff to i8*, !dbg !2218
  call addrspace(1) void @llvm.lifetime.end.p0i8(i64 32, i8* %74) #27, !dbg !2218
  %75 = bitcast %"class.aie::detail::vector.1"* %clusters_coords to i8*, !dbg !2218
  call addrspace(1) void @llvm.lifetime.end.p0i8(i64 32, i8* %75) #27, !dbg !2218
  %76 = load %"class.aie::detail::vector.1", %"class.aie::detail::vector.1"* %retval, align 32, !dbg !2218
  ret %"class.aie::detail::vector.1" %76, !dbg !2218
}

; Function Attrs: nounwind mustprogress
define dso_local i32 @_Z19assignment_functionN3aie6detail6vectorIiLj8EEE5PointP7Clusteri(%"class.aie::detail::vector.1" %distances.coerce, %class.Point %point.coerce, %class.Cluster* %clusters, i32 %num_clusters) addrspace(1) #15 !dbg !2219 {
entry:
  %retval = alloca i32, align 4
  %distances = alloca %"class.aie::detail::vector.1", align 32
  %point = alloca %class.Point, align 4
  %clusters.addr = alloca %class.Cluster*, align 4
  %num_clusters.addr = alloca i32, align 4
  %i = alloca i32, align 4
  %ref.tmp = alloca i32, align 4
  %ref.tmp1 = alloca %"class.aie::detail::vector_elem_ref.2", align 4
  %min_dist = alloca i32, align 4
  %ref.tmp7 = alloca %"class.aie::detail::vector_elem_ref.2", align 4
  %cleanup.dest.slot = alloca i32, align 4
  store %"class.aie::detail::vector.1" %distances.coerce, %"class.aie::detail::vector.1"* %distances, align 32
  store %class.Point %point.coerce, %class.Point* %point, align 4
  call addrspace(1) void @llvm.dbg.declare(metadata %"class.aie::detail::vector.1"* %distances, metadata !2223, metadata !DIExpression()), !dbg !2229
  call addrspace(1) void @llvm.dbg.declare(metadata %class.Point* %point, metadata !2224, metadata !DIExpression()), !dbg !2230
  store %class.Cluster* %clusters, %class.Cluster** %clusters.addr, align 4, !tbaa !1383
  call addrspace(1) void @llvm.dbg.declare(metadata %class.Cluster** %clusters.addr, metadata !2225, metadata !DIExpression()), !dbg !2231
  store i32 %num_clusters, i32* %num_clusters.addr, align 4, !tbaa !1334
  call addrspace(1) void @llvm.dbg.declare(metadata i32* %num_clusters.addr, metadata !2226, metadata !DIExpression()), !dbg !2232
  store i32 undef, i32* %i, align 4, !dbg !2233
  %0 = bitcast i32* %i to i8*, !dbg !2233
  call addrspace(1) void @llvm.lifetime.start.p0i8(i64 4, i8* %0) #27, !dbg !2233
  call addrspace(1) void @llvm.dbg.declare(metadata i32* %i, metadata !2227, metadata !DIExpression()), !dbg !2234
  store i32 0, i32* %i, align 4, !dbg !2234, !tbaa !1334
  %1 = load i32, i32* %num_clusters.addr, align 4, !dbg !2235, !tbaa !1334
  store i32 %1, i32* %i, align 4, !dbg !2237, !tbaa !1334
  br label %for.cond, !dbg !2238

for.cond:                                         ; preds = %for.inc, %entry
  %2 = load i32, i32* %i, align 4, !dbg !2239, !tbaa !1334
  %cmp = icmp slt i32 %2, 8, !dbg !2241
  br i1 %cmp, label %for.body, label %for.end, !dbg !2242

for.body:                                         ; preds = %for.cond
  %3 = bitcast i32* %ref.tmp to i8*, !dbg !2243
  call addrspace(1) void @llvm.lifetime.start.p0i8(i64 4, i8* %3) #27, !dbg !2243
  store i32 2147483647, i32* %ref.tmp, align 4, !dbg !2243, !tbaa !1334
  %4 = bitcast %"class.aie::detail::vector_elem_ref.2"* %ref.tmp1 to i8*, !dbg !2245
  call addrspace(1) void @llvm.lifetime.start.p0i8(i64 8, i8* %4) #27, !dbg !2245
  %5 = load i32, i32* %i, align 4, !dbg !2246, !tbaa !1334
  %call = call addrspace(1) %"class.aie::detail::vector_elem_ref.2" @_ZN3aie6detail6vectorIiLj8EEixEj(%"class.aie::detail::vector.1"* nonnull dereferenceable(32) %distances, i32 %5) #28, !dbg !2245
  %6 = getelementptr inbounds %"class.aie::detail::vector_elem_ref.2", %"class.aie::detail::vector_elem_ref.2"* %ref.tmp1, i32 0, i32 0, !dbg !2245
  %7 = extractvalue %"class.aie::detail::vector_elem_ref.2" %call, 0, !dbg !2245
  store %"class.aie::detail::vector.1"* %7, %"class.aie::detail::vector.1"** %6, align 4, !dbg !2245
  %8 = getelementptr inbounds %"class.aie::detail::vector_elem_ref.2", %"class.aie::detail::vector_elem_ref.2"* %ref.tmp1, i32 0, i32 1, !dbg !2245
  %9 = extractvalue %"class.aie::detail::vector_elem_ref.2" %call, 1, !dbg !2245
  store i32 %9, i32* %8, align 4, !dbg !2245
  %call2 = call nonnull align 4 dereferenceable(8) addrspace(1) %"class.aie::detail::vector_elem_ref.2"* @_ZN3aie6detail15vector_elem_refIiLj8EEaSERKi(%"class.aie::detail::vector_elem_ref.2"* nonnull dereferenceable(8) %ref.tmp1, i32* nonnull align 4 dereferenceable(4) %ref.tmp) #28, !dbg !2247
  %10 = bitcast %"class.aie::detail::vector_elem_ref.2"* %ref.tmp1 to i8*, !dbg !2245
  call addrspace(1) void @llvm.lifetime.end.p0i8(i64 8, i8* %10) #27, !dbg !2245
  %11 = bitcast i32* %ref.tmp to i8*, !dbg !2245
  call addrspace(1) void @llvm.lifetime.end.p0i8(i64 4, i8* %11) #27, !dbg !2245
  br label %for.inc, !dbg !2248

for.inc:                                          ; preds = %for.body
  %12 = load i32, i32* %i, align 4, !dbg !2249, !tbaa !1334
  %inc = add nsw i32 %12, 1, !dbg !2249
  store i32 %inc, i32* %i, align 4, !dbg !2249, !tbaa !1334
  br label %for.cond, !dbg !2250, !llvm.loop !2251

for.end:                                          ; preds = %for.cond
  store i32 undef, i32* %min_dist, align 4, !dbg !2253
  %13 = bitcast i32* %min_dist to i8*, !dbg !2253
  call addrspace(1) void @llvm.lifetime.start.p0i8(i64 4, i8* %13) #27, !dbg !2253
  call addrspace(1) void @llvm.dbg.declare(metadata i32* %min_dist, metadata !2228, metadata !DIExpression()), !dbg !2254
  %call3 = call addrspace(1) i32 @_ZN3aie10reduce_minINS_6detail6vectorIiLj8EEEEENT_10value_typeERKS4_(%"class.aie::detail::vector.1"* nonnull align 32 dereferenceable(32) %distances) #28, !dbg !2255
  store i32 %call3, i32* %min_dist, align 4, !dbg !2254, !tbaa !1334
  store i32 0, i32* %i, align 4, !dbg !2256, !tbaa !1334
  br label %for.cond4, !dbg !2258

for.cond4:                                        ; preds = %for.inc10, %for.end
  %14 = load i32, i32* %i, align 4, !dbg !2259, !tbaa !1334
  %15 = load i32, i32* %num_clusters.addr, align 4, !dbg !2261, !tbaa !1334
  %cmp5 = icmp slt i32 %14, %15, !dbg !2262
  br i1 %cmp5, label %for.body6, label %for.end12, !dbg !2263

for.body6:                                        ; preds = %for.cond4
  %16 = bitcast %"class.aie::detail::vector_elem_ref.2"* %ref.tmp7 to i8*, !dbg !2264
  call addrspace(1) void @llvm.lifetime.start.p0i8(i64 8, i8* %16) #27, !dbg !2264
  %17 = load i32, i32* %i, align 4, !dbg !2267, !tbaa !1334
  %call8 = call addrspace(1) %"class.aie::detail::vector_elem_ref.2" @_ZN3aie6detail6vectorIiLj8EEixEj(%"class.aie::detail::vector.1"* nonnull dereferenceable(32) %distances, i32 %17) #28, !dbg !2264
  %18 = getelementptr inbounds %"class.aie::detail::vector_elem_ref.2", %"class.aie::detail::vector_elem_ref.2"* %ref.tmp7, i32 0, i32 0, !dbg !2264
  %19 = extractvalue %"class.aie::detail::vector_elem_ref.2" %call8, 0, !dbg !2264
  store %"class.aie::detail::vector.1"* %19, %"class.aie::detail::vector.1"** %18, align 4, !dbg !2264
  %20 = getelementptr inbounds %"class.aie::detail::vector_elem_ref.2", %"class.aie::detail::vector_elem_ref.2"* %ref.tmp7, i32 0, i32 1, !dbg !2264
  %21 = extractvalue %"class.aie::detail::vector_elem_ref.2" %call8, 1, !dbg !2264
  store i32 %21, i32* %20, align 4, !dbg !2264
  %22 = load i32, i32* %min_dist, align 4, !dbg !2268, !tbaa !1334
  %call9 = call zeroext addrspace(1) i1 @_ZNK3aie6detail15vector_elem_refIiLj8EEeqIiEEbT_(%"class.aie::detail::vector_elem_ref.2"* nonnull dereferenceable(8) %ref.tmp7, i32 %22) #28, !dbg !2269
  %23 = bitcast %"class.aie::detail::vector_elem_ref.2"* %ref.tmp7 to i8*, !dbg !2264
  call addrspace(1) void @llvm.lifetime.end.p0i8(i64 8, i8* %23) #27, !dbg !2264
  br i1 %call9, label %if.then, label %if.end, !dbg !2270

if.then:                                          ; preds = %for.body6
  %24 = load i32, i32* %i, align 4, !dbg !2271, !tbaa !1334
  store i32 %24, i32* %retval, align 4, !dbg !2273
  store i32 1, i32* %cleanup.dest.slot, align 4
  br label %cleanup, !dbg !2273

if.end:                                           ; preds = %for.body6
  br label %for.inc10, !dbg !2274

for.inc10:                                        ; preds = %if.end
  %25 = load i32, i32* %i, align 4, !dbg !2275, !tbaa !1334
  %inc11 = add nsw i32 %25, 1, !dbg !2275
  store i32 %inc11, i32* %i, align 4, !dbg !2275, !tbaa !1334
  br label %for.cond4, !dbg !2276, !llvm.loop !2277

for.end12:                                        ; preds = %for.cond4
  store i32 -1, i32* %retval, align 4, !dbg !2279
  store i32 1, i32* %cleanup.dest.slot, align 4
  br label %cleanup, !dbg !2279

cleanup:                                          ; preds = %for.end12, %if.then
  %26 = bitcast i32* %min_dist to i8*, !dbg !2280
  call addrspace(1) void @llvm.lifetime.end.p0i8(i64 4, i8* %26) #27, !dbg !2280
  %27 = bitcast i32* %i to i8*, !dbg !2280
  call addrspace(1) void @llvm.lifetime.end.p0i8(i64 4, i8* %27) #27, !dbg !2280
  %28 = load i32, i32* %retval, align 4, !dbg !2280
  ret i32 %28, !dbg !2280
}

; Function Attrs: nounwind mustprogress
define linkonce_odr dso_local void @_ZN5Point10setClusterEi(%class.Point* nonnull dereferenceable(12) %this, i32 %id) addrspace(1) #15 comdat align 2 !dbg !2281 {
entry:
  %this.addr = alloca %class.Point*, align 4
  %id.addr = alloca i32, align 4
  store %class.Point* %this, %class.Point** %this.addr, align 4, !tbaa !1383
  call addrspace(1) void @llvm.dbg.declare(metadata %class.Point** %this.addr, metadata !2283, metadata !DIExpression()), !dbg !2285
  store i32 %id, i32* %id.addr, align 4, !tbaa !1334
  call addrspace(1) void @llvm.dbg.declare(metadata i32* %id.addr, metadata !2284, metadata !DIExpression()), !dbg !2286
  %this1 = load %class.Point*, %class.Point** %this.addr, align 4
  %0 = load i32, i32* %id.addr, align 4, !dbg !2287, !tbaa !1334
  %clusterId = getelementptr inbounds %class.Point, %class.Point* %this1, i32 0, i32 0, !dbg !2288
  store i32 %0, i32* %clusterId, align 4, !dbg !2289, !tbaa !1809
  ret void, !dbg !2290
}

; Function Attrs: nounwind mustprogress
define linkonce_odr dso_local void @_ZN7Cluster8addPointE5Point(%class.Cluster* nonnull dereferenceable(20) %this, %class.Point %point.coerce) addrspace(1) #15 comdat align 2 !dbg !2291 {
entry:
  %point = alloca %class.Point, align 4
  %this.addr = alloca %class.Cluster*, align 4
  store %class.Point %point.coerce, %class.Point* %point, align 4
  store %class.Cluster* %this, %class.Cluster** %this.addr, align 4, !tbaa !1383
  call addrspace(1) void @llvm.dbg.declare(metadata %class.Cluster** %this.addr, metadata !2293, metadata !DIExpression()), !dbg !2295
  call addrspace(1) void @llvm.dbg.declare(metadata %class.Point* %point, metadata !2294, metadata !DIExpression()), !dbg !2296
  %this1 = load %class.Cluster*, %class.Cluster** %this.addr, align 4
  %call = call addrspace(1) i32 @_ZN5Point4getXEv(%class.Point* nonnull dereferenceable(12) %point) #28, !dbg !2297
  %x_accum = getelementptr inbounds %class.Cluster, %class.Cluster* %this1, i32 0, i32 3, !dbg !2298
  %0 = load i32, i32* %x_accum, align 4, !dbg !2299, !tbaa !1790
  %add = add nsw i32 %0, %call, !dbg !2299
  store i32 %add, i32* %x_accum, align 4, !dbg !2299, !tbaa !1790
  %call2 = call addrspace(1) i32 @_ZN5Point4getYEv(%class.Point* nonnull dereferenceable(12) %point) #28, !dbg !2300
  %y_accum = getelementptr inbounds %class.Cluster, %class.Cluster* %this1, i32 0, i32 4, !dbg !2301
  %1 = load i32, i32* %y_accum, align 4, !dbg !2302, !tbaa !1793
  %add3 = add nsw i32 %1, %call2, !dbg !2302
  store i32 %add3, i32* %y_accum, align 4, !dbg !2302, !tbaa !1793
  %numPoints = getelementptr inbounds %class.Cluster, %class.Cluster* %this1, i32 0, i32 2, !dbg !2303
  %2 = load i32, i32* %numPoints, align 4, !dbg !2304, !tbaa !1787
  %inc = add nsw i32 %2, 1, !dbg !2304
  store i32 %inc, i32* %numPoints, align 4, !dbg !2304, !tbaa !1787
  ret void, !dbg !2305
}

; Function Attrs: nounwind mustprogress
define linkonce_odr dso_local void @_ZN7Cluster17updateCoordinatesEv(%class.Cluster* nonnull dereferenceable(20) %this) addrspace(1) #15 comdat align 2 !dbg !2306 {
entry:
  %this.addr = alloca %class.Cluster*, align 4
  store %class.Cluster* %this, %class.Cluster** %this.addr, align 4, !tbaa !1383
  call addrspace(1) void @llvm.dbg.declare(metadata %class.Cluster** %this.addr, metadata !2308, metadata !DIExpression()), !dbg !2309
  %this1 = load %class.Cluster*, %class.Cluster** %this.addr, align 4
  %x_accum = getelementptr inbounds %class.Cluster, %class.Cluster* %this1, i32 0, i32 3, !dbg !2310
  %0 = load i32, i32* %x_accum, align 4, !dbg !2310, !tbaa !1790
  %numPoints = getelementptr inbounds %class.Cluster, %class.Cluster* %this1, i32 0, i32 2, !dbg !2311
  %1 = load i32, i32* %numPoints, align 4, !dbg !2311, !tbaa !1787
  %div = sdiv i32 %0, %1, !dbg !2312
  %x = getelementptr inbounds %class.Cluster, %class.Cluster* %this1, i32 0, i32 0, !dbg !2313
  store i32 %div, i32* %x, align 4, !dbg !2314, !tbaa !1781
  %y_accum = getelementptr inbounds %class.Cluster, %class.Cluster* %this1, i32 0, i32 4, !dbg !2315
  %2 = load i32, i32* %y_accum, align 4, !dbg !2315, !tbaa !1793
  %numPoints2 = getelementptr inbounds %class.Cluster, %class.Cluster* %this1, i32 0, i32 2, !dbg !2316
  %3 = load i32, i32* %numPoints2, align 4, !dbg !2316, !tbaa !1787
  %div3 = sdiv i32 %2, %3, !dbg !2317
  %y = getelementptr inbounds %class.Cluster, %class.Cluster* %this1, i32 0, i32 1, !dbg !2318
  store i32 %div3, i32* %y, align 4, !dbg !2319, !tbaa !1784
  ret void, !dbg !2320
}

; Function Attrs: nounwind mustprogress
define linkonce_odr dso_local i32 @_ZN7Cluster4getXEv(%class.Cluster* nonnull dereferenceable(20) %this) addrspace(1) #15 comdat align 2 !dbg !2321 {
entry:
  %this.addr = alloca %class.Cluster*, align 4
  store %class.Cluster* %this, %class.Cluster** %this.addr, align 4, !tbaa !1383
  call addrspace(1) void @llvm.dbg.declare(metadata %class.Cluster** %this.addr, metadata !2323, metadata !DIExpression()), !dbg !2324
  %this1 = load %class.Cluster*, %class.Cluster** %this.addr, align 4
  %x = getelementptr inbounds %class.Cluster, %class.Cluster* %this1, i32 0, i32 0, !dbg !2325
  %0 = load i32, i32* %x, align 4, !dbg !2325, !tbaa !1781
  ret i32 %0, !dbg !2326
}

; Function Attrs: alwaysinline nounwind mustprogress
define linkonce_odr dso_local %"class.aie::detail::vector_elem_ref.2" @_ZN3aie6detail6vectorIiLj8EEixEj(%"class.aie::detail::vector.1"* nonnull dereferenceable(32) %this, i32 %idx) addrspace(1) #9 comdat align 2 !dbg !2327 {
entry:
  %retval = alloca %"class.aie::detail::vector_elem_ref.2", align 4
  %this.addr = alloca %"class.aie::detail::vector.1"*, align 4
  %idx.addr = alloca i32, align 4
  store %"class.aie::detail::vector.1"* %this, %"class.aie::detail::vector.1"** %this.addr, align 4, !tbaa !1383
  call addrspace(1) void @llvm.dbg.declare(metadata %"class.aie::detail::vector.1"** %this.addr, metadata !2329, metadata !DIExpression()), !dbg !2332
  store i32 %idx, i32* %idx.addr, align 4, !tbaa !1334
  call addrspace(1) void @llvm.dbg.declare(metadata i32* %idx.addr, metadata !2331, metadata !DIExpression()), !dbg !2333
  %this1 = load %"class.aie::detail::vector.1"*, %"class.aie::detail::vector.1"** %this.addr, align 4
  %0 = load i32, i32* %idx.addr, align 4, !dbg !2334, !tbaa !1334
  %cmp = icmp ult i32 %0, 8, !dbg !2334
  %1 = call addrspace(1) i1 @llvm.is.constant.i1(i1 %cmp), !dbg !2334
  br i1 %1, label %if.then, label %if.end4, !dbg !2336

if.then:                                          ; preds = %entry
  br label %do.body, !dbg !2337

do.body:                                          ; preds = %if.then
  %2 = load i32, i32* %idx.addr, align 4, !dbg !2339, !tbaa !1334
  %cmp2 = icmp ult i32 %2, 8, !dbg !2339
  %3 = call addrspace(1) i1 @llvm.chess_manifest(i1 %cmp2), !dbg !2339
  br i1 %3, label %if.end, label %if.then3, !dbg !2342

if.then3:                                         ; preds = %do.body
  call addrspace(1) void @llvm.chess_error(metadata !1762), !dbg !2339
  br label %if.end, !dbg !2339

if.end:                                           ; preds = %if.then3, %do.body
  br label %do.end, !dbg !2342

do.end:                                           ; preds = %if.end
  br label %if.end4, !dbg !2337

if.end4:                                          ; preds = %do.end, %entry
  %4 = load i32, i32* %idx.addr, align 4, !dbg !2336, !tbaa !1334
  %cmp5 = icmp ult i32 %4, 8, !dbg !2336
  call addrspace(1) void @llvm.assume(i1 %cmp5), !dbg !2336
  %5 = load i32, i32* %idx.addr, align 4, !dbg !2343, !tbaa !1334
  %call = call addrspace(1) %"class.aie::detail::vector_elem_ref.2" @_ZN3aie6detail6vectorIiLj8EE8elem_refEj(%"class.aie::detail::vector.1"* nonnull dereferenceable(32) %this1, i32 %5) #28, !dbg !2344
  %6 = getelementptr inbounds %"class.aie::detail::vector_elem_ref.2", %"class.aie::detail::vector_elem_ref.2"* %retval, i32 0, i32 0, !dbg !2344
  %7 = extractvalue %"class.aie::detail::vector_elem_ref.2" %call, 0, !dbg !2344
  store %"class.aie::detail::vector.1"* %7, %"class.aie::detail::vector.1"** %6, align 4, !dbg !2344
  %8 = getelementptr inbounds %"class.aie::detail::vector_elem_ref.2", %"class.aie::detail::vector_elem_ref.2"* %retval, i32 0, i32 1, !dbg !2344
  %9 = extractvalue %"class.aie::detail::vector_elem_ref.2" %call, 1, !dbg !2344
  store i32 %9, i32* %8, align 4, !dbg !2344
  %10 = load %"class.aie::detail::vector_elem_ref.2", %"class.aie::detail::vector_elem_ref.2"* %retval, align 4, !dbg !2345
  ret %"class.aie::detail::vector_elem_ref.2" %10, !dbg !2345
}

; Function Attrs: nounwind mustprogress
define linkonce_odr dso_local nonnull align 4 dereferenceable(8) %"class.aie::detail::vector_elem_ref.2"* @_ZN3aie6detail15vector_elem_refIiLj8EEaSERKi(%"class.aie::detail::vector_elem_ref.2"* nonnull dereferenceable(8) %this, i32* nonnull align 4 dereferenceable(4) %v) addrspace(1) #15 comdat align 2 !dbg !2346 {
entry:
  %this.addr = alloca %"class.aie::detail::vector_elem_ref.2"*, align 4
  %v.addr = alloca i32*, align 4
  store %"class.aie::detail::vector_elem_ref.2"* %this, %"class.aie::detail::vector_elem_ref.2"** %this.addr, align 4, !tbaa !1383
  call addrspace(1) void @llvm.dbg.declare(metadata %"class.aie::detail::vector_elem_ref.2"** %this.addr, metadata !2348, metadata !DIExpression()), !dbg !2351
  store i32* %v, i32** %v.addr, align 4, !tbaa !1383
  call addrspace(1) void @llvm.dbg.declare(metadata i32** %v.addr, metadata !2350, metadata !DIExpression()), !dbg !2352
  %this1 = load %"class.aie::detail::vector_elem_ref.2"*, %"class.aie::detail::vector_elem_ref.2"** %this.addr, align 4
  %parent = getelementptr inbounds %"class.aie::detail::vector_elem_ref.2", %"class.aie::detail::vector_elem_ref.2"* %this1, i32 0, i32 0, !dbg !2353
  %0 = load %"class.aie::detail::vector.1"*, %"class.aie::detail::vector.1"** %parent, align 4, !dbg !2353, !tbaa !2354
  %1 = load i32*, i32** %v.addr, align 4, !dbg !2356, !tbaa !1383
  %2 = load i32, i32* %1, align 4, !dbg !2356, !tbaa !1334
  %offset = getelementptr inbounds %"class.aie::detail::vector_elem_ref.2", %"class.aie::detail::vector_elem_ref.2"* %this1, i32 0, i32 1, !dbg !2357
  %3 = load i32, i32* %offset, align 4, !dbg !2357, !tbaa !2358
  call addrspace(1) void @_ZN3aie6detail6vectorIiLj8EE3setEij(%"class.aie::detail::vector.1"* nonnull dereferenceable(32) %0, i32 %2, i32 %3) #28, !dbg !2359
  ret %"class.aie::detail::vector_elem_ref.2"* %this1, !dbg !2360
}

; Function Attrs: nounwind mustprogress
define linkonce_odr dso_local i32 @_ZN7Cluster4getYEv(%class.Cluster* nonnull dereferenceable(20) %this) addrspace(1) #15 comdat align 2 !dbg !2361 {
entry:
  %this.addr = alloca %class.Cluster*, align 4
  store %class.Cluster* %this, %class.Cluster** %this.addr, align 4, !tbaa !1383
  call addrspace(1) void @llvm.dbg.declare(metadata %class.Cluster** %this.addr, metadata !2363, metadata !DIExpression()), !dbg !2364
  %this1 = load %class.Cluster*, %class.Cluster** %this.addr, align 4
  %y = getelementptr inbounds %class.Cluster, %class.Cluster* %this1, i32 0, i32 1, !dbg !2365
  %0 = load i32, i32* %y, align 4, !dbg !2365, !tbaa !1784
  ret i32 %0, !dbg !2366
}

; Function Attrs: argmemonly nounwind speculatable willreturn
declare %struct.output_stream.2* @llvm.noalias.p0s_struct.output_streams.p0i8.p0p0s_struct.output_streams.i32(%struct.output_stream.2*, i8*, %struct.output_stream.2**, i32, metadata) addrspace(1) #16

; Function Attrs: argmemonly nounwind speculatable willreturn
declare %struct.output_stream.2* @llvm.noalias.p0s_struct.output_stream.2s.p0i8.p0p0s_struct.output_stream.2s.i32(%struct.output_stream.2*, i8*, %struct.output_stream.2**, i32, metadata) addrspace(1) #16

; Function Attrs: nounwind mustprogress
define linkonce_odr dso_local void @_Z9writeincrIL23aie_stream_resource_out0EiLj8EEvP13output_streamIT0_ERKN3aie6detail6vectorIS2_XT1_EEE(%struct.output_stream.2* %w, %"class.aie::detail::vector.1"* nonnull align 32 dereferenceable(32) %value) addrspace(1) #15 comdat !dbg !2367 {
entry:
  %w.addr = alloca %struct.output_stream.2*, align 4
  %value.addr = alloca %"class.aie::detail::vector.1"*, align 4
  store %struct.output_stream.2* %w, %struct.output_stream.2** %w.addr, align 4, !tbaa !1383
  call addrspace(1) void @llvm.dbg.declare(metadata %struct.output_stream.2** %w.addr, metadata !2373, metadata !DIExpression()), !dbg !2376
  store %"class.aie::detail::vector.1"* %value, %"class.aie::detail::vector.1"** %value.addr, align 4, !tbaa !1383
  call addrspace(1) void @llvm.dbg.declare(metadata %"class.aie::detail::vector.1"** %value.addr, metadata !2374, metadata !DIExpression()), !dbg !2377
  %0 = load %struct.output_stream.2*, %struct.output_stream.2** %w.addr, align 4, !dbg !2378, !tbaa !1383
  %1 = load %"class.aie::detail::vector.1"*, %"class.aie::detail::vector.1"** %value.addr, align 4, !dbg !2379, !tbaa !1383
  %2 = load %"class.aie::detail::vector.1", %"class.aie::detail::vector.1"* %1, align 32, !dbg !2380, !tbaa !1591
  call addrspace(1) void @_ZN3aie6detail3adf17stream_out_helperILj8EiL23aie_stream_resource_out0EE9writeincrEP13output_streamIiENS0_6vectorIiLj8EEE(%struct.output_stream.2* %0, %"class.aie::detail::vector.1" %2) #28, !dbg !2380
  ret void, !dbg !2381
}

; Function Attrs: alwaysinline nounwind mustprogress
define linkonce_odr dso_local %"class.aie::detail::vector.3" @_ZN3aie5zerosIiLj16EEENS_6detail6vectorIT_XT0_EEEv() addrspace(1) #9 comdat !dbg !2382 {
entry:
  %retval = alloca %"class.aie::detail::vector.3", align 32
  %call = call addrspace(1) %"class.aie::detail::vector.3" @_ZN3aie6detail5zerosIiLj16EEENS0_6vectorIT_XT0_EEEv() #28, !dbg !2385
  %0 = getelementptr inbounds %"class.aie::detail::vector.3", %"class.aie::detail::vector.3"* %retval, i32 0, i32 0, !dbg !2385
  %1 = extractvalue %"class.aie::detail::vector.3" %call, 0, !dbg !2385
  store %struct.v16int32 %1, %struct.v16int32* %0, align 32, !dbg !2385
  %2 = load %"class.aie::detail::vector.3", %"class.aie::detail::vector.3"* %retval, align 32, !dbg !2386
  ret %"class.aie::detail::vector.3" %2, !dbg !2386
}

; Function Attrs: alwaysinline nounwind mustprogress
define linkonce_odr dso_local %"class.aie::detail::vector_elem_ref.4" @_ZN3aie6detail6vectorIiLj16EEixEj(%"class.aie::detail::vector.3"* nonnull dereferenceable(64) %this, i32 %idx) addrspace(1) #9 comdat align 2 !dbg !2387 {
entry:
  %retval = alloca %"class.aie::detail::vector_elem_ref.4", align 4
  %this.addr = alloca %"class.aie::detail::vector.3"*, align 4
  %idx.addr = alloca i32, align 4
  store %"class.aie::detail::vector.3"* %this, %"class.aie::detail::vector.3"** %this.addr, align 4, !tbaa !1383
  call addrspace(1) void @llvm.dbg.declare(metadata %"class.aie::detail::vector.3"** %this.addr, metadata !2389, metadata !DIExpression()), !dbg !2392
  store i32 %idx, i32* %idx.addr, align 4, !tbaa !1334
  call addrspace(1) void @llvm.dbg.declare(metadata i32* %idx.addr, metadata !2391, metadata !DIExpression()), !dbg !2393
  %this1 = load %"class.aie::detail::vector.3"*, %"class.aie::detail::vector.3"** %this.addr, align 4
  %0 = load i32, i32* %idx.addr, align 4, !dbg !2394, !tbaa !1334
  %cmp = icmp ult i32 %0, 16, !dbg !2394
  %1 = call addrspace(1) i1 @llvm.is.constant.i1(i1 %cmp), !dbg !2394
  br i1 %1, label %if.then, label %if.end4, !dbg !2396

if.then:                                          ; preds = %entry
  br label %do.body, !dbg !2397

do.body:                                          ; preds = %if.then
  %2 = load i32, i32* %idx.addr, align 4, !dbg !2399, !tbaa !1334
  %cmp2 = icmp ult i32 %2, 16, !dbg !2399
  %3 = call addrspace(1) i1 @llvm.chess_manifest(i1 %cmp2), !dbg !2399
  br i1 %3, label %if.end, label %if.then3, !dbg !2402

if.then3:                                         ; preds = %do.body
  call addrspace(1) void @llvm.chess_error(metadata !1762), !dbg !2399
  br label %if.end, !dbg !2399

if.end:                                           ; preds = %if.then3, %do.body
  br label %do.end, !dbg !2402

do.end:                                           ; preds = %if.end
  br label %if.end4, !dbg !2397

if.end4:                                          ; preds = %do.end, %entry
  %4 = load i32, i32* %idx.addr, align 4, !dbg !2396, !tbaa !1334
  %cmp5 = icmp ult i32 %4, 16, !dbg !2396
  call addrspace(1) void @llvm.assume(i1 %cmp5), !dbg !2396
  %5 = load i32, i32* %idx.addr, align 4, !dbg !2403, !tbaa !1334
  %call = call addrspace(1) %"class.aie::detail::vector_elem_ref.4" @_ZN3aie6detail6vectorIiLj16EE8elem_refEj(%"class.aie::detail::vector.3"* nonnull dereferenceable(64) %this1, i32 %5) #28, !dbg !2404
  %6 = getelementptr inbounds %"class.aie::detail::vector_elem_ref.4", %"class.aie::detail::vector_elem_ref.4"* %retval, i32 0, i32 0, !dbg !2404
  %7 = extractvalue %"class.aie::detail::vector_elem_ref.4" %call, 0, !dbg !2404
  store %"class.aie::detail::vector.3"* %7, %"class.aie::detail::vector.3"** %6, align 4, !dbg !2404
  %8 = getelementptr inbounds %"class.aie::detail::vector_elem_ref.4", %"class.aie::detail::vector_elem_ref.4"* %retval, i32 0, i32 1, !dbg !2404
  %9 = extractvalue %"class.aie::detail::vector_elem_ref.4" %call, 1, !dbg !2404
  store i32 %9, i32* %8, align 4, !dbg !2404
  %10 = load %"class.aie::detail::vector_elem_ref.4", %"class.aie::detail::vector_elem_ref.4"* %retval, align 4, !dbg !2405
  ret %"class.aie::detail::vector_elem_ref.4" %10, !dbg !2405
}

; Function Attrs: nounwind mustprogress
define linkonce_odr dso_local nonnull align 4 dereferenceable(8) %"class.aie::detail::vector_elem_ref.4"* @_ZN3aie6detail15vector_elem_refIiLj16EEaSERKi(%"class.aie::detail::vector_elem_ref.4"* nonnull dereferenceable(8) %this, i32* nonnull align 4 dereferenceable(4) %v) addrspace(1) #15 comdat align 2 !dbg !2406 {
entry:
  %this.addr = alloca %"class.aie::detail::vector_elem_ref.4"*, align 4
  %v.addr = alloca i32*, align 4
  store %"class.aie::detail::vector_elem_ref.4"* %this, %"class.aie::detail::vector_elem_ref.4"** %this.addr, align 4, !tbaa !1383
  call addrspace(1) void @llvm.dbg.declare(metadata %"class.aie::detail::vector_elem_ref.4"** %this.addr, metadata !2408, metadata !DIExpression()), !dbg !2411
  store i32* %v, i32** %v.addr, align 4, !tbaa !1383
  call addrspace(1) void @llvm.dbg.declare(metadata i32** %v.addr, metadata !2410, metadata !DIExpression()), !dbg !2412
  %this1 = load %"class.aie::detail::vector_elem_ref.4"*, %"class.aie::detail::vector_elem_ref.4"** %this.addr, align 4
  %parent = getelementptr inbounds %"class.aie::detail::vector_elem_ref.4", %"class.aie::detail::vector_elem_ref.4"* %this1, i32 0, i32 0, !dbg !2413
  %0 = load %"class.aie::detail::vector.3"*, %"class.aie::detail::vector.3"** %parent, align 4, !dbg !2413, !tbaa !2414
  %1 = load i32*, i32** %v.addr, align 4, !dbg !2416, !tbaa !1383
  %2 = load i32, i32* %1, align 4, !dbg !2416, !tbaa !1334
  %offset = getelementptr inbounds %"class.aie::detail::vector_elem_ref.4", %"class.aie::detail::vector_elem_ref.4"* %this1, i32 0, i32 1, !dbg !2417
  %3 = load i32, i32* %offset, align 4, !dbg !2417, !tbaa !2418
  call addrspace(1) void @_ZN3aie6detail6vectorIiLj16EE3setEij(%"class.aie::detail::vector.3"* nonnull dereferenceable(64) %0, i32 %2, i32 %3) #28, !dbg !2419
  ret %"class.aie::detail::vector_elem_ref.4"* %this1, !dbg !2420
}

; Function Attrs: nounwind mustprogress
define linkonce_odr dso_local void @_Z9writeincrIL23aie_stream_resource_out0EiLj16EEvP13output_streamIT0_ERKN3aie6detail6vectorIS2_XT1_EEE(%struct.output_stream.2* %w, %"class.aie::detail::vector.3"* nonnull align 32 dereferenceable(64) %value) addrspace(1) #15 comdat !dbg !2421 {
entry:
  %w.addr = alloca %struct.output_stream.2*, align 4
  %value.addr = alloca %"class.aie::detail::vector.3"*, align 4
  store %struct.output_stream.2* %w, %struct.output_stream.2** %w.addr, align 4, !tbaa !1383
  call addrspace(1) void @llvm.dbg.declare(metadata %struct.output_stream.2** %w.addr, metadata !2427, metadata !DIExpression()), !dbg !2430
  store %"class.aie::detail::vector.3"* %value, %"class.aie::detail::vector.3"** %value.addr, align 4, !tbaa !1383
  call addrspace(1) void @llvm.dbg.declare(metadata %"class.aie::detail::vector.3"** %value.addr, metadata !2428, metadata !DIExpression()), !dbg !2431
  %0 = load %struct.output_stream.2*, %struct.output_stream.2** %w.addr, align 4, !dbg !2432, !tbaa !1383
  %1 = load %"class.aie::detail::vector.3"*, %"class.aie::detail::vector.3"** %value.addr, align 4, !dbg !2433, !tbaa !1383
  %2 = load %"class.aie::detail::vector.3", %"class.aie::detail::vector.3"* %1, align 32, !dbg !2434, !tbaa !2435
  call addrspace(1) void @_ZN3aie6detail3adf17stream_out_helperILj16EiL23aie_stream_resource_out0EE9writeincrEP13output_streamIiENS0_6vectorIiLj16EEE(%struct.output_stream.2* %0, %"class.aie::detail::vector.3" %2) #28, !dbg !2434
  ret void, !dbg !2438
}

; Function Attrs: nounwind mustprogress
define linkonce_odr dso_local nonnull align 4 dereferenceable(8) %"class.aie::detail::vector_elem_ref"* @_ZN3aie6detail15vector_elem_refIiLj4EEaSERKi(%"class.aie::detail::vector_elem_ref"* nonnull dereferenceable(8) %this, i32* nonnull align 4 dereferenceable(4) %v) addrspace(1) #15 comdat align 2 !dbg !2439 {
entry:
  %this.addr = alloca %"class.aie::detail::vector_elem_ref"*, align 4
  %v.addr = alloca i32*, align 4
  store %"class.aie::detail::vector_elem_ref"* %this, %"class.aie::detail::vector_elem_ref"** %this.addr, align 4, !tbaa !1383
  call addrspace(1) void @llvm.dbg.declare(metadata %"class.aie::detail::vector_elem_ref"** %this.addr, metadata !2441, metadata !DIExpression()), !dbg !2444
  store i32* %v, i32** %v.addr, align 4, !tbaa !1383
  call addrspace(1) void @llvm.dbg.declare(metadata i32** %v.addr, metadata !2443, metadata !DIExpression()), !dbg !2445
  %this1 = load %"class.aie::detail::vector_elem_ref"*, %"class.aie::detail::vector_elem_ref"** %this.addr, align 4
  %parent = getelementptr inbounds %"class.aie::detail::vector_elem_ref", %"class.aie::detail::vector_elem_ref"* %this1, i32 0, i32 0, !dbg !2446
  %0 = load %"class.aie::detail::vector"*, %"class.aie::detail::vector"** %parent, align 4, !dbg !2446, !tbaa !2447
  %1 = load i32*, i32** %v.addr, align 4, !dbg !2449, !tbaa !1383
  %2 = load i32, i32* %1, align 4, !dbg !2449, !tbaa !1334
  %offset = getelementptr inbounds %"class.aie::detail::vector_elem_ref", %"class.aie::detail::vector_elem_ref"* %this1, i32 0, i32 1, !dbg !2450
  %3 = load i32, i32* %offset, align 4, !dbg !2450, !tbaa !2451
  call addrspace(1) void @_ZN3aie6detail6vectorIiLj4EE3setEij(%"class.aie::detail::vector"* nonnull dereferenceable(16) %0, i32 %2, i32 %3) #28, !dbg !2452
  ret %"class.aie::detail::vector_elem_ref"* %this1, !dbg !2453
}

; Function Attrs: nounwind mustprogress
define linkonce_odr dso_local void @_Z9writeincrIL23aie_stream_resource_out0EiLj4EEvP13output_streamIT0_ERKN3aie6detail6vectorIS2_XT1_EEE(%struct.output_stream.2* %w, %"class.aie::detail::vector"* nonnull align 16 dereferenceable(16) %value) addrspace(1) #15 comdat !dbg !2454 {
entry:
  %w.addr = alloca %struct.output_stream.2*, align 4
  %value.addr = alloca %"class.aie::detail::vector"*, align 4
  store %struct.output_stream.2* %w, %struct.output_stream.2** %w.addr, align 4, !tbaa !1383
  call addrspace(1) void @llvm.dbg.declare(metadata %struct.output_stream.2** %w.addr, metadata !2460, metadata !DIExpression()), !dbg !2463
  store %"class.aie::detail::vector"* %value, %"class.aie::detail::vector"** %value.addr, align 4, !tbaa !1383
  call addrspace(1) void @llvm.dbg.declare(metadata %"class.aie::detail::vector"** %value.addr, metadata !2461, metadata !DIExpression()), !dbg !2464
  %0 = load %struct.output_stream.2*, %struct.output_stream.2** %w.addr, align 4, !dbg !2465, !tbaa !1383
  %1 = load %"class.aie::detail::vector"*, %"class.aie::detail::vector"** %value.addr, align 4, !dbg !2466, !tbaa !1383
  %2 = load %"class.aie::detail::vector", %"class.aie::detail::vector"* %1, align 16, !dbg !2467, !tbaa !1495
  call addrspace(1) void @_ZN3aie6detail3adf17stream_out_helperILj4EiL23aie_stream_resource_out0EE9writeincrEP13output_streamIiENS0_6vectorIiLj4EEE(%struct.output_stream.2* %0, %"class.aie::detail::vector" %2) #28, !dbg !2467
  ret void, !dbg !2468
}

; Function Attrs: nounwind mustprogress
define linkonce_odr dso_local void @_ZN3aie6detail3adf17stream_out_helperILj4EiL23aie_stream_resource_out0EE9writeincrEP13output_streamIiENS0_6vectorIiLj4EEE(%struct.output_stream.2* %w, %"class.aie::detail::vector" %value.coerce) addrspace(1) #15 comdat align 2 !dbg !2469 {
entry:
  %value = alloca %"class.aie::detail::vector", align 16
  %w.addr = alloca %struct.output_stream.2*, align 4
  %i = alloca i32, align 4
  %agg.tmp = alloca %struct.v4int32, align 16
  %ref.tmp = alloca %"class.aie::detail::vector", align 16
  store %"class.aie::detail::vector" %value.coerce, %"class.aie::detail::vector"* %value, align 16
  store %struct.output_stream.2* %w, %struct.output_stream.2** %w.addr, align 4, !tbaa !1383
  call addrspace(1) void @llvm.dbg.declare(metadata %struct.output_stream.2** %w.addr, metadata !2471, metadata !DIExpression()), !dbg !2475
  call addrspace(1) void @llvm.dbg.declare(metadata %"class.aie::detail::vector"* %value, metadata !2472, metadata !DIExpression()), !dbg !2476
  store i32 undef, i32* %i, align 4, !dbg !2477
  %0 = bitcast i32* %i to i8*, !dbg !2477
  call addrspace(1) void @llvm.lifetime.start.p0i8(i64 4, i8* %0) #27, !dbg !2477
  call addrspace(1) void @llvm.dbg.declare(metadata i32* %i, metadata !2473, metadata !DIExpression()), !dbg !2478
  store i32 0, i32* %i, align 4, !dbg !2478, !tbaa !1334
  br label %for.cond, !dbg !2477

for.cond:                                         ; preds = %for.inc, %entry
  %1 = load i32, i32* %i, align 4, !dbg !2479, !tbaa !1334
  %cmp = icmp ult i32 %1, 1, !dbg !2481
  br i1 %cmp, label %for.body, label %for.cond.cleanup, !dbg !2482

for.cond.cleanup:                                 ; preds = %for.cond
  %2 = bitcast i32* %i to i8*, !dbg !2483
  call addrspace(1) void @llvm.lifetime.end.p0i8(i64 4, i8* %2) #27, !dbg !2483
  br label %for.end

for.body:                                         ; preds = %for.cond
  %3 = load %struct.output_stream.2*, %struct.output_stream.2** %w.addr, align 4, !dbg !2484, !tbaa !1383
  %4 = bitcast %"class.aie::detail::vector"* %ref.tmp to i8*, !dbg !2485
  call addrspace(1) void @llvm.lifetime.start.p0i8(i64 16, i8* %4) #27, !dbg !2485
  %5 = load i32, i32* %i, align 4, !dbg !2486, !tbaa !1334
  %call = call addrspace(1) %"class.aie::detail::vector" @_ZNK3aie6detail6vectorIiLj4EE7extractILj4EEENS1_IiXT_EEEj(%"class.aie::detail::vector"* nonnull dereferenceable(16) %value, i32 %5) #28, !dbg !2487
  %6 = getelementptr inbounds %"class.aie::detail::vector", %"class.aie::detail::vector"* %ref.tmp, i32 0, i32 0, !dbg !2487
  %7 = extractvalue %"class.aie::detail::vector" %call, 0, !dbg !2487
  store %struct.v4int32 %7, %struct.v4int32* %6, align 16, !dbg !2487
  %call1 = call addrspace(1) %struct.v4int32 @_ZNK3aie6detail6vectorIiLj4EEcv7v4int32Ev(%"class.aie::detail::vector"* nonnull dereferenceable(16) %ref.tmp) #28, !dbg !2485
  %8 = getelementptr inbounds %struct.v4int32, %struct.v4int32* %agg.tmp, i32 0, i32 0, !dbg !2485
  %9 = extractvalue %struct.v4int32 %call1, 0, !dbg !2485
  store %struct.ipd.custom_type.v16int8.v16int8 %9, %struct.ipd.custom_type.v16int8.v16int8* %8, align 16, !dbg !2485
  %10 = load %struct.v4int32, %struct.v4int32* %agg.tmp, align 16, !dbg !2488, !tbaa !2489
  call addrspace(1) void @_ZL9writeincrIL23aie_stream_resource_out0EEvP13output_streamIiE7v4int32b(%struct.output_stream.2* %3, %struct.v4int32 %10, i1 zeroext false) #28, !dbg !2488
  %11 = bitcast %"class.aie::detail::vector"* %ref.tmp to i8*, !dbg !2488
  call addrspace(1) void @llvm.lifetime.end.p0i8(i64 16, i8* %11) #27, !dbg !2488
  br label %for.inc, !dbg !2488

for.inc:                                          ; preds = %for.body
  %12 = load i32, i32* %i, align 4, !dbg !2490, !tbaa !1334
  %inc = add i32 %12, 1, !dbg !2490
  store i32 %inc, i32* %i, align 4, !dbg !2490, !tbaa !1334
  br label %for.cond, !dbg !2483, !llvm.loop !2491

for.end:                                          ; preds = %for.cond.cleanup
  ret void, !dbg !2494
}

; Function Attrs: alwaysinline nounwind mustprogress
define linkonce_odr dso_local %"class.aie::detail::vector" @_ZNK3aie6detail6vectorIiLj4EE7extractILj4EEENS1_IiXT_EEEj(%"class.aie::detail::vector"* nonnull dereferenceable(16) %this, i32 %idx) addrspace(1) #9 comdat align 2 !dbg !2495 {
entry:
  %this.addr = alloca %"class.aie::detail::vector"*, align 4
  %idx.addr = alloca i32, align 4
  %output_bits = alloca i32, align 4
  store %"class.aie::detail::vector"* %this, %"class.aie::detail::vector"** %this.addr, align 4, !tbaa !1383
  call addrspace(1) void @llvm.dbg.declare(metadata %"class.aie::detail::vector"** %this.addr, metadata !2502, metadata !DIExpression()), !dbg !2506
  store i32 %idx, i32* %idx.addr, align 4, !tbaa !1334
  call addrspace(1) void @llvm.dbg.declare(metadata i32* %idx.addr, metadata !2504, metadata !DIExpression()), !dbg !2507
  %this1 = load %"class.aie::detail::vector"*, %"class.aie::detail::vector"** %this.addr, align 4
  %0 = load i32, i32* %idx.addr, align 4, !dbg !2508, !tbaa !1334
  %cmp = icmp ult i32 %0, 1, !dbg !2508
  %1 = call addrspace(1) i1 @llvm.is.constant.i1(i1 %cmp), !dbg !2508
  br i1 %1, label %if.then, label %if.end4, !dbg !2510

if.then:                                          ; preds = %entry
  br label %do.body, !dbg !2511

do.body:                                          ; preds = %if.then
  %2 = load i32, i32* %idx.addr, align 4, !dbg !2513, !tbaa !1334
  %cmp2 = icmp ult i32 %2, 1, !dbg !2513
  %3 = call addrspace(1) i1 @llvm.chess_manifest(i1 %cmp2), !dbg !2513
  br i1 %3, label %if.end, label %if.then3, !dbg !2516

if.then3:                                         ; preds = %do.body
  call addrspace(1) void @llvm.chess_error(metadata !2517), !dbg !2513
  br label %if.end, !dbg !2513

if.end:                                           ; preds = %if.then3, %do.body
  br label %do.end, !dbg !2516

do.end:                                           ; preds = %if.end
  br label %if.end4, !dbg !2511

if.end4:                                          ; preds = %do.end, %entry
  %4 = load i32, i32* %idx.addr, align 4, !dbg !2510, !tbaa !1334
  %cmp5 = icmp ult i32 %4, 1, !dbg !2510
  call addrspace(1) void @llvm.assume(i1 %cmp5), !dbg !2510
  store i32 undef, i32* %output_bits, align 4, !dbg !2518
  %5 = bitcast i32* %output_bits to i8*, !dbg !2518
  call addrspace(1) void @llvm.lifetime.start.p0i8(i64 4, i8* %5) #27, !dbg !2518
  call addrspace(1) void @llvm.dbg.declare(metadata i32* %output_bits, metadata !2505, metadata !DIExpression()), !dbg !2519
  store i32 128, i32* %output_bits, align 4, !dbg !2519, !tbaa !1334
  %6 = load %"class.aie::detail::vector", %"class.aie::detail::vector"* %this1, align 16, !dbg !2520, !tbaa !1495
  %7 = bitcast i32* %output_bits to i8*, !dbg !2523
  call addrspace(1) void @llvm.lifetime.end.p0i8(i64 4, i8* %7) #27, !dbg !2523
  ret %"class.aie::detail::vector" %6, !dbg !2520
}

; Function Attrs: alwaysinline nounwind mustprogress
define linkonce_odr dso_local %struct.v4int32 @_ZNK3aie6detail6vectorIiLj4EEcv7v4int32Ev(%"class.aie::detail::vector"* nonnull dereferenceable(16) %this) addrspace(1) #9 comdat align 2 !dbg !2524 {
entry:
  %retval = alloca %struct.v4int32, align 16
  %this.addr = alloca %"class.aie::detail::vector"*, align 4
  store %"class.aie::detail::vector"* %this, %"class.aie::detail::vector"** %this.addr, align 4, !tbaa !1383
  call addrspace(1) void @llvm.dbg.declare(metadata %"class.aie::detail::vector"** %this.addr, metadata !2526, metadata !DIExpression()), !dbg !2527
  %this1 = load %"class.aie::detail::vector"*, %"class.aie::detail::vector"** %this.addr, align 4
  %call = call addrspace(1) %struct.v4int32 @_ZNK3aie6detail6vectorIiLj4EE9to_nativeEv(%"class.aie::detail::vector"* nonnull dereferenceable(16) %this1) #28, !dbg !2528
  %0 = getelementptr inbounds %struct.v4int32, %struct.v4int32* %retval, i32 0, i32 0, !dbg !2528
  %1 = extractvalue %struct.v4int32 %call, 0, !dbg !2528
  store %struct.ipd.custom_type.v16int8.v16int8 %1, %struct.ipd.custom_type.v16int8.v16int8* %0, align 16, !dbg !2528
  %2 = load %struct.v4int32, %struct.v4int32* %retval, align 16, !dbg !2529
  ret %struct.v4int32 %2, !dbg !2529
}

; Function Attrs: inlinehint nounwind mustprogress
define internal void @_ZL9writeincrIL23aie_stream_resource_out0EEvP13output_streamIiE7v4int32b(%struct.output_stream.2* %str, %struct.v4int32 %value.coerce, i1 zeroext %tlast) addrspace(1) #17 !dbg !2530 {
entry:
  %value = alloca %struct.v4int32, align 16
  %str.addr = alloca %struct.output_stream.2*, align 4
  %tlast.addr = alloca i8, align 1
  %agg.tmp = alloca %struct.v8int16, align 16
  store %struct.v4int32 %value.coerce, %struct.v4int32* %value, align 16
  store %struct.output_stream.2* %str, %struct.output_stream.2** %str.addr, align 4, !tbaa !1383
  call addrspace(1) void @llvm.dbg.declare(metadata %struct.output_stream.2** %str.addr, metadata !2537, metadata !DIExpression()), !dbg !2541
  call addrspace(1) void @llvm.dbg.declare(metadata %struct.v4int32* %value, metadata !2538, metadata !DIExpression()), !dbg !2541
  %frombool = zext i1 %tlast to i8
  store i8 %frombool, i8* %tlast.addr, align 1, !tbaa !2542
  call addrspace(1) void @llvm.dbg.declare(metadata i8* %tlast.addr, metadata !2539, metadata !DIExpression()), !dbg !2541
  %0 = load %struct.output_stream.2*, %struct.output_stream.2** %str.addr, align 4, !dbg !2541, !tbaa !1383
  %1 = bitcast %struct.output_stream.2* %0 to %struct.output_stream.10*, !dbg !2541
  %2 = load %struct.v4int32, %struct.v4int32* %value, align 16, !dbg !2541, !tbaa !2489
  %call = call addrspace(1) %struct.v8int16 @_Z10as_v8int167v4int32(%struct.v4int32 %2) #28, !dbg !2541
  %3 = getelementptr inbounds %struct.v8int16, %struct.v8int16* %agg.tmp, i32 0, i32 0, !dbg !2541
  %4 = extractvalue %struct.v8int16 %call, 0, !dbg !2541
  store %struct.ipd.custom_type.v16int8.v16int8 %4, %struct.ipd.custom_type.v16int8.v16int8* %3, align 16, !dbg !2541
  %5 = load i8, i8* %tlast.addr, align 1, !dbg !2541, !tbaa !2542, !range !2544
  %tobool = trunc i8 %5 to i1, !dbg !2541
  %6 = load %struct.v8int16, %struct.v8int16* %agg.tmp, align 16, !dbg !2541, !tbaa !2489
  call addrspace(1) void @_ZL9writeincrIL23aie_stream_resource_out0EEvP13output_streamIsE7v8int16b(%struct.output_stream.10* %1, %struct.v8int16 %6, i1 zeroext %tobool) #28, !dbg !2541
  ret void, !dbg !2541
}

; Function Attrs: alwaysinline nounwind mustprogress
define linkonce_odr dso_local %struct.v8int16 @_Z10as_v8int167v4int32(%struct.v4int32 %a.coerce) addrspace(1) #9 comdat {
entry:
  %a = alloca %struct.v4int32, align 16
  %custom_type.tmp = alloca %struct.v8int16, align 16
  store %struct.v4int32 %a.coerce, %struct.v4int32* %a, align 16
  %mw = getelementptr inbounds %struct.v4int32, %struct.v4int32* %a, i32 0, i32 0
  %0 = load %struct.ipd.custom_type.v16int8.v16int8, %struct.ipd.custom_type.v16int8.v16int8* %mw, align 16, !tbaa !2489
  call addrspace(1) void @_ZN7v8int16C2E17chessllvmInternal7v16int8(%struct.v8int16* nonnull dereferenceable(16) %custom_type.tmp, i32 0, %struct.ipd.custom_type.v16int8.v16int8 %0) #28
  %1 = load %struct.v8int16, %struct.v8int16* %custom_type.tmp, align 16, !tbaa !2489
  ret %struct.v8int16 %1
}

; Function Attrs: inlinehint nounwind mustprogress
define internal void @_ZL9writeincrIL23aie_stream_resource_out0EEvP13output_streamIsE7v8int16b(%struct.output_stream.10* %ss, %struct.v8int16 %value.coerce, i1 zeroext %tlast) addrspace(1) #17 !dbg !2545 {
entry:
  %value = alloca %struct.v8int16, align 16
  %ss.addr = alloca %struct.output_stream.10*, align 4
  %tlast.addr = alloca i8, align 1
  store %struct.v8int16 %value.coerce, %struct.v8int16* %value, align 16
  store %struct.output_stream.10* %ss, %struct.output_stream.10** %ss.addr, align 4, !tbaa !1383
  call addrspace(1) void @llvm.dbg.declare(metadata %struct.output_stream.10** %ss.addr, metadata !2549, metadata !DIExpression()), !dbg !2554
  call addrspace(1) void @llvm.dbg.declare(metadata %struct.v8int16* %value, metadata !2550, metadata !DIExpression()), !dbg !2555
  %frombool = zext i1 %tlast to i8
  store i8 %frombool, i8* %tlast.addr, align 1, !tbaa !2542
  call addrspace(1) void @llvm.dbg.declare(metadata i8* %tlast.addr, metadata !2551, metadata !DIExpression()), !dbg !2556
  %0 = load %struct.output_stream.10*, %struct.output_stream.10** %ss.addr, align 4, !dbg !2557, !tbaa !1383
  %1 = load %struct.v8int16, %struct.v8int16* %value, align 16, !dbg !2558, !tbaa !2489
  call addrspace(1) void @_ZN12stream_utilsL18aie_stream_put_wmsIsEEvP13output_streamIsE7v8int16Rb(%struct.output_stream.10* %0, %struct.v8int16 %1, i8* nonnull align 1 dereferenceable(1) %tlast.addr) #28, !dbg !2558
  ret void, !dbg !2559
}

; Function Attrs: inlinehint nounwind mustprogress
define internal void @_ZN12stream_utilsL18aie_stream_put_wmsIsEEvP13output_streamIsE7v8int16Rb(%struct.output_stream.10* %ss, %struct.v8int16 %value.coerce, i8* nonnull align 1 dereferenceable(1) %tlast) addrspace(1) #17 !dbg !2560 {
entry:
  %value = alloca %struct.v8int16, align 16
  %ss.addr = alloca %struct.output_stream.10*, align 4
  %tlast.addr = alloca i8*, align 4
  store %struct.v8int16 %value.coerce, %struct.v8int16* %value, align 16
  store %struct.output_stream.10* %ss, %struct.output_stream.10** %ss.addr, align 4, !tbaa !1383
  call addrspace(1) void @llvm.dbg.declare(metadata %struct.output_stream.10** %ss.addr, metadata !2566, metadata !DIExpression()), !dbg !2569
  call addrspace(1) void @llvm.dbg.declare(metadata %struct.v8int16* %value, metadata !2567, metadata !DIExpression()), !dbg !2570
  store i8* %tlast, i8** %tlast.addr, align 4, !tbaa !1383
  call addrspace(1) void @llvm.dbg.declare(metadata i8** %tlast.addr, metadata !2568, metadata !DIExpression()), !dbg !2571
  %0 = load %struct.output_stream.10*, %struct.output_stream.10** %ss.addr, align 4, !dbg !2572, !tbaa !1383
  %1 = getelementptr inbounds %struct.output_stream.10, %struct.output_stream.10* %0, i32 0, i32 0, !dbg !2575
  %channel = bitcast %union.anon.1* %1 to i32*, !dbg !2575
  %2 = load i32, i32* %channel, align 4, !dbg !2575, !tbaa !1387
  %3 = load i8*, i8** %tlast.addr, align 4, !dbg !2576, !tbaa !1383
  %4 = load i8, i8* %3, align 1, !dbg !2576, !tbaa !2542, !range !2544
  %tobool = trunc i8 %4 to i1, !dbg !2576
  %conv = zext i1 %tobool to i32, !dbg !2576
  %5 = load %struct.v8int16, %struct.v8int16* %value, align 16, !dbg !2577, !tbaa !2489
  call addrspace(1) void @_Z7put_wmsi7v8int16i(i32 %2, %struct.v8int16 %5, i32 %conv) #32, !dbg !2577
  ret void, !dbg !2578
}

; Function Attrs: alwaysinline nounwind mustprogress
define linkonce_odr dso_local void @_Z7put_wmsi7v8int16i(i32 %idx_ms, %struct.v8int16 %a.coerce, i32 %tlast) addrspace(1) #18 comdat {
entry:
  %a = alloca %struct.v8int16, align 16
  %idx_ms.addr = alloca i32, align 4
  %tlast.addr = alloca i32, align 4
  %agg.tmp = alloca %struct.v4int32, align 16
  store %struct.v8int16 %a.coerce, %struct.v8int16* %a, align 16
  store i32 %idx_ms, i32* %idx_ms.addr, align 4, !tbaa !1334
  store i32 %tlast, i32* %tlast.addr, align 4, !tbaa !1334
  %0 = load i32, i32* %idx_ms.addr, align 4, !tbaa !1334
  %1 = load %struct.v8int16, %struct.v8int16* %a, align 16, !tbaa !2489
  %call = call addrspace(1) %struct.v4int32 @_Z10as_v4int327v8int16(%struct.v8int16 %1) #28
  %2 = getelementptr inbounds %struct.v4int32, %struct.v4int32* %agg.tmp, i32 0, i32 0
  %3 = extractvalue %struct.v4int32 %call, 0
  store %struct.ipd.custom_type.v16int8.v16int8 %3, %struct.ipd.custom_type.v16int8.v16int8* %2, align 16
  %4 = load i32, i32* %tlast.addr, align 4, !tbaa !1334
  %5 = load %struct.v4int32, %struct.v4int32* %agg.tmp, align 16, !tbaa !2489
  call addrspace(1) void @_Z7put_wmsi7v4int32i(i32 %0, %struct.v4int32 %5, i32 %4) #33
  ret void
}

; Function Attrs: alwaysinline nounwind mustprogress
define linkonce_odr dso_local %struct.v4int32 @_Z10as_v4int327v8int16(%struct.v8int16 %a.coerce) addrspace(1) #9 comdat {
entry:
  %a = alloca %struct.v8int16, align 16
  %custom_type.tmp = alloca %struct.v4int32, align 16
  store %struct.v8int16 %a.coerce, %struct.v8int16* %a, align 16
  %mw = getelementptr inbounds %struct.v8int16, %struct.v8int16* %a, i32 0, i32 0
  %0 = load %struct.ipd.custom_type.v16int8.v16int8, %struct.ipd.custom_type.v16int8.v16int8* %mw, align 16, !tbaa !2489
  call addrspace(1) void @_ZN7v4int32C2E17chessllvmInternal7v16int8(%struct.v4int32* nonnull dereferenceable(16) %custom_type.tmp, i32 0, %struct.ipd.custom_type.v16int8.v16int8 %0) #28
  %1 = load %struct.v4int32, %struct.v4int32* %custom_type.tmp, align 16, !tbaa !2489
  ret %struct.v4int32 %1
}

; Function Attrs: alwaysinline nounwind mustprogress
define linkonce_odr dso_local void @_Z7put_wmsi7v4int32i(i32 %idx_ms, %struct.v4int32 %val.coerce, i32 %tlast) addrspace(1) #19 comdat {
entry:
  %val = alloca %struct.v4int32, align 16
  %idx_ms.addr = alloca i32, align 4
  %tlast.addr = alloca i32, align 4
  %agg.tmp = alloca %struct.ipd.custom_type.uint1_t.uint1_t, align 4
  %custom_type.tmp = alloca %struct.ipd.custom_type.uint1_t.uint1_t, align 4
  %agg.tmp1 = alloca %struct.ipd.custom_type.uint1_t.uint1_t, align 4
  %custom_type.tmp2 = alloca %struct.ipd.custom_type.uint1_t.uint1_t, align 4
  %agg.tmp5 = alloca %struct.ipd.custom_type.uint1_t.uint1_t, align 4
  %custom_type.tmp6 = alloca %struct.ipd.custom_type.uint1_t.uint1_t, align 4
  %agg.tmp7 = alloca %struct.ipd.custom_type.uint1_t.uint1_t, align 4
  %custom_type.tmp8 = alloca %struct.ipd.custom_type.uint1_t.uint1_t, align 4
  %agg.tmp10 = alloca %struct.ipd.custom_type.uint1_t.uint1_t, align 4
  %custom_type.tmp11 = alloca %struct.ipd.custom_type.uint1_t.uint1_t, align 4
  %agg.tmp12 = alloca %struct.ipd.custom_type.uint1_t.uint1_t, align 4
  %custom_type.tmp13 = alloca %struct.ipd.custom_type.uint1_t.uint1_t, align 4
  store %struct.v4int32 %val.coerce, %struct.v4int32* %val, align 16
  store i32 %idx_ms, i32* %idx_ms.addr, align 4, !tbaa !1334
  store i32 %tlast, i32* %tlast.addr, align 4, !tbaa !1334
  %0 = load i32, i32* %idx_ms.addr, align 4, !tbaa !1334
  %cmp = icmp eq i32 %0, 0
  %1 = call addrspace(1) i1 @llvm.chess_manifest(i1 %cmp)
  br i1 %1, label %if.then, label %if.else

if.then:                                          ; preds = %entry
  call addrspace(1) void @_ZN7uint1_tC2Ei(%struct.ipd.custom_type.uint1_t.uint1_t* nonnull dereferenceable(1) %custom_type.tmp, i32 0) #28
  %2 = load %struct.ipd.custom_type.uint1_t.uint1_t, %struct.ipd.custom_type.uint1_t.uint1_t* %custom_type.tmp, align 4, !tbaa !2579
  store %struct.ipd.custom_type.uint1_t.uint1_t %2, %struct.ipd.custom_type.uint1_t.uint1_t* %agg.tmp, align 4, !tbaa !2579
  %3 = load i32, i32* %tlast.addr, align 4, !tbaa !1334
  call addrspace(1) void @_ZN7uint1_tC2Ei(%struct.ipd.custom_type.uint1_t.uint1_t* nonnull dereferenceable(1) %custom_type.tmp2, i32 %3) #28
  %4 = load %struct.ipd.custom_type.uint1_t.uint1_t, %struct.ipd.custom_type.uint1_t.uint1_t* %custom_type.tmp2, align 4, !tbaa !2579
  store %struct.ipd.custom_type.uint1_t.uint1_t %4, %struct.ipd.custom_type.uint1_t.uint1_t* %agg.tmp1, align 4, !tbaa !2579
  %5 = load %struct.v4int32, %struct.v4int32* %val, align 16, !tbaa !2489
  %6 = load %struct.ipd.custom_type.uint1_t.uint1_t, %struct.ipd.custom_type.uint1_t.uint1_t* %agg.tmp, align 4, !tbaa !2579
  %7 = load %struct.ipd.custom_type.uint1_t.uint1_t, %struct.ipd.custom_type.uint1_t.uint1_t* %agg.tmp1, align 4, !tbaa !2579
  call addrspace(1) void @_ZN12me_primitive15stream_write128EPU4AS23U16__protect_accessi7v4int327uint1_tS3_(i32 addrspace(23)* @_ZN12me_primitive3ms0E, %struct.v4int32 %5, %struct.ipd.custom_type.uint1_t.uint1_t %6, %struct.ipd.custom_type.uint1_t.uint1_t %7) #34
  br label %if.end14

if.else:                                          ; preds = %entry
  %8 = load i32, i32* %idx_ms.addr, align 4, !tbaa !1334
  %cmp3 = icmp eq i32 %8, 1
  %9 = call addrspace(1) i1 @llvm.chess_manifest(i1 %cmp3)
  br i1 %9, label %if.then4, label %if.else9

if.then4:                                         ; preds = %if.else
  call addrspace(1) void @_ZN7uint1_tC2Ei(%struct.ipd.custom_type.uint1_t.uint1_t* nonnull dereferenceable(1) %custom_type.tmp6, i32 0) #28
  %10 = load %struct.ipd.custom_type.uint1_t.uint1_t, %struct.ipd.custom_type.uint1_t.uint1_t* %custom_type.tmp6, align 4, !tbaa !2579
  store %struct.ipd.custom_type.uint1_t.uint1_t %10, %struct.ipd.custom_type.uint1_t.uint1_t* %agg.tmp5, align 4, !tbaa !2579
  %11 = load i32, i32* %tlast.addr, align 4, !tbaa !1334
  call addrspace(1) void @_ZN7uint1_tC2Ei(%struct.ipd.custom_type.uint1_t.uint1_t* nonnull dereferenceable(1) %custom_type.tmp8, i32 %11) #28
  %12 = load %struct.ipd.custom_type.uint1_t.uint1_t, %struct.ipd.custom_type.uint1_t.uint1_t* %custom_type.tmp8, align 4, !tbaa !2579
  store %struct.ipd.custom_type.uint1_t.uint1_t %12, %struct.ipd.custom_type.uint1_t.uint1_t* %agg.tmp7, align 4, !tbaa !2579
  %13 = load %struct.v4int32, %struct.v4int32* %val, align 16, !tbaa !2489
  %14 = load %struct.ipd.custom_type.uint1_t.uint1_t, %struct.ipd.custom_type.uint1_t.uint1_t* %agg.tmp5, align 4, !tbaa !2579
  %15 = load %struct.ipd.custom_type.uint1_t.uint1_t, %struct.ipd.custom_type.uint1_t.uint1_t* %agg.tmp7, align 4, !tbaa !2579
  call addrspace(1) void @_ZN12me_primitive15stream_write128EPU4AS24U16__protect_accessi7v4int327uint1_tS3_(i32 addrspace(24)* @_ZN12me_primitive3ms1E, %struct.v4int32 %13, %struct.ipd.custom_type.uint1_t.uint1_t %14, %struct.ipd.custom_type.uint1_t.uint1_t %15) #34
  br label %if.end

if.else9:                                         ; preds = %if.else
  %16 = load i32, i32* %idx_ms.addr, align 4, !tbaa !1334
  %conv = trunc i32 %16 to i1
  %17 = inttoptr i1 %conv to i32 addrspace(12)*
  call addrspace(1) void @_ZN7uint1_tC2Ei(%struct.ipd.custom_type.uint1_t.uint1_t* nonnull dereferenceable(1) %custom_type.tmp11, i32 0) #28
  %18 = load %struct.ipd.custom_type.uint1_t.uint1_t, %struct.ipd.custom_type.uint1_t.uint1_t* %custom_type.tmp11, align 4, !tbaa !2579
  store %struct.ipd.custom_type.uint1_t.uint1_t %18, %struct.ipd.custom_type.uint1_t.uint1_t* %agg.tmp10, align 4, !tbaa !2579
  %19 = load i32, i32* %tlast.addr, align 4, !tbaa !1334
  call addrspace(1) void @_ZN7uint1_tC2Ei(%struct.ipd.custom_type.uint1_t.uint1_t* nonnull dereferenceable(1) %custom_type.tmp13, i32 %19) #28
  %20 = load %struct.ipd.custom_type.uint1_t.uint1_t, %struct.ipd.custom_type.uint1_t.uint1_t* %custom_type.tmp13, align 4, !tbaa !2579
  store %struct.ipd.custom_type.uint1_t.uint1_t %20, %struct.ipd.custom_type.uint1_t.uint1_t* %agg.tmp12, align 4, !tbaa !2579
  %21 = load %struct.v4int32, %struct.v4int32* %val, align 16, !tbaa !2489
  %22 = load %struct.ipd.custom_type.uint1_t.uint1_t, %struct.ipd.custom_type.uint1_t.uint1_t* %agg.tmp10, align 4, !tbaa !2579
  %23 = load %struct.ipd.custom_type.uint1_t.uint1_t, %struct.ipd.custom_type.uint1_t.uint1_t* %agg.tmp12, align 4, !tbaa !2579
  call addrspace(1) void @_ZN12me_primitive15stream_write128EPU4AS12U16__protect_accessi7v4int327uint1_tS3_(i32 addrspace(12)* %17, %struct.v4int32 %21, %struct.ipd.custom_type.uint1_t.uint1_t %22, %struct.ipd.custom_type.uint1_t.uint1_t %23) #34
  br label %if.end

if.end:                                           ; preds = %if.else9, %if.then4
  br label %if.end14

if.end14:                                         ; preds = %if.end, %if.then
  ret void
}

; Function Attrs: nounwind readnone willreturn
declare i1 @llvm.chess_manifest(i1) addrspace(1) #14

; Function Attrs: alwaysinline nounwind
define linkonce_odr dso_local void @_ZN7uint1_tC2Ei(%struct.ipd.custom_type.uint1_t.uint1_t* nonnull dereferenceable(1) %this, i32 %a) unnamed_addr addrspace(1) #11 comdat align 2 {
entry:
  %this.addr = alloca %struct.ipd.custom_type.uint1_t.uint1_t*, align 4
  %a.addr = alloca i32, align 4
  store %struct.ipd.custom_type.uint1_t.uint1_t* %this, %struct.ipd.custom_type.uint1_t.uint1_t** %this.addr, align 4, !tbaa !1383
  store i32 %a, i32* %a.addr, align 4, !tbaa !1334
  %this1 = load %struct.ipd.custom_type.uint1_t.uint1_t*, %struct.ipd.custom_type.uint1_t.uint1_t** %this.addr, align 4
  %0 = bitcast %struct.ipd.custom_type.uint1_t.uint1_t* %this1 to i8*
  %bf.load = load i8, i8* %0, align 4
  %bf.clear = and i8 %bf.load, -2
  store i8 %bf.clear, i8* %0, align 4
  %1 = load i32, i32* %a.addr, align 4, !tbaa !1334
  %2 = call addrspace(1) %struct.ipd.custom_type.uint1_t.uint1_t @llvm.chess.init.customint.s_struct.ipd.custom_type.uint1_t.uint1_ts.i32.p1f_s_struct.ipd.custom_type.uint1_t.uint1_tsi32f(%struct.ipd.custom_type.uint1_t.uint1_t undef, i32 %1, i32 1, i32 32, i1 true, i32 0, %struct.ipd.custom_type.uint1_t.uint1_t (i32) addrspace(1)* @__regcall3__chessintr_uint1_t_uint1_t___sint)
  store %struct.ipd.custom_type.uint1_t.uint1_t %2, %struct.ipd.custom_type.uint1_t.uint1_t* %this1, align 4
  ret void
}

; Function Attrs: alwaysinline nounwind mustprogress
define linkonce_odr dso_local void @_ZN12me_primitive15stream_write128EPU4AS23U16__protect_accessi7v4int327uint1_tS3_(i32 addrspace(23)* %a0, %struct.v4int32 %a1.coerce, %struct.ipd.custom_type.uint1_t.uint1_t %a2.coerce, %struct.ipd.custom_type.uint1_t.uint1_t %a3.coerce) addrspace(1) #10 comdat {
entry:
  %a1 = alloca %struct.v4int32, align 16
  %a2 = alloca %struct.ipd.custom_type.uint1_t.uint1_t, align 4
  %a3 = alloca %struct.ipd.custom_type.uint1_t.uint1_t, align 4
  %a0.addr = alloca i32 addrspace(23)*, align 4
  store %struct.v4int32 %a1.coerce, %struct.v4int32* %a1, align 16
  store %struct.ipd.custom_type.uint1_t.uint1_t %a2.coerce, %struct.ipd.custom_type.uint1_t.uint1_t* %a2, align 4
  store %struct.ipd.custom_type.uint1_t.uint1_t %a3.coerce, %struct.ipd.custom_type.uint1_t.uint1_t* %a3, align 4
  store i32 addrspace(23)* %a0, i32 addrspace(23)** %a0.addr, align 4, !tbaa !1383
  %0 = load i32 addrspace(23)*, i32 addrspace(23)** %a0.addr, align 4, !tbaa !1383
  %1 = load %struct.v4int32, %struct.v4int32* %a1, align 16, !tbaa !2489
  %2 = load %struct.ipd.custom_type.uint1_t.uint1_t, %struct.ipd.custom_type.uint1_t.uint1_t* %a2, align 4, !tbaa !2579
  %3 = load %struct.ipd.custom_type.uint1_t.uint1_t, %struct.ipd.custom_type.uint1_t.uint1_t* %a3, align 4, !tbaa !2579
  call x86_regcallcc addrspace(1) void @__regcall3__chessintr_void_stream_write128___PWMS_rsrc1__sint_v4int32_uint1_t_uint1_t(i32 addrspace(23)* "ipd_store"="0,4" %0, %struct.v4int32 %1, %struct.ipd.custom_type.uint1_t.uint1_t %2, %struct.ipd.custom_type.uint1_t.uint1_t %3) #35
  ret void
}

; Function Attrs: alwaysinline nounwind mustprogress
define linkonce_odr dso_local void @_ZN12me_primitive15stream_write128EPU4AS24U16__protect_accessi7v4int327uint1_tS3_(i32 addrspace(24)* %a0, %struct.v4int32 %a1.coerce, %struct.ipd.custom_type.uint1_t.uint1_t %a2.coerce, %struct.ipd.custom_type.uint1_t.uint1_t %a3.coerce) addrspace(1) #10 comdat {
entry:
  %a1 = alloca %struct.v4int32, align 16
  %a2 = alloca %struct.ipd.custom_type.uint1_t.uint1_t, align 4
  %a3 = alloca %struct.ipd.custom_type.uint1_t.uint1_t, align 4
  %a0.addr = alloca i32 addrspace(24)*, align 4
  store %struct.v4int32 %a1.coerce, %struct.v4int32* %a1, align 16
  store %struct.ipd.custom_type.uint1_t.uint1_t %a2.coerce, %struct.ipd.custom_type.uint1_t.uint1_t* %a2, align 4
  store %struct.ipd.custom_type.uint1_t.uint1_t %a3.coerce, %struct.ipd.custom_type.uint1_t.uint1_t* %a3, align 4
  store i32 addrspace(24)* %a0, i32 addrspace(24)** %a0.addr, align 4, !tbaa !1383
  %0 = load i32 addrspace(24)*, i32 addrspace(24)** %a0.addr, align 4, !tbaa !1383
  %1 = load %struct.v4int32, %struct.v4int32* %a1, align 16, !tbaa !2489
  %2 = load %struct.ipd.custom_type.uint1_t.uint1_t, %struct.ipd.custom_type.uint1_t.uint1_t* %a2, align 4, !tbaa !2579
  %3 = load %struct.ipd.custom_type.uint1_t.uint1_t, %struct.ipd.custom_type.uint1_t.uint1_t* %a3, align 4, !tbaa !2579
  call x86_regcallcc addrspace(1) void @__regcall3__chessintr_void_stream_write128___PWMS_rsrc2__sint_v4int32_uint1_t_uint1_t(i32 addrspace(24)* "ipd_store"="0,4" %0, %struct.v4int32 %1, %struct.ipd.custom_type.uint1_t.uint1_t %2, %struct.ipd.custom_type.uint1_t.uint1_t %3) #35
  ret void
}

; Function Attrs: alwaysinline nounwind mustprogress
define linkonce_odr dso_local void @_ZN12me_primitive15stream_write128EPU4AS12U16__protect_accessi7v4int327uint1_tS3_(i32 addrspace(12)* %a0, %struct.v4int32 %a1.coerce, %struct.ipd.custom_type.uint1_t.uint1_t %a2.coerce, %struct.ipd.custom_type.uint1_t.uint1_t %a3.coerce) addrspace(1) #10 comdat {
entry:
  %a1 = alloca %struct.v4int32, align 16
  %a2 = alloca %struct.ipd.custom_type.uint1_t.uint1_t, align 4
  %a3 = alloca %struct.ipd.custom_type.uint1_t.uint1_t, align 4
  %a0.addr = alloca i32 addrspace(12)*, align 4
  store %struct.v4int32 %a1.coerce, %struct.v4int32* %a1, align 16
  store %struct.ipd.custom_type.uint1_t.uint1_t %a2.coerce, %struct.ipd.custom_type.uint1_t.uint1_t* %a2, align 4
  store %struct.ipd.custom_type.uint1_t.uint1_t %a3.coerce, %struct.ipd.custom_type.uint1_t.uint1_t* %a3, align 4
  store i32 addrspace(12)* %a0, i32 addrspace(12)** %a0.addr, align 4, !tbaa !1383
  %0 = load i32 addrspace(12)*, i32 addrspace(12)** %a0.addr, align 4, !tbaa !1383
  %1 = load %struct.v4int32, %struct.v4int32* %a1, align 16, !tbaa !2489
  %2 = load %struct.ipd.custom_type.uint1_t.uint1_t, %struct.ipd.custom_type.uint1_t.uint1_t* %a2, align 4, !tbaa !2579
  %3 = load %struct.ipd.custom_type.uint1_t.uint1_t, %struct.ipd.custom_type.uint1_t.uint1_t* %a3, align 4, !tbaa !2579
  call x86_regcallcc addrspace(1) void @__regcall3__chessintr_void_stream_write128___PWMSMEM__sint_v4int32_uint1_t_uint1_t(i32 addrspace(12)* "ipd_store"="0,4" %0, %struct.v4int32 %1, %struct.ipd.custom_type.uint1_t.uint1_t %2, %struct.ipd.custom_type.uint1_t.uint1_t %3) #35
  ret void
}

; Function Attrs: argmemonly nounwind
declare dso_local x86_regcallcc void @__regcall3__chessintr_void_stream_write128___PWMSMEM__sint_v4int32_uint1_t_uint1_t(i32 addrspace(12)* "ipd_store"="0,4", %struct.v4int32, %struct.ipd.custom_type.uint1_t.uint1_t, %struct.ipd.custom_type.uint1_t.uint1_t) addrspace(1) #20

; Function Attrs: argmemonly nounwind
declare dso_local x86_regcallcc void @__regcall3__chessintr_void_stream_write128___PWMS_rsrc2__sint_v4int32_uint1_t_uint1_t(i32 addrspace(24)* "ipd_store"="0,4", %struct.v4int32, %struct.ipd.custom_type.uint1_t.uint1_t, %struct.ipd.custom_type.uint1_t.uint1_t) addrspace(1) #20

; Function Attrs: argmemonly nounwind
declare dso_local x86_regcallcc void @__regcall3__chessintr_void_stream_write128___PWMS_rsrc1__sint_v4int32_uint1_t_uint1_t(i32 addrspace(23)* "ipd_store"="0,4", %struct.v4int32, %struct.ipd.custom_type.uint1_t.uint1_t, %struct.ipd.custom_type.uint1_t.uint1_t) addrspace(1) #20

; Function Attrs: nounwind readnone willreturn
declare dso_local x86_regcallcc %struct.ipd.custom_type.uint1_t.uint1_t @__regcall3__chessintr_uint1_t_uint1_t___sint(i32 signext) addrspace(1) #13

; Function Attrs: nounwind readnone willreturn
declare %struct.ipd.custom_type.uint1_t.uint1_t @llvm.chess.init.customint.s_struct.ipd.custom_type.uint1_t.uint1_ts.i32.p1f_s_struct.ipd.custom_type.uint1_t.uint1_tsi32f(%struct.ipd.custom_type.uint1_t.uint1_t, i32, i32, i32, i1, i32, %struct.ipd.custom_type.uint1_t.uint1_t (i32) addrspace(1)*) addrspace(1) #14

; Function Attrs: nounwind
define linkonce_odr dso_local void @_ZN7v4int32C2E17chessllvmInternal7v16int8(%struct.v4int32* nonnull dereferenceable(16) %this, i32 %0, %struct.ipd.custom_type.v16int8.v16int8 %aw.coerce) unnamed_addr addrspace(1) #6 comdat align 2 !dbg !2581 {
entry:
  %aw = alloca %struct.ipd.custom_type.v16int8.v16int8, align 16
  %this.addr = alloca %struct.v4int32*, align 4
  %.addr = alloca i32, align 4
  store %struct.ipd.custom_type.v16int8.v16int8 %aw.coerce, %struct.ipd.custom_type.v16int8.v16int8* %aw, align 16
  store %struct.v4int32* %this, %struct.v4int32** %this.addr, align 4, !tbaa !1383
  call addrspace(1) void @llvm.dbg.declare(metadata %struct.v4int32** %this.addr, metadata !2605, metadata !DIExpression()), !dbg !2609
  store i32 %0, i32* %.addr, align 4, !tbaa !2610
  call addrspace(1) void @llvm.dbg.declare(metadata i32* %.addr, metadata !2607, metadata !DIExpression()), !dbg !2612
  call addrspace(1) void @llvm.dbg.declare(metadata %struct.ipd.custom_type.v16int8.v16int8* %aw, metadata !2608, metadata !DIExpression()), !dbg !2613
  %this1 = load %struct.v4int32*, %struct.v4int32** %this.addr, align 4
  %mw = getelementptr inbounds %struct.v4int32, %struct.v4int32* %this1, i32 0, i32 0, !dbg !2614
  %1 = load %struct.ipd.custom_type.v16int8.v16int8, %struct.ipd.custom_type.v16int8.v16int8* %aw, align 16, !dbg !2615, !tbaa !2489
  store %struct.ipd.custom_type.v16int8.v16int8 %1, %struct.ipd.custom_type.v16int8.v16int8* %mw, align 16, !dbg !2615, !tbaa !2489
  ret void, !dbg !2616
}

; Function Attrs: nounwind
define linkonce_odr dso_local void @_ZN7v8int16C2E17chessllvmInternal7v16int8(%struct.v8int16* nonnull dereferenceable(16) %this, i32 %0, %struct.ipd.custom_type.v16int8.v16int8 %aw.coerce) unnamed_addr addrspace(1) #6 comdat align 2 !dbg !2617 {
entry:
  %aw = alloca %struct.ipd.custom_type.v16int8.v16int8, align 16
  %this.addr = alloca %struct.v8int16*, align 4
  %.addr = alloca i32, align 4
  store %struct.ipd.custom_type.v16int8.v16int8 %aw.coerce, %struct.ipd.custom_type.v16int8.v16int8* %aw, align 16
  store %struct.v8int16* %this, %struct.v8int16** %this.addr, align 4, !tbaa !1383
  call addrspace(1) void @llvm.dbg.declare(metadata %struct.v8int16** %this.addr, metadata !2639, metadata !DIExpression()), !dbg !2643
  store i32 %0, i32* %.addr, align 4, !tbaa !2610
  call addrspace(1) void @llvm.dbg.declare(metadata i32* %.addr, metadata !2641, metadata !DIExpression()), !dbg !2644
  call addrspace(1) void @llvm.dbg.declare(metadata %struct.ipd.custom_type.v16int8.v16int8* %aw, metadata !2642, metadata !DIExpression()), !dbg !2645
  %this1 = load %struct.v8int16*, %struct.v8int16** %this.addr, align 4
  %mw = getelementptr inbounds %struct.v8int16, %struct.v8int16* %this1, i32 0, i32 0, !dbg !2646
  %1 = load %struct.ipd.custom_type.v16int8.v16int8, %struct.ipd.custom_type.v16int8.v16int8* %aw, align 16, !dbg !2647, !tbaa !2489
  store %struct.ipd.custom_type.v16int8.v16int8 %1, %struct.ipd.custom_type.v16int8.v16int8* %mw, align 16, !dbg !2647, !tbaa !2489
  ret void, !dbg !2648
}

; Function Attrs: alwaysinline nounwind mustprogress
define linkonce_odr dso_local %struct.v4int32 @_ZNK3aie6detail6vectorIiLj4EE9to_nativeEv(%"class.aie::detail::vector"* nonnull dereferenceable(16) %this) addrspace(1) #9 comdat align 2 !dbg !2649 {
entry:
  %this.addr = alloca %"class.aie::detail::vector"*, align 4
  store %"class.aie::detail::vector"* %this, %"class.aie::detail::vector"** %this.addr, align 4, !tbaa !1383
  call addrspace(1) void @llvm.dbg.declare(metadata %"class.aie::detail::vector"** %this.addr, metadata !2657, metadata !DIExpression()), !dbg !2658
  %this1 = load %"class.aie::detail::vector"*, %"class.aie::detail::vector"** %this.addr, align 4
  %data = getelementptr inbounds %"class.aie::detail::vector", %"class.aie::detail::vector"* %this1, i32 0, i32 0, !dbg !2659
  %0 = load %struct.v4int32, %struct.v4int32* %data, align 16, !dbg !2659, !tbaa !2489
  ret %struct.v4int32 %0, !dbg !2659
}

; Function Attrs: convergent nofree nosync nounwind readnone willreturn
declare i1 @llvm.is.constant.i1(i1) addrspace(1) #21

; Function Attrs: noreturn nounwind
declare void @llvm.chess_error(metadata) addrspace(1) #22

; Function Attrs: nofree nosync nounwind willreturn
declare void @llvm.assume(i1 noundef) addrspace(1) #23

; Function Attrs: alwaysinline nounwind mustprogress
define linkonce_odr dso_local void @_ZN3aie6detail6vectorIiLj4EE3setEij(%"class.aie::detail::vector"* nonnull dereferenceable(16) %this, i32 %v, i32 %idx) addrspace(1) #9 comdat align 2 !dbg !2661 {
entry:
  %this.addr = alloca %"class.aie::detail::vector"*, align 4
  %v.addr = alloca i32, align 4
  %idx.addr = alloca i32, align 4
  %tmp = alloca %struct.v4int32, align 16
  store %"class.aie::detail::vector"* %this, %"class.aie::detail::vector"** %this.addr, align 4, !tbaa !1383
  call addrspace(1) void @llvm.dbg.declare(metadata %"class.aie::detail::vector"** %this.addr, metadata !2663, metadata !DIExpression()), !dbg !2666
  store i32 %v, i32* %v.addr, align 4, !tbaa !1334
  call addrspace(1) void @llvm.dbg.declare(metadata i32* %v.addr, metadata !2664, metadata !DIExpression()), !dbg !2667
  store i32 %idx, i32* %idx.addr, align 4, !tbaa !1334
  call addrspace(1) void @llvm.dbg.declare(metadata i32* %idx.addr, metadata !2665, metadata !DIExpression()), !dbg !2668
  %this1 = load %"class.aie::detail::vector"*, %"class.aie::detail::vector"** %this.addr, align 4
  %0 = load i32, i32* %idx.addr, align 4, !dbg !2669, !tbaa !1334
  %cmp = icmp ult i32 %0, 4, !dbg !2669
  %1 = call addrspace(1) i1 @llvm.is.constant.i1(i1 %cmp), !dbg !2669
  br i1 %1, label %if.then, label %if.end4, !dbg !2671

if.then:                                          ; preds = %entry
  br label %do.body, !dbg !2672

do.body:                                          ; preds = %if.then
  %2 = load i32, i32* %idx.addr, align 4, !dbg !2674, !tbaa !1334
  %cmp2 = icmp ult i32 %2, 4, !dbg !2674
  %3 = call addrspace(1) i1 @llvm.chess_manifest(i1 %cmp2), !dbg !2674
  br i1 %3, label %if.end, label %if.then3, !dbg !2677

if.then3:                                         ; preds = %do.body
  call addrspace(1) void @llvm.chess_error(metadata !1762), !dbg !2674
  br label %if.end, !dbg !2674

if.end:                                           ; preds = %if.then3, %do.body
  br label %do.end, !dbg !2677

do.end:                                           ; preds = %if.end
  br label %if.end4, !dbg !2672

if.end4:                                          ; preds = %do.end, %entry
  %4 = load i32, i32* %idx.addr, align 4, !dbg !2671, !tbaa !1334
  %cmp5 = icmp ult i32 %4, 4, !dbg !2671
  call addrspace(1) void @llvm.assume(i1 %cmp5), !dbg !2671
  %data = getelementptr inbounds %"class.aie::detail::vector", %"class.aie::detail::vector"* %this1, i32 0, i32 0, !dbg !2678
  %5 = bitcast %struct.v4int32* %tmp to i8*, !dbg !2683
  call addrspace(1) void @llvm.lifetime.start.p0i8(i64 16, i8* %5) #27, !dbg !2683
  %data6 = getelementptr inbounds %"class.aie::detail::vector", %"class.aie::detail::vector"* %this1, i32 0, i32 0, !dbg !2684
  %6 = load i32, i32* %idx.addr, align 4, !dbg !2685, !tbaa !1334
  %7 = load i32, i32* %v.addr, align 4, !dbg !2686, !tbaa !1334
  %8 = load %struct.v4int32, %struct.v4int32* %data6, align 16, !dbg !2683, !tbaa !2687
  %call = call addrspace(1) %struct.v4int32 @_Z8upd_elem7v4int32ji(%struct.v4int32 %8, i32 %6, i32 %7) #28, !dbg !2683
  %9 = getelementptr inbounds %struct.v4int32, %struct.v4int32* %tmp, i32 0, i32 0, !dbg !2683
  %10 = extractvalue %struct.v4int32 %call, 0, !dbg !2683
  store %struct.ipd.custom_type.v16int8.v16int8 %10, %struct.ipd.custom_type.v16int8.v16int8* %9, align 16, !dbg !2683
  %11 = load %struct.v4int32, %struct.v4int32* %tmp, align 16, !dbg !2683, !tbaa !2489
  store %struct.v4int32 %11, %struct.v4int32* %data, align 16, !dbg !2683, !tbaa !2489
  %12 = bitcast %struct.v4int32* %tmp to i8*, !dbg !2683
  call addrspace(1) void @llvm.lifetime.end.p0i8(i64 16, i8* %12) #27, !dbg !2683
  ret void, !dbg !2688
}

; Function Attrs: alwaysinline nounwind mustprogress
define linkonce_odr dso_local %struct.v4int32 @_Z8upd_elem7v4int32ji(%struct.v4int32 %a0.coerce, i32 %a1, i32 %a2) addrspace(1) #9 comdat {
entry:
  %retval = alloca %struct.v4int32, align 16
  %a0 = alloca %struct.v4int32, align 16
  %a1.addr = alloca i32, align 4
  %a2.addr = alloca i32, align 4
  store %struct.v4int32 %a0.coerce, %struct.v4int32* %a0, align 16
  store i32 %a1, i32* %a1.addr, align 4, !tbaa !1334
  store i32 %a2, i32* %a2.addr, align 4, !tbaa !1334
  %0 = load i32, i32* %a1.addr, align 4, !tbaa !1334
  %1 = load i32, i32* %a2.addr, align 4, !tbaa !1334
  %2 = load %struct.v4int32, %struct.v4int32* %a0, align 16, !tbaa !2489
  %call = call x86_regcallcc addrspace(1) %struct.v4int32 @__regcall3__chessintr_v4int32_upd_elem_v4int32___uint___sint(%struct.v4int32 %2, i32 zeroext %0, i32 signext %1) #36
  %3 = getelementptr inbounds %struct.v4int32, %struct.v4int32* %retval, i32 0, i32 0
  %4 = extractvalue %struct.v4int32 %call, 0
  store %struct.ipd.custom_type.v16int8.v16int8 %4, %struct.ipd.custom_type.v16int8.v16int8* %3, align 16
  %5 = load %struct.v4int32, %struct.v4int32* %retval, align 16
  ret %struct.v4int32 %5
}

; Function Attrs: nounwind readnone willreturn
declare dso_local x86_regcallcc %struct.v4int32 @__regcall3__chessintr_v4int32_upd_elem_v4int32___uint___sint(%struct.v4int32, i32 zeroext, i32 signext) addrspace(1) #13

; Function Attrs: nounwind mustprogress
define linkonce_odr dso_local void @_ZN3aie6detail3adf17stream_out_helperILj16EiL23aie_stream_resource_out0EE9writeincrEP13output_streamIiENS0_6vectorIiLj16EEE(%struct.output_stream.2* %w, %"class.aie::detail::vector.3" %value.coerce) addrspace(1) #15 comdat align 2 !dbg !2689 {
entry:
  %value = alloca %"class.aie::detail::vector.3", align 32
  %w.addr = alloca %struct.output_stream.2*, align 4
  %i = alloca i32, align 4
  %agg.tmp = alloca %struct.v4int32, align 16
  %ref.tmp = alloca %"class.aie::detail::vector", align 16
  store %"class.aie::detail::vector.3" %value.coerce, %"class.aie::detail::vector.3"* %value, align 32
  store %struct.output_stream.2* %w, %struct.output_stream.2** %w.addr, align 4, !tbaa !1383
  call addrspace(1) void @llvm.dbg.declare(metadata %struct.output_stream.2** %w.addr, metadata !2691, metadata !DIExpression()), !dbg !2695
  call addrspace(1) void @llvm.dbg.declare(metadata %"class.aie::detail::vector.3"* %value, metadata !2692, metadata !DIExpression()), !dbg !2696
  store i32 undef, i32* %i, align 4, !dbg !2697
  %0 = bitcast i32* %i to i8*, !dbg !2697
  call addrspace(1) void @llvm.lifetime.start.p0i8(i64 4, i8* %0) #27, !dbg !2697
  call addrspace(1) void @llvm.dbg.declare(metadata i32* %i, metadata !2693, metadata !DIExpression()), !dbg !2698
  store i32 0, i32* %i, align 4, !dbg !2698, !tbaa !1334
  br label %for.cond, !dbg !2697

for.cond:                                         ; preds = %for.inc, %entry
  %1 = load i32, i32* %i, align 4, !dbg !2699, !tbaa !1334
  %cmp = icmp ult i32 %1, 4, !dbg !2701
  br i1 %cmp, label %for.body, label %for.cond.cleanup, !dbg !2702

for.cond.cleanup:                                 ; preds = %for.cond
  %2 = bitcast i32* %i to i8*, !dbg !2703
  call addrspace(1) void @llvm.lifetime.end.p0i8(i64 4, i8* %2) #27, !dbg !2703
  br label %for.end

for.body:                                         ; preds = %for.cond
  %3 = load %struct.output_stream.2*, %struct.output_stream.2** %w.addr, align 4, !dbg !2704, !tbaa !1383
  %4 = bitcast %"class.aie::detail::vector"* %ref.tmp to i8*, !dbg !2705
  call addrspace(1) void @llvm.lifetime.start.p0i8(i64 16, i8* %4) #27, !dbg !2705
  %5 = load i32, i32* %i, align 4, !dbg !2706, !tbaa !1334
  %call = call addrspace(1) %"class.aie::detail::vector" @_ZNK3aie6detail6vectorIiLj16EE7extractILj4EEENS1_IiXT_EEEj(%"class.aie::detail::vector.3"* nonnull dereferenceable(64) %value, i32 %5) #28, !dbg !2707
  %6 = getelementptr inbounds %"class.aie::detail::vector", %"class.aie::detail::vector"* %ref.tmp, i32 0, i32 0, !dbg !2707
  %7 = extractvalue %"class.aie::detail::vector" %call, 0, !dbg !2707
  store %struct.v4int32 %7, %struct.v4int32* %6, align 16, !dbg !2707
  %call1 = call addrspace(1) %struct.v4int32 @_ZNK3aie6detail6vectorIiLj4EEcv7v4int32Ev(%"class.aie::detail::vector"* nonnull dereferenceable(16) %ref.tmp) #28, !dbg !2705
  %8 = getelementptr inbounds %struct.v4int32, %struct.v4int32* %agg.tmp, i32 0, i32 0, !dbg !2705
  %9 = extractvalue %struct.v4int32 %call1, 0, !dbg !2705
  store %struct.ipd.custom_type.v16int8.v16int8 %9, %struct.ipd.custom_type.v16int8.v16int8* %8, align 16, !dbg !2705
  %10 = load %struct.v4int32, %struct.v4int32* %agg.tmp, align 16, !dbg !2708, !tbaa !2489
  call addrspace(1) void @_ZL9writeincrIL23aie_stream_resource_out0EEvP13output_streamIiE7v4int32b(%struct.output_stream.2* %3, %struct.v4int32 %10, i1 zeroext false) #28, !dbg !2708
  %11 = bitcast %"class.aie::detail::vector"* %ref.tmp to i8*, !dbg !2708
  call addrspace(1) void @llvm.lifetime.end.p0i8(i64 16, i8* %11) #27, !dbg !2708
  br label %for.inc, !dbg !2708

for.inc:                                          ; preds = %for.body
  %12 = load i32, i32* %i, align 4, !dbg !2709, !tbaa !1334
  %inc = add i32 %12, 1, !dbg !2709
  store i32 %inc, i32* %i, align 4, !dbg !2709, !tbaa !1334
  br label %for.cond, !dbg !2703, !llvm.loop !2710

for.end:                                          ; preds = %for.cond.cleanup
  ret void, !dbg !2712
}

; Function Attrs: alwaysinline nounwind mustprogress
define linkonce_odr dso_local %"class.aie::detail::vector" @_ZNK3aie6detail6vectorIiLj16EE7extractILj4EEENS1_IiXT_EEEj(%"class.aie::detail::vector.3"* nonnull dereferenceable(64) %this, i32 %idx) addrspace(1) #9 comdat align 2 !dbg !2713 {
entry:
  %retval = alloca %"class.aie::detail::vector", align 16
  %this.addr = alloca %"class.aie::detail::vector.3"*, align 4
  %idx.addr = alloca i32, align 4
  %output_bits = alloca i32, align 4
  %custom_type.tmp = alloca %"class.aie::detail::vector", align 16
  %tmp = alloca %struct.v4int32, align 16
  %cleanup.dest.slot = alloca i32, align 4
  %shift_subvector = alloca i32, align 4
  %cint32_elems = alloca i32, align 4
  %tmp8 = alloca %"class.aie::detail::vector.12", align 32
  %custom_type.tmp9 = alloca %"class.aie::detail::vector.12", align 32
  %agg.tmp = alloca %struct.v8cint32, align 32
  %agg.tmp10 = alloca %struct.v8cint32, align 32
  %ref.tmp = alloca %"class.aie::detail::vector.12", align 32
  %ref.tmp11 = alloca %"class.aie::detail::vector.12", align 32
  %custom_type.tmp16 = alloca %"class.aie::detail::vector", align 16
  %agg.tmp17 = alloca %struct.v4int32, align 16
  %ref.tmp18 = alloca %struct.v2cint32, align 16
  %agg.tmp19 = alloca %struct.v8cint32, align 32
  store %"class.aie::detail::vector.3"* %this, %"class.aie::detail::vector.3"** %this.addr, align 4, !tbaa !1383
  call addrspace(1) void @llvm.dbg.declare(metadata %"class.aie::detail::vector.3"** %this.addr, metadata !2718, metadata !DIExpression()), !dbg !2872
  store i32 %idx, i32* %idx.addr, align 4, !tbaa !1334
  call addrspace(1) void @llvm.dbg.declare(metadata i32* %idx.addr, metadata !2720, metadata !DIExpression()), !dbg !2873
  %this1 = load %"class.aie::detail::vector.3"*, %"class.aie::detail::vector.3"** %this.addr, align 4
  %0 = load i32, i32* %idx.addr, align 4, !dbg !2874, !tbaa !1334
  %cmp = icmp ult i32 %0, 4, !dbg !2874
  %1 = call addrspace(1) i1 @llvm.is.constant.i1(i1 %cmp), !dbg !2874
  br i1 %1, label %if.then, label %if.end4, !dbg !2876

if.then:                                          ; preds = %entry
  br label %do.body, !dbg !2877

do.body:                                          ; preds = %if.then
  %2 = load i32, i32* %idx.addr, align 4, !dbg !2879, !tbaa !1334
  %cmp2 = icmp ult i32 %2, 4, !dbg !2879
  %3 = call addrspace(1) i1 @llvm.chess_manifest(i1 %cmp2), !dbg !2879
  br i1 %3, label %if.end, label %if.then3, !dbg !2882

if.then3:                                         ; preds = %do.body
  call addrspace(1) void @llvm.chess_error(metadata !2517), !dbg !2879
  br label %if.end, !dbg !2879

if.end:                                           ; preds = %if.then3, %do.body
  br label %do.end, !dbg !2882

do.end:                                           ; preds = %if.end
  br label %if.end4, !dbg !2877

if.end4:                                          ; preds = %do.end, %entry
  %4 = load i32, i32* %idx.addr, align 4, !dbg !2876, !tbaa !1334
  %cmp5 = icmp ult i32 %4, 4, !dbg !2876
  call addrspace(1) void @llvm.assume(i1 %cmp5), !dbg !2876
  store i32 undef, i32* %output_bits, align 4, !dbg !2883
  %5 = bitcast i32* %output_bits to i8*, !dbg !2883
  call addrspace(1) void @llvm.lifetime.start.p0i8(i64 4, i8* %5) #27, !dbg !2883
  call addrspace(1) void @llvm.dbg.declare(metadata i32* %output_bits, metadata !2721, metadata !DIExpression()), !dbg !2884
  store i32 128, i32* %output_bits, align 4, !dbg !2884, !tbaa !1334
  call addrspace(1) void @llvm.dbg.declare(metadata %"class.aie::detail::vector"* %retval, metadata !2722, metadata !DIExpression()), !dbg !2885
  call addrspace(1) void @_ZN3aie6detail6vectorIiLj4EEC2Ev(%"class.aie::detail::vector"* nonnull dereferenceable(16) %custom_type.tmp) #28, !dbg !2885
  %6 = load %"class.aie::detail::vector", %"class.aie::detail::vector"* %custom_type.tmp, align 16, !dbg !2885, !tbaa !1495
  store %"class.aie::detail::vector" %6, %"class.aie::detail::vector"* %retval, align 16, !dbg !2885, !tbaa !1495
  %7 = load i32, i32* %idx.addr, align 4, !dbg !2886, !tbaa !1334
  %8 = call addrspace(1) i1 @llvm.is.constant.i32(i32 %7), !dbg !2887
  br i1 %8, label %if.then6, label %if.else, !dbg !2888

if.then6:                                         ; preds = %if.end4
  %data = getelementptr inbounds %"class.aie::detail::vector", %"class.aie::detail::vector"* %retval, i32 0, i32 0, !dbg !2889
  %9 = bitcast %struct.v4int32* %tmp to i8*, !dbg !2895
  call addrspace(1) void @llvm.lifetime.start.p0i8(i64 16, i8* %9) #27, !dbg !2895
  %data7 = getelementptr inbounds %"class.aie::detail::vector.3", %"class.aie::detail::vector.3"* %this1, i32 0, i32 0, !dbg !2896
  %10 = load i32, i32* %idx.addr, align 4, !dbg !2897, !tbaa !1334
  %11 = load %struct.v16int32, %struct.v16int32* %data7, align 32, !dbg !2895, !tbaa !2898
  %call = call addrspace(1) %struct.v4int32 @_Z5ext_v8v16int32i(%struct.v16int32 %11, i32 %10) #30, !dbg !2895
  %12 = getelementptr inbounds %struct.v4int32, %struct.v4int32* %tmp, i32 0, i32 0, !dbg !2895
  %13 = extractvalue %struct.v4int32 %call, 0, !dbg !2895
  store %struct.ipd.custom_type.v16int8.v16int8 %13, %struct.ipd.custom_type.v16int8.v16int8* %12, align 16, !dbg !2895
  %14 = load %struct.v4int32, %struct.v4int32* %tmp, align 16, !dbg !2895, !tbaa !2489
  store %struct.v4int32 %14, %struct.v4int32* %data, align 16, !dbg !2895, !tbaa !2489
  %15 = bitcast %struct.v4int32* %tmp to i8*, !dbg !2895
  call addrspace(1) void @llvm.lifetime.end.p0i8(i64 16, i8* %15) #27, !dbg !2895
  store i32 1, i32* %cleanup.dest.slot, align 4
  br label %cleanup, !dbg !2899

if.else:                                          ; preds = %if.end4
  store i32 undef, i32* %shift_subvector, align 4, !dbg !2900
  %16 = bitcast i32* %shift_subvector to i8*, !dbg !2900
  call addrspace(1) void @llvm.lifetime.start.p0i8(i64 4, i8* %16) #27, !dbg !2900
  call addrspace(1) void @llvm.dbg.declare(metadata i32* %shift_subvector, metadata !2725, metadata !DIExpression()), !dbg !2901
  store i32 2, i32* %shift_subvector, align 4, !dbg !2901, !tbaa !1334
  store i32 undef, i32* %cint32_elems, align 4, !dbg !2902
  %17 = bitcast i32* %cint32_elems to i8*, !dbg !2902
  call addrspace(1) void @llvm.lifetime.start.p0i8(i64 4, i8* %17) #27, !dbg !2902
  call addrspace(1) void @llvm.dbg.declare(metadata i32* %cint32_elems, metadata !2728, metadata !DIExpression()), !dbg !2903
  store i32 8, i32* %cint32_elems, align 4, !dbg !2903, !tbaa !1334
  store %"class.aie::detail::vector.12" undef, %"class.aie::detail::vector.12"* %tmp8, align 32, !dbg !2904
  %18 = bitcast %"class.aie::detail::vector.12"* %tmp8 to i8*, !dbg !2904
  call addrspace(1) void @llvm.lifetime.start.p0i8(i64 64, i8* %18) #27, !dbg !2904
  call addrspace(1) void @llvm.dbg.declare(metadata %"class.aie::detail::vector.12"* %tmp8, metadata !2733, metadata !DIExpression()), !dbg !2905
  %19 = bitcast %"class.aie::detail::vector.12"* %ref.tmp to i8*, !dbg !2906
  call addrspace(1) void @llvm.lifetime.start.p0i8(i64 64, i8* %19) #27, !dbg !2906
  %20 = bitcast %"class.aie::detail::vector.12"* %ref.tmp11 to i8*, !dbg !2906
  call addrspace(1) void @llvm.lifetime.start.p0i8(i64 64, i8* %20) #27, !dbg !2906
  %call12 = call addrspace(1) %"class.aie::detail::vector.12" @_ZNK3aie6detail6vectorIiLj16EE7cast_toI6cint32EEDav(%"class.aie::detail::vector.3"* nonnull dereferenceable(64) %this1) #28, !dbg !2906
  %21 = getelementptr inbounds %"class.aie::detail::vector.12", %"class.aie::detail::vector.12"* %ref.tmp11, i32 0, i32 0, !dbg !2906
  %22 = extractvalue %"class.aie::detail::vector.12" %call12, 0, !dbg !2906
  store %struct.v8cint32 %22, %struct.v8cint32* %21, align 32, !dbg !2906
  %call13 = call addrspace(1) %"class.aie::detail::vector.12" @_ZNK3aie6detail6vectorI6cint32Lj8EE4growILj8EEENS1_IS2_XT_EEEj(%"class.aie::detail::vector.12"* nonnull dereferenceable(64) %ref.tmp11, i32 0) #28, !dbg !2907
  %23 = getelementptr inbounds %"class.aie::detail::vector.12", %"class.aie::detail::vector.12"* %ref.tmp, i32 0, i32 0, !dbg !2907
  %24 = extractvalue %"class.aie::detail::vector.12" %call13, 0, !dbg !2907
  store %struct.v8cint32 %24, %struct.v8cint32* %23, align 32, !dbg !2907
  %call14 = call addrspace(1) %struct.v8cint32 @_ZNK3aie6detail6vectorI6cint32Lj8EEcv8v8cint32Ev(%"class.aie::detail::vector.12"* nonnull dereferenceable(64) %ref.tmp) #28, !dbg !2906
  %25 = getelementptr inbounds %struct.v8cint32, %struct.v8cint32* %agg.tmp10, i32 0, i32 0, !dbg !2906
  %26 = extractvalue %struct.v8cint32 %call14, 0, !dbg !2906
  store %struct.ipd.custom_type.v64int8.v64int8 %26, %struct.ipd.custom_type.v64int8.v64int8* %25, align 32, !dbg !2906
  %27 = load i32, i32* %idx.addr, align 4, !dbg !2908, !tbaa !1334
  %mul = mul i32 %27, 2, !dbg !2909
  %28 = load %struct.v8cint32, %struct.v8cint32* %agg.tmp10, align 32, !dbg !2910, !tbaa !2911
  %call15 = call addrspace(1) %struct.v8cint32 @_Z8shuffle88v8cint32ij(%struct.v8cint32 %28, i32 %mul, i32 16) #28, !dbg !2910
  %29 = getelementptr inbounds %struct.v8cint32, %struct.v8cint32* %agg.tmp, i32 0, i32 0, !dbg !2910
  %30 = extractvalue %struct.v8cint32 %call15, 0, !dbg !2910
  store %struct.ipd.custom_type.v64int8.v64int8 %30, %struct.ipd.custom_type.v64int8.v64int8* %29, align 32, !dbg !2910
  %31 = load %struct.v8cint32, %struct.v8cint32* %agg.tmp, align 32, !dbg !2910, !tbaa !2911
  call addrspace(1) void @_ZN3aie6detail6vectorI6cint32Lj8EEC2E8v8cint32(%"class.aie::detail::vector.12"* nonnull dereferenceable(64) %custom_type.tmp9, %struct.v8cint32 %31) #28, !dbg !2910
  %32 = load %"class.aie::detail::vector.12", %"class.aie::detail::vector.12"* %custom_type.tmp9, align 32, !dbg !2910, !tbaa !2912
  store %"class.aie::detail::vector.12" %32, %"class.aie::detail::vector.12"* %tmp8, align 32, !dbg !2910, !tbaa !2912
  %33 = bitcast %"class.aie::detail::vector.12"* %ref.tmp11 to i8*, !dbg !2910
  call addrspace(1) void @llvm.lifetime.end.p0i8(i64 64, i8* %33) #27, !dbg !2910
  %34 = bitcast %"class.aie::detail::vector.12"* %ref.tmp to i8*, !dbg !2910
  call addrspace(1) void @llvm.lifetime.end.p0i8(i64 64, i8* %34) #27, !dbg !2910
  %35 = bitcast %struct.v2cint32* %ref.tmp18 to i8*, !dbg !2914
  call addrspace(1) void @llvm.lifetime.start.p0i8(i64 16, i8* %35) #27, !dbg !2914
  %call20 = call addrspace(1) %struct.v8cint32 @_ZNK3aie6detail6vectorI6cint32Lj8EEcv8v8cint32Ev(%"class.aie::detail::vector.12"* nonnull dereferenceable(64) %tmp8) #28, !dbg !2915
  %36 = getelementptr inbounds %struct.v8cint32, %struct.v8cint32* %agg.tmp19, i32 0, i32 0, !dbg !2915
  %37 = extractvalue %struct.v8cint32 %call20, 0, !dbg !2915
  store %struct.ipd.custom_type.v64int8.v64int8 %37, %struct.ipd.custom_type.v64int8.v64int8* %36, align 32, !dbg !2915
  %38 = load %struct.v8cint32, %struct.v8cint32* %agg.tmp19, align 32, !dbg !2914, !tbaa !2911
  %call21 = call addrspace(1) %struct.v2cint32 @_Z5ext_v8v8cint32i(%struct.v8cint32 %38, i32 0) #30, !dbg !2914
  %39 = getelementptr inbounds %struct.v2cint32, %struct.v2cint32* %ref.tmp18, i32 0, i32 0, !dbg !2914
  %40 = extractvalue %struct.v2cint32 %call21, 0, !dbg !2914
  store %struct.ipd.custom_type.v16int8.v16int8 %40, %struct.ipd.custom_type.v16int8.v16int8* %39, align 16, !dbg !2914
  %call22 = call addrspace(1) %struct.v4int32 @_ZN3aie6detailL18vector_cast_helperIiLj4E8v2cint32EENS0_14vector_storageIT_XT0_EE4typeEOT1_(%struct.v2cint32* nonnull align 16 dereferenceable(16) %ref.tmp18) #28, !dbg !2916
  %41 = getelementptr inbounds %struct.v4int32, %struct.v4int32* %agg.tmp17, i32 0, i32 0, !dbg !2916
  %42 = extractvalue %struct.v4int32 %call22, 0, !dbg !2916
  store %struct.ipd.custom_type.v16int8.v16int8 %42, %struct.ipd.custom_type.v16int8.v16int8* %41, align 16, !dbg !2916
  %43 = load %struct.v4int32, %struct.v4int32* %agg.tmp17, align 16, !dbg !2916, !tbaa !2489
  call addrspace(1) void @_ZN3aie6detail6vectorIiLj4EEC2E7v4int32(%"class.aie::detail::vector"* nonnull dereferenceable(16) %custom_type.tmp16, %struct.v4int32 %43) #28, !dbg !2916
  %44 = load %"class.aie::detail::vector", %"class.aie::detail::vector"* %custom_type.tmp16, align 16, !dbg !2916, !tbaa !1495
  store %"class.aie::detail::vector" %44, %"class.aie::detail::vector"* %retval, align 16, !dbg !2916, !tbaa !1495
  %45 = bitcast %struct.v2cint32* %ref.tmp18 to i8*, !dbg !2917
  call addrspace(1) void @llvm.lifetime.end.p0i8(i64 16, i8* %45) #27, !dbg !2917
  %46 = bitcast %"class.aie::detail::vector.12"* %tmp8 to i8*, !dbg !2918
  call addrspace(1) void @llvm.lifetime.end.p0i8(i64 64, i8* %46) #27, !dbg !2918
  %47 = bitcast i32* %cint32_elems to i8*, !dbg !2918
  call addrspace(1) void @llvm.lifetime.end.p0i8(i64 4, i8* %47) #27, !dbg !2918
  %48 = bitcast i32* %shift_subvector to i8*, !dbg !2919
  call addrspace(1) void @llvm.lifetime.end.p0i8(i64 4, i8* %48) #27, !dbg !2919
  br label %if.end23

if.end23:                                         ; preds = %if.else
  store i32 1, i32* %cleanup.dest.slot, align 4
  br label %cleanup, !dbg !2920

cleanup:                                          ; preds = %if.end23, %if.then6
  %49 = bitcast i32* %output_bits to i8*, !dbg !2921
  call addrspace(1) void @llvm.lifetime.end.p0i8(i64 4, i8* %49) #27, !dbg !2921
  %50 = load %"class.aie::detail::vector", %"class.aie::detail::vector"* %retval, align 16, !dbg !2921
  ret %"class.aie::detail::vector" %50, !dbg !2921
}

; Function Attrs: alwaysinline nounwind
define linkonce_odr dso_local void @_ZN3aie6detail6vectorIiLj4EEC2Ev(%"class.aie::detail::vector"* nonnull dereferenceable(16) %this) unnamed_addr addrspace(1) #11 comdat align 2 !dbg !2922 {
entry:
  %this.addr = alloca %"class.aie::detail::vector"*, align 4
  store %"class.aie::detail::vector"* %this, %"class.aie::detail::vector"** %this.addr, align 4, !tbaa !1383
  call addrspace(1) void @llvm.dbg.declare(metadata %"class.aie::detail::vector"** %this.addr, metadata !2924, metadata !DIExpression()), !dbg !2925
  %this1 = load %"class.aie::detail::vector"*, %"class.aie::detail::vector"** %this.addr, align 4
  %data = getelementptr inbounds %"class.aie::detail::vector", %"class.aie::detail::vector"* %this1, i32 0, i32 0, !dbg !2926
  %call = call addrspace(1) %struct.v4int32 @_ZN3aie6detail14vector_storageIiLj4EE5undefEv() #28, !dbg !2927
  %0 = getelementptr inbounds %struct.v4int32, %struct.v4int32* %data, i32 0, i32 0, !dbg !2927
  %1 = extractvalue %struct.v4int32 %call, 0, !dbg !2927
  store %struct.ipd.custom_type.v16int8.v16int8 %1, %struct.ipd.custom_type.v16int8.v16int8* %0, align 16, !dbg !2927
  ret void, !dbg !2928
}

; Function Attrs: convergent nofree nosync nounwind readnone willreturn
declare i1 @llvm.is.constant.i32(i32) addrspace(1) #21

; Function Attrs: alwaysinline nounwind mustprogress
define linkonce_odr dso_local %struct.v4int32 @_Z5ext_v8v16int32i(%struct.v16int32 %a0.coerce, i32 %a1) addrspace(1) #10 comdat {
entry:
  %retval = alloca %struct.v4int32, align 16
  %a0 = alloca %struct.v16int32, align 32
  %a1.addr = alloca i32, align 4
  store %struct.v16int32 %a0.coerce, %struct.v16int32* %a0, align 32
  store i32 %a1, i32* %a1.addr, align 4, !tbaa !1334
  %0 = load i32, i32* %a1.addr, align 4, !tbaa !1334
  %1 = load %struct.v16int32, %struct.v16int32* %a0, align 32, !tbaa !2911
  %call = call x86_regcallcc addrspace(1) %struct.v4int32 @__regcall3__chessintr_v4int32_ext_v_v16int32___sint(%struct.v16int32 %1, i32 signext %0) #36
  %2 = getelementptr inbounds %struct.v4int32, %struct.v4int32* %retval, i32 0, i32 0
  %3 = extractvalue %struct.v4int32 %call, 0
  store %struct.ipd.custom_type.v16int8.v16int8 %3, %struct.ipd.custom_type.v16int8.v16int8* %2, align 16
  %4 = load %struct.v4int32, %struct.v4int32* %retval, align 16
  ret %struct.v4int32 %4
}

; Function Attrs: alwaysinline nounwind mustprogress
define linkonce_odr dso_local %"class.aie::detail::vector.12" @_ZNK3aie6detail6vectorIiLj16EE7cast_toI6cint32EEDav(%"class.aie::detail::vector.3"* nonnull dereferenceable(64) %this) addrspace(1) #9 comdat align 2 !dbg !2929 {
entry:
  %this.addr = alloca %"class.aie::detail::vector.3"*, align 4
  %DstSize = alloca i32, align 4
  %DstElems = alloca i32, align 4
  %ret = alloca %"class.aie::detail::vector.12", align 32
  %custom_type.tmp = alloca %"class.aie::detail::vector.12", align 32
  %tmp = alloca %struct.v8cint32, align 32
  store %"class.aie::detail::vector.3"* %this, %"class.aie::detail::vector.3"** %this.addr, align 4, !tbaa !1383
  call addrspace(1) void @llvm.dbg.declare(metadata %"class.aie::detail::vector.3"** %this.addr, metadata !2938, metadata !DIExpression()), !dbg !2942
  %this1 = load %"class.aie::detail::vector.3"*, %"class.aie::detail::vector.3"** %this.addr, align 4
  store i32 undef, i32* %DstSize, align 4, !dbg !2943
  %0 = bitcast i32* %DstSize to i8*, !dbg !2943
  call addrspace(1) void @llvm.lifetime.start.p0i8(i64 4, i8* %0) #27, !dbg !2943
  call addrspace(1) void @llvm.dbg.declare(metadata i32* %DstSize, metadata !2939, metadata !DIExpression()), !dbg !2944
  store i32 64, i32* %DstSize, align 4, !dbg !2944, !tbaa !1334
  store i32 undef, i32* %DstElems, align 4, !dbg !2945
  %1 = bitcast i32* %DstElems to i8*, !dbg !2945
  call addrspace(1) void @llvm.lifetime.start.p0i8(i64 4, i8* %1) #27, !dbg !2945
  call addrspace(1) void @llvm.dbg.declare(metadata i32* %DstElems, metadata !2940, metadata !DIExpression()), !dbg !2946
  store i32 8, i32* %DstElems, align 4, !dbg !2946, !tbaa !1334
  store %"class.aie::detail::vector.12" undef, %"class.aie::detail::vector.12"* %ret, align 32, !dbg !2947
  %2 = bitcast %"class.aie::detail::vector.12"* %ret to i8*, !dbg !2947
  call addrspace(1) void @llvm.lifetime.start.p0i8(i64 64, i8* %2) #27, !dbg !2947
  call addrspace(1) void @llvm.dbg.declare(metadata %"class.aie::detail::vector.12"* %ret, metadata !2941, metadata !DIExpression()), !dbg !2948
  call addrspace(1) void @_ZN3aie6detail6vectorI6cint32Lj8EEC2Ev(%"class.aie::detail::vector.12"* nonnull dereferenceable(64) %custom_type.tmp) #28, !dbg !2948
  %3 = load %"class.aie::detail::vector.12", %"class.aie::detail::vector.12"* %custom_type.tmp, align 32, !dbg !2948, !tbaa !2912
  store %"class.aie::detail::vector.12" %3, %"class.aie::detail::vector.12"* %ret, align 32, !dbg !2948, !tbaa !2912
  %data = getelementptr inbounds %"class.aie::detail::vector.12", %"class.aie::detail::vector.12"* %ret, i32 0, i32 0, !dbg !2949
  %4 = bitcast %struct.v8cint32* %tmp to i8*, !dbg !2950
  call addrspace(1) void @llvm.lifetime.start.p0i8(i64 64, i8* %4) #27, !dbg !2950
  %data2 = getelementptr inbounds %"class.aie::detail::vector.3", %"class.aie::detail::vector.3"* %this1, i32 0, i32 0, !dbg !2951
  %call = call addrspace(1) %struct.v8cint32 @_ZN3aie6detailL18vector_cast_helperI6cint32Lj8ERK8v16int32EENS0_14vector_storageIT_XT0_EE4typeEOT1_(%struct.v16int32* nonnull align 32 dereferenceable(64) %data2) #28, !dbg !2950
  %5 = getelementptr inbounds %struct.v8cint32, %struct.v8cint32* %tmp, i32 0, i32 0, !dbg !2950
  %6 = extractvalue %struct.v8cint32 %call, 0, !dbg !2950
  store %struct.ipd.custom_type.v64int8.v64int8 %6, %struct.ipd.custom_type.v64int8.v64int8* %5, align 32, !dbg !2950
  %7 = load %struct.v8cint32, %struct.v8cint32* %tmp, align 32, !dbg !2950, !tbaa !2911
  store %struct.v8cint32 %7, %struct.v8cint32* %data, align 32, !dbg !2950, !tbaa !2911
  %8 = bitcast %struct.v8cint32* %tmp to i8*, !dbg !2950
  call addrspace(1) void @llvm.lifetime.end.p0i8(i64 64, i8* %8) #27, !dbg !2950
  %9 = load %"class.aie::detail::vector.12", %"class.aie::detail::vector.12"* %ret, align 32, !dbg !2952, !tbaa !2912
  %10 = bitcast %"class.aie::detail::vector.12"* %ret to i8*, !dbg !2953
  call addrspace(1) void @llvm.lifetime.end.p0i8(i64 64, i8* %10) #27, !dbg !2953
  %11 = bitcast i32* %DstElems to i8*, !dbg !2953
  call addrspace(1) void @llvm.lifetime.end.p0i8(i64 4, i8* %11) #27, !dbg !2953
  %12 = bitcast i32* %DstSize to i8*, !dbg !2953
  call addrspace(1) void @llvm.lifetime.end.p0i8(i64 4, i8* %12) #27, !dbg !2953
  ret %"class.aie::detail::vector.12" %9, !dbg !2952
}

; Function Attrs: alwaysinline nounwind mustprogress
define linkonce_odr dso_local %"class.aie::detail::vector.12" @_ZNK3aie6detail6vectorI6cint32Lj8EE4growILj8EEENS1_IS2_XT_EEEj(%"class.aie::detail::vector.12"* nonnull dereferenceable(64) %this, i32 %idx) addrspace(1) #9 comdat align 2 !dbg !2954 {
entry:
  %retval = alloca %"class.aie::detail::vector.12", align 32
  %this.addr = alloca %"class.aie::detail::vector.12"*, align 4
  %idx.addr = alloca i32, align 4
  %output_bits = alloca i32, align 4
  %custom_type.tmp = alloca %"class.aie::detail::vector.12", align 32
  store %"class.aie::detail::vector.12"* %this, %"class.aie::detail::vector.12"** %this.addr, align 4, !tbaa !1383
  call addrspace(1) void @llvm.dbg.declare(metadata %"class.aie::detail::vector.12"** %this.addr, metadata !2961, metadata !DIExpression()), !dbg !2966
  store i32 %idx, i32* %idx.addr, align 4, !tbaa !1334
  call addrspace(1) void @llvm.dbg.declare(metadata i32* %idx.addr, metadata !2963, metadata !DIExpression()), !dbg !2967
  %this1 = load %"class.aie::detail::vector.12"*, %"class.aie::detail::vector.12"** %this.addr, align 4
  store i32 undef, i32* %output_bits, align 4, !dbg !2968
  %0 = bitcast i32* %output_bits to i8*, !dbg !2968
  call addrspace(1) void @llvm.lifetime.start.p0i8(i64 4, i8* %0) #27, !dbg !2968
  call addrspace(1) void @llvm.dbg.declare(metadata i32* %output_bits, metadata !2964, metadata !DIExpression()), !dbg !2969
  store i32 512, i32* %output_bits, align 4, !dbg !2969, !tbaa !1334
  call addrspace(1) void @llvm.dbg.declare(metadata %"class.aie::detail::vector.12"* %retval, metadata !2965, metadata !DIExpression()), !dbg !2970
  call addrspace(1) void @_ZN3aie6detail6vectorI6cint32Lj8EEC2Ev(%"class.aie::detail::vector.12"* nonnull dereferenceable(64) %custom_type.tmp) #28, !dbg !2970
  %1 = load %"class.aie::detail::vector.12", %"class.aie::detail::vector.12"* %custom_type.tmp, align 32, !dbg !2970, !tbaa !2912
  store %"class.aie::detail::vector.12" %1, %"class.aie::detail::vector.12"* %retval, align 32, !dbg !2970, !tbaa !2912
  %data = getelementptr inbounds %"class.aie::detail::vector.12", %"class.aie::detail::vector.12"* %retval, i32 0, i32 0, !dbg !2971
  %data2 = getelementptr inbounds %"class.aie::detail::vector.12", %"class.aie::detail::vector.12"* %this1, i32 0, i32 0, !dbg !2974
  %2 = load %struct.v8cint32, %struct.v8cint32* %data2, align 32, !dbg !2974, !tbaa !2911
  store %struct.v8cint32 %2, %struct.v8cint32* %data, align 32, !dbg !2974, !tbaa !2911
  %3 = bitcast i32* %output_bits to i8*, !dbg !2975
  call addrspace(1) void @llvm.lifetime.end.p0i8(i64 4, i8* %3) #27, !dbg !2975
  %4 = load %"class.aie::detail::vector.12", %"class.aie::detail::vector.12"* %retval, align 32, !dbg !2975
  ret %"class.aie::detail::vector.12" %4, !dbg !2975
}

; Function Attrs: alwaysinline nounwind mustprogress
define linkonce_odr dso_local %struct.v8cint32 @_ZNK3aie6detail6vectorI6cint32Lj8EEcv8v8cint32Ev(%"class.aie::detail::vector.12"* nonnull dereferenceable(64) %this) addrspace(1) #9 comdat align 2 !dbg !2976 {
entry:
  %retval = alloca %struct.v8cint32, align 32
  %this.addr = alloca %"class.aie::detail::vector.12"*, align 4
  store %"class.aie::detail::vector.12"* %this, %"class.aie::detail::vector.12"** %this.addr, align 4, !tbaa !1383
  call addrspace(1) void @llvm.dbg.declare(metadata %"class.aie::detail::vector.12"** %this.addr, metadata !2978, metadata !DIExpression()), !dbg !2979
  %this1 = load %"class.aie::detail::vector.12"*, %"class.aie::detail::vector.12"** %this.addr, align 4
  %call = call addrspace(1) %struct.v8cint32 @_ZNK3aie6detail6vectorI6cint32Lj8EE9to_nativeEv(%"class.aie::detail::vector.12"* nonnull dereferenceable(64) %this1) #28, !dbg !2980
  %0 = getelementptr inbounds %struct.v8cint32, %struct.v8cint32* %retval, i32 0, i32 0, !dbg !2980
  %1 = extractvalue %struct.v8cint32 %call, 0, !dbg !2980
  store %struct.ipd.custom_type.v64int8.v64int8 %1, %struct.ipd.custom_type.v64int8.v64int8* %0, align 32, !dbg !2980
  %2 = load %struct.v8cint32, %struct.v8cint32* %retval, align 32, !dbg !2981
  ret %struct.v8cint32 %2, !dbg !2981
}

; Function Attrs: alwaysinline nounwind mustprogress
define linkonce_odr dso_local %struct.v8cint32 @_Z8shuffle88v8cint32ij(%struct.v8cint32 %a0.coerce, i32 %a1, i32 %a2) addrspace(1) #9 comdat {
entry:
  %retval = alloca %struct.v8cint32, align 32
  %a0 = alloca %struct.v8cint32, align 32
  %a1.addr = alloca i32, align 4
  %a2.addr = alloca i32, align 4
  store %struct.v8cint32 %a0.coerce, %struct.v8cint32* %a0, align 32
  store i32 %a1, i32* %a1.addr, align 4, !tbaa !1334
  store i32 %a2, i32* %a2.addr, align 4, !tbaa !1334
  %0 = load i32, i32* %a1.addr, align 4, !tbaa !1334
  %1 = load i32, i32* %a2.addr, align 4, !tbaa !1334
  %2 = load %struct.v8cint32, %struct.v8cint32* %a0, align 32, !tbaa !2911
  %call = call x86_regcallcc addrspace(1) %struct.v8cint32 @__regcall3__chessintr_v8cint32_shuffle8_v8cint32___sint___uint(%struct.v8cint32 %2, i32 signext %0, i32 zeroext %1) #36
  %3 = getelementptr inbounds %struct.v8cint32, %struct.v8cint32* %retval, i32 0, i32 0
  %4 = extractvalue %struct.v8cint32 %call, 0
  store %struct.ipd.custom_type.v64int8.v64int8 %4, %struct.ipd.custom_type.v64int8.v64int8* %3, align 32
  %5 = load %struct.v8cint32, %struct.v8cint32* %retval, align 32
  ret %struct.v8cint32 %5
}

; Function Attrs: alwaysinline nounwind
define linkonce_odr dso_local void @_ZN3aie6detail6vectorI6cint32Lj8EEC2E8v8cint32(%"class.aie::detail::vector.12"* nonnull dereferenceable(64) %this, %struct.v8cint32 %v.coerce) unnamed_addr addrspace(1) #11 comdat align 2 !dbg !2982 {
entry:
  %v = alloca %struct.v8cint32, align 32
  %this.addr = alloca %"class.aie::detail::vector.12"*, align 4
  store %struct.v8cint32 %v.coerce, %struct.v8cint32* %v, align 32
  store %"class.aie::detail::vector.12"* %this, %"class.aie::detail::vector.12"** %this.addr, align 4, !tbaa !1383
  call addrspace(1) void @llvm.dbg.declare(metadata %"class.aie::detail::vector.12"** %this.addr, metadata !2984, metadata !DIExpression()), !dbg !2987
  call addrspace(1) void @llvm.dbg.declare(metadata %struct.v8cint32* %v, metadata !2986, metadata !DIExpression()), !dbg !2988
  %this1 = load %"class.aie::detail::vector.12"*, %"class.aie::detail::vector.12"** %this.addr, align 4
  %data = getelementptr inbounds %"class.aie::detail::vector.12", %"class.aie::detail::vector.12"* %this1, i32 0, i32 0, !dbg !2989
  %0 = load %struct.v8cint32, %struct.v8cint32* %v, align 32, !dbg !2990, !tbaa !2911
  store %struct.v8cint32 %0, %struct.v8cint32* %data, align 32, !dbg !2990, !tbaa !2911
  ret void, !dbg !2991
}

; Function Attrs: alwaysinline nounwind mustprogress
define linkonce_odr dso_local %struct.v2cint32 @_Z5ext_v8v8cint32i(%struct.v8cint32 %a0.coerce, i32 %a1) addrspace(1) #10 comdat {
entry:
  %retval = alloca %struct.v2cint32, align 16
  %a0 = alloca %struct.v8cint32, align 32
  %a1.addr = alloca i32, align 4
  store %struct.v8cint32 %a0.coerce, %struct.v8cint32* %a0, align 32
  store i32 %a1, i32* %a1.addr, align 4, !tbaa !1334
  %0 = load i32, i32* %a1.addr, align 4, !tbaa !1334
  %1 = load %struct.v8cint32, %struct.v8cint32* %a0, align 32, !tbaa !2911
  %call = call x86_regcallcc addrspace(1) %struct.v2cint32 @__regcall3__chessintr_v2cint32_ext_v_v8cint32___sint(%struct.v8cint32 %1, i32 signext %0) #36
  %2 = getelementptr inbounds %struct.v2cint32, %struct.v2cint32* %retval, i32 0, i32 0
  %3 = extractvalue %struct.v2cint32 %call, 0
  store %struct.ipd.custom_type.v16int8.v16int8 %3, %struct.ipd.custom_type.v16int8.v16int8* %2, align 16
  %4 = load %struct.v2cint32, %struct.v2cint32* %retval, align 16
  ret %struct.v2cint32 %4
}

; Function Attrs: nounwind mustprogress
define internal %struct.v4int32 @_ZN3aie6detailL18vector_cast_helperIiLj4E8v2cint32EENS0_14vector_storageIT_XT0_EE4typeEOT1_(%struct.v2cint32* nonnull align 16 dereferenceable(16) %from) addrspace(1) #15 !dbg !2992 {
entry:
  %retval = alloca %struct.v4int32, align 16
  %from.addr = alloca %struct.v2cint32*, align 4
  store %struct.v2cint32* %from, %struct.v2cint32** %from.addr, align 4, !tbaa !1383
  call addrspace(1) void @llvm.dbg.declare(metadata %struct.v2cint32** %from.addr, metadata !2998, metadata !DIExpression()), !dbg !3003
  %0 = load %struct.v2cint32*, %struct.v2cint32** %from.addr, align 4, !dbg !3004, !tbaa !1383
  %1 = load %struct.v2cint32, %struct.v2cint32* %0, align 16, !dbg !3006, !tbaa !2489
  %call = call addrspace(1) %struct.v4int32 @_Z10as_v4int328v2cint32(%struct.v2cint32 %1) #28, !dbg !3006
  %2 = getelementptr inbounds %struct.v4int32, %struct.v4int32* %retval, i32 0, i32 0, !dbg !3006
  %3 = extractvalue %struct.v4int32 %call, 0, !dbg !3006
  store %struct.ipd.custom_type.v16int8.v16int8 %3, %struct.ipd.custom_type.v16int8.v16int8* %2, align 16, !dbg !3006
  %4 = load %struct.v4int32, %struct.v4int32* %retval, align 16, !dbg !3007
  ret %struct.v4int32 %4, !dbg !3007
}

; Function Attrs: alwaysinline nounwind
define linkonce_odr dso_local void @_ZN3aie6detail6vectorIiLj4EEC2E7v4int32(%"class.aie::detail::vector"* nonnull dereferenceable(16) %this, %struct.v4int32 %v.coerce) unnamed_addr addrspace(1) #11 comdat align 2 !dbg !3008 {
entry:
  %v = alloca %struct.v4int32, align 16
  %this.addr = alloca %"class.aie::detail::vector"*, align 4
  store %struct.v4int32 %v.coerce, %struct.v4int32* %v, align 16
  store %"class.aie::detail::vector"* %this, %"class.aie::detail::vector"** %this.addr, align 4, !tbaa !1383
  call addrspace(1) void @llvm.dbg.declare(metadata %"class.aie::detail::vector"** %this.addr, metadata !3010, metadata !DIExpression()), !dbg !3012
  call addrspace(1) void @llvm.dbg.declare(metadata %struct.v4int32* %v, metadata !3011, metadata !DIExpression()), !dbg !3013
  %this1 = load %"class.aie::detail::vector"*, %"class.aie::detail::vector"** %this.addr, align 4
  %data = getelementptr inbounds %"class.aie::detail::vector", %"class.aie::detail::vector"* %this1, i32 0, i32 0, !dbg !3014
  %0 = load %struct.v4int32, %struct.v4int32* %v, align 16, !dbg !3015, !tbaa !2489
  store %struct.v4int32 %0, %struct.v4int32* %data, align 16, !dbg !3015, !tbaa !2489
  ret void, !dbg !3016
}

; Function Attrs: alwaysinline nounwind mustprogress
define linkonce_odr dso_local %struct.v4int32 @_Z10as_v4int328v2cint32(%struct.v2cint32 %a.coerce) addrspace(1) #9 comdat {
entry:
  %a = alloca %struct.v2cint32, align 16
  %custom_type.tmp = alloca %struct.v4int32, align 16
  store %struct.v2cint32 %a.coerce, %struct.v2cint32* %a, align 16
  %mw = getelementptr inbounds %struct.v2cint32, %struct.v2cint32* %a, i32 0, i32 0
  %0 = load %struct.ipd.custom_type.v16int8.v16int8, %struct.ipd.custom_type.v16int8.v16int8* %mw, align 16, !tbaa !2489
  call addrspace(1) void @_ZN7v4int32C2E17chessllvmInternal7v16int8(%struct.v4int32* nonnull dereferenceable(16) %custom_type.tmp, i32 0, %struct.ipd.custom_type.v16int8.v16int8 %0) #28
  %1 = load %struct.v4int32, %struct.v4int32* %custom_type.tmp, align 16, !tbaa !2489
  ret %struct.v4int32 %1
}

; Function Attrs: nounwind readnone willreturn
declare dso_local x86_regcallcc %struct.v2cint32 @__regcall3__chessintr_v2cint32_ext_v_v8cint32___sint(%struct.v8cint32, i32 signext) addrspace(1) #13

; Function Attrs: nounwind readnone willreturn
declare dso_local x86_regcallcc %struct.v8cint32 @__regcall3__chessintr_v8cint32_shuffle8_v8cint32___sint___uint(%struct.v8cint32, i32 signext, i32 zeroext) addrspace(1) #13

; Function Attrs: alwaysinline nounwind mustprogress
define linkonce_odr dso_local %struct.v8cint32 @_ZNK3aie6detail6vectorI6cint32Lj8EE9to_nativeEv(%"class.aie::detail::vector.12"* nonnull dereferenceable(64) %this) addrspace(1) #9 comdat align 2 !dbg !3017 {
entry:
  %this.addr = alloca %"class.aie::detail::vector.12"*, align 4
  store %"class.aie::detail::vector.12"* %this, %"class.aie::detail::vector.12"** %this.addr, align 4, !tbaa !1383
  call addrspace(1) void @llvm.dbg.declare(metadata %"class.aie::detail::vector.12"** %this.addr, metadata !3024, metadata !DIExpression()), !dbg !3025
  %this1 = load %"class.aie::detail::vector.12"*, %"class.aie::detail::vector.12"** %this.addr, align 4
  %data = getelementptr inbounds %"class.aie::detail::vector.12", %"class.aie::detail::vector.12"* %this1, i32 0, i32 0, !dbg !3026
  %0 = load %struct.v8cint32, %struct.v8cint32* %data, align 32, !dbg !3026, !tbaa !2911
  ret %struct.v8cint32 %0, !dbg !3026
}

; Function Attrs: alwaysinline nounwind
define linkonce_odr dso_local void @_ZN3aie6detail6vectorI6cint32Lj8EEC2Ev(%"class.aie::detail::vector.12"* nonnull dereferenceable(64) %this) unnamed_addr addrspace(1) #11 comdat align 2 !dbg !3028 {
entry:
  %this.addr = alloca %"class.aie::detail::vector.12"*, align 4
  store %"class.aie::detail::vector.12"* %this, %"class.aie::detail::vector.12"** %this.addr, align 4, !tbaa !1383
  call addrspace(1) void @llvm.dbg.declare(metadata %"class.aie::detail::vector.12"** %this.addr, metadata !3030, metadata !DIExpression()), !dbg !3031
